
main.elf:     file format elf32-avr

Sections:
Idx Name          Size      VMA       LMA       File off  Algn
  0 .text         00003d00  00000000  00000000  00000094  2**1
                  CONTENTS, ALLOC, LOAD, READONLY, CODE
  1 .bss          0000003f  00800060  00800060  00003d94  2**0
                  ALLOC
  2 .eeprom       0000000d  00810000  00810000  00003d94  2**0
                  CONTENTS, ALLOC, LOAD, DATA

Disassembly of section .text:

00000000 <__vectors>:
       0:	0c 94 8f 0f 	jmp	0x1f1e	; 0x1f1e <__ctors_end>
       4:	0c 94 a1 0f 	jmp	0x1f42	; 0x1f42 <__bad_interrupt>
       8:	0c 94 a1 0f 	jmp	0x1f42	; 0x1f42 <__bad_interrupt>
       c:	0c 94 a1 0f 	jmp	0x1f42	; 0x1f42 <__bad_interrupt>
      10:	0c 94 a1 0f 	jmp	0x1f42	; 0x1f42 <__bad_interrupt>
      14:	0c 94 a7 10 	jmp	0x214e	; 0x214e <__vector_5>
      18:	0c 94 a1 0f 	jmp	0x1f42	; 0x1f42 <__bad_interrupt>
      1c:	0c 94 94 10 	jmp	0x2128	; 0x2128 <__vector_7>
      20:	0c 94 a1 0f 	jmp	0x1f42	; 0x1f42 <__bad_interrupt>
      24:	0c 94 a1 0f 	jmp	0x1f42	; 0x1f42 <__bad_interrupt>
      28:	0c 94 a1 0f 	jmp	0x1f42	; 0x1f42 <__bad_interrupt>
      2c:	0c 94 a1 0f 	jmp	0x1f42	; 0x1f42 <__bad_interrupt>
      30:	0c 94 a1 0f 	jmp	0x1f42	; 0x1f42 <__bad_interrupt>
      34:	0c 94 a1 0f 	jmp	0x1f42	; 0x1f42 <__bad_interrupt>
      38:	0c 94 a1 0f 	jmp	0x1f42	; 0x1f42 <__bad_interrupt>
      3c:	0c 94 a1 0f 	jmp	0x1f42	; 0x1f42 <__bad_interrupt>
      40:	0c 94 a1 0f 	jmp	0x1f42	; 0x1f42 <__bad_interrupt>
      44:	0c 94 a1 0f 	jmp	0x1f42	; 0x1f42 <__bad_interrupt>
      48:	0c 94 a1 0f 	jmp	0x1f42	; 0x1f42 <__bad_interrupt>
      4c:	0c 94 a1 0f 	jmp	0x1f42	; 0x1f42 <__bad_interrupt>
      50:	0c 94 a1 0f 	jmp	0x1f42	; 0x1f42 <__bad_interrupt>

00000054 <Font_6x8_Data>:
      54:	00 00 00 00 00 00 00 3e 45 51 45 3e 00 3e 6b 6f     .......>EQE>.>ko
      64:	6b 3e 00 1c 3e 7c 3e 1c 00 18 3c 7e 3c 18 00 30     k>..>|>...<~<..0
      74:	36 7f 36 30 00 18 5c 7e 5c 18 00 00 18 18 00 00     6.60..\~\.......
      84:	ff ff e7 e7 ff ff 00 3c 24 24 3c 00 ff c3 db db     .......<$$<.....
      94:	c3 ff 00 30 48 4a 36 0e 00 06 29 79 29 06 00 60     ...0HJ6...)y)..`
      a4:	70 3f 02 04 00 60 7e 0a 35 3f 00 2a 1c 36 1c 2a     p?...`~.5?.*.6.*
      b4:	00 00 7f 3e 1c 08 00 08 1c 3e 7f 00 00 14 36 7f     ...>.....>....6.
      c4:	36 14 00 00 5f 00 5f 00 00 06 09 7f 01 7f 00 22     6..._._........"
      d4:	4d 55 59 22 00 60 60 60 60 00 00 14 b6 ff b6 14     MUY".````.......
      e4:	00 04 06 7f 06 04 00 10 30 7f 30 10 00 08 08 3e     ........0.0....>
      f4:	1c 08 00 08 1c 3e 08 08 00 78 40 40 40 40 00 08     .....>...x@@@@..
     104:	3e 08 3e 08 00 30 3c 3f 3c 30 00 03 0f 3f 0f 03     >.>..0<?<0...?..
     114:	00 00 00 00 00 00 00 00 06 5f 06 00 00 07 03 00     ........._......
     124:	07 03 00 24 7e 24 7e 24 00 24 2b 6a 12 00 00 63     ...$~$~$.$+j...c
     134:	13 08 64 63 00 36 49 56 20 50 00 00 07 03 00 00     ..dc.6IV P......
     144:	00 00 3e 41 00 00 00 00 41 3e 00 00 00 08 3e 1c     ..>A....A>....>.
     154:	3e 08 00 08 08 3e 08 08 00 00 e0 60 00 00 00 08     >....>.....`....
     164:	08 08 08 08 00 00 60 60 00 00 00 20 10 08 04 02     ......``... ....
     174:	00 3e 41 41 41 3e 00 00 42 7f 40 00 00 62 51 49     .>AAA>..B.@..bQI
     184:	49 46 00 22 49 49 49 36 00 18 14 12 7f 10 00 2f     IF."III6......./
     194:	49 49 49 31 00 3c 4a 49 49 30 00 01 71 09 05 03     III1.<JII0..q...
     1a4:	00 36 49 49 49 36 00 06 49 49 29 1e 00 00 6c 6c     .6III6..II)...ll
     1b4:	00 00 00 00 ec 6c 00 00 00 08 14 22 41 00 00 24     .....l....."A..$
     1c4:	24 24 24 24 00 00 41 22 14 08 00 02 01 59 09 06     $$$$..A".....Y..
     1d4:	00 3e 41 5d 55 1e 00 7e 11 11 11 7e 00 7f 49 49     .>A]U..~...~..II
     1e4:	49 36 00 3e 41 41 41 22 00 7f 41 41 41 3e 00 7f     I6.>AAA"..AAA>..
     1f4:	49 49 49 41 00 7f 09 09 09 01 00 3e 41 49 49 7a     IIIA.......>AIIz
     204:	00 7f 08 08 08 7f 00 00 41 7f 41 00 00 30 40 40     ........A.A..0@@
     214:	40 3f 00 7f 08 14 22 41 00 7f 40 40 40 40 00 7f     @?...."A..@@@@..
     224:	02 04 02 7f 00 7f 02 04 08 7f 00 3e 41 41 41 3e     ...........>AAA>
     234:	00 7f 09 09 09 06 00 3e 41 51 21 5e 00 7f 09 09     .......>AQ!^....
     244:	19 66 00 26 49 49 49 32 00 01 01 7f 01 01 00 3f     .f.&III2.......?
     254:	40 40 40 3f 00 1f 20 40 20 1f 00 3f 40 3c 40 3f     @@@?.. @ ..?@<@?
     264:	00 63 14 08 14 63 00 07 08 70 08 07 00 71 49 45     .c...c...p...qIE
     274:	43 00 00 00 7f 41 41 00 00 02 04 08 10 20 00 00     C....AA...... ..
     284:	41 41 7f 00 00 04 02 01 02 04 80 80 80 80 80 80     AA..............
     294:	00 00 03 07 00 00 00 20 54 54 54 78 00 7f 44 44     ....... TTTx..DD
     2a4:	44 38 00 38 44 44 44 28 00 38 44 44 44 7f 00 38     D8.8DDD(.8DDD..8
     2b4:	54 54 54 08 00 08 7e 09 09 00 00 18 a4 a4 a4 7c     TTT...~........|
     2c4:	00 7f 04 04 78 00 00 00 00 7d 40 00 00 40 80 84     ....x....}@..@..
     2d4:	7d 00 00 7f 10 28 44 00 00 00 00 7f 40 00 00 7c     }....(D.....@..|
     2e4:	04 18 04 78 00 7c 04 04 78 00 00 38 44 44 44 38     ...x.|..x..8DDD8
     2f4:	00 fc 44 44 44 38 00 38 44 44 44 fc 00 44 78 44     ..DDD8.8DDD..DxD
     304:	04 08 00 08 54 54 54 20 00 04 3e 44 24 00 00 3c     ....TTT ..>D$..<
     314:	40 20 7c 00 00 1c 20 40 20 1c 00 3c 60 30 60 3c     @ |... @ ..<`0`<
     324:	00 6c 10 10 6c 00 00 9c a0 60 3c 00 00 64 54 54     .l..l....`<..dTT
     334:	4c 00 00 08 3e 41 41 00 00 00 00 77 00 00 00 00     L...>AA....w....
     344:	41 41 3e 08 00 02 01 02 01 00 00 3c 26 23 26 3c     AA>........<&#&<
     354:	44 11 44 11 44 11 aa 55 aa 55 aa 55 bb ee bb ee     D.D.D..U.U.U....
     364:	bb ee 00 00 00 ff 00 00 08 08 08 ff 00 00 0a 0a     ................
     374:	0a ff 00 00 08 ff 00 ff 00 00 08 f8 08 f8 00 00     ................
     384:	0a 0a 0a fe 00 00 0a fb 00 ff 00 00 00 ff 00 ff     ................
     394:	00 00 0a fa 02 fe 00 00 0a 0b 08 0f 00 00 08 0f     ................
     3a4:	08 0f 00 00 0a 0a 0a 0f 00 00 08 08 08 f8 00 00     ................
     3b4:	00 00 00 0f 08 08 08 08 08 0f 08 08 08 08 08 f8     ................
     3c4:	08 08 00 00 00 ff 08 08 08 08 08 08 08 08 08 08     ................
     3d4:	08 ff 08 08 00 00 00 ff 0a 0a 00 ff 00 ff 08 08     ................
     3e4:	00 0f 08 0b 0a 0a 00 fe 02 fa 0a 0a 0a 0b 08 0b     ................
     3f4:	0a 0a 0a fa 02 fa 0a 0a 00 ff 00 fb 0a 0a 0a 0a     ................
     404:	0a 0a 0a 0a 0a fb 00 fb 0a 0a 0a 0a 0a 0b 0a 0a     ................
     414:	08 0f 08 0f 08 08 0a 0a 0a fa 0a 0a 08 f8 08 f8     ................
     424:	08 08 00 0f 08 0f 08 08 00 00 00 0f 0a 0a 00 00     ................
     434:	00 fe 0a 0a 00 f8 08 f8 08 08 08 ff 08 ff 08 08     ................
     444:	00 7e 4b 4a 4b 42 0a 0a 0a ff 0a 0a 08 08 08 0f     .~KJKB..........
     454:	00 00 00 00 00 f8 08 08 ff ff ff ff ff ff f0 f0     ................
     464:	f0 f0 f0 f0 ff ff ff 00 00 00 00 00 00 ff ff ff     ................
     474:	0f 0f 0f 0f 0f 0f 00 3e 49 49 41 22 00 38 54 54     .......>IIA".8TT
     484:	44 28 00 01 40 7e 40 01 00 00 01 7c 41 00 00 27     D(..@~@....|A..'
     494:	48 4b 48 3f 00 9d a2 62 3d 00 00 06 09 09 06 00     HKH?...b=.......
     4a4:	00 38 55 54 55 08 00 00 18 18 00 00 00 00 08 00     .8UTU...........
     4b4:	00 00 00 30 40 3e 02 02 7f 06 18 7f 13 13 2a 3e     ...0@>........*>
     4c4:	14 14 3e 2a 00 3c 3c 3c 3c 00 00 00 00 00 00 00     ..>*.<<<<.......
     4d4:	00 7e 11 11 11 7e 00 7f 49 49 49 31 00 7f 49 49     .~...~..III1..II
     4e4:	49 36 00 7f 01 01 01 01 c0 7e 41 41 7f c0 00 7f     I6.......~AA....
     4f4:	49 49 49 41 00 77 08 7f 08 77 22 49 49 49 36 00     IIIA.w...w"III6.
     504:	00 7f 20 10 08 7f 00 7e 21 11 09 7e 00 7f 08 14     .. ....~!..~....
     514:	22 41 00 40 7e 01 01 7f 00 7f 02 04 02 7f 00 7f     "A.@~...........
     524:	08 08 08 7f 00 3e 41 41 41 3e 00 7f 01 01 01 7f     .....>AAA>......
     534:	00 7f 09 09 09 06 00 3e 41 41 41 22 00 01 01 7f     .......>AAA"....
     544:	01 01 00 27 48 48 48 3f 00 0e 11 7f 11 0e 00 63     ...'HHH?.......c
     554:	14 08 14 63 00 7f 40 40 7f c0 00 07 08 08 08 7f     ...c..@@........
     564:	00 7f 40 7f 40 7f 00 7f 40 7f 40 ff 03 01 7f 48     ..@.@...@.@....H
     574:	48 30 00 7f 48 48 30 7f 00 7f 48 48 48 30 00 22     H0..HH0...HHH0."
     584:	41 49 49 3e 00 7f 08 3e 41 3e 00 66 19 09 09 7f     AII>...>A>.f....
     594:	00 20 54 54 54 78 00 3c 4a 4a 4a 31 00 7c 54 54     . TTTx.<JJJ1.|TT
     5a4:	54 28 00 7c 04 04 0c 00 c0 78 44 44 7c c0 00 38     T(.|.....xDD|..8
     5b4:	54 54 54 08 00 6c 10 7c 10 6c 00 28 44 54 54 28     TTT..l.|.l.(DTT(
     5c4:	00 7c 20 10 08 7c 00 7c 20 12 0a 7c 00 7c 10 28     .| ..|.| ..|.|.(
     5d4:	44 00 40 38 04 04 7c 00 00 7c 08 10 08 7c 00 7c     D.@8..|..|...|.|
     5e4:	10 10 10 7c 00 38 44 44 44 38 00 7c 04 04 04 7c     ...|.8DDD8.|...|
     5f4:	00 fc 44 44 44 38 00 38 44 44 44 28 00 04 04 7c     ..DDD8.8DDD(...|
     604:	04 04 00 9c a0 60 3c 00 00 18 24 7c 24 18 00 6c     .....`<...$|$..l
     614:	10 10 6c 00 00 7c 40 40 7c c0 00 0c 10 10 10 7c     ..l..|@@|......|
     624:	00 7c 40 7c 40 7c 00 7c 40 7c 40 fc 0c 04 7c 50     .|@|@|.|@|@...|P
     634:	50 20 00 7c 50 50 20 7c 00 7c 50 50 50 20 00 28     P .|PP |.|PPP .(
     644:	44 54 54 38 00 7c 10 38 44 38 00 48 34 14 14 7c     DTT8.|.8D8.H4..|

00000654 <Font_12x16_Data>:
     654:	00 00 00 00 00 00 00 00 00 00 00 00 00 00 00 00     ................
     664:	00 00 00 00 00 00 00 00 00 f0 0c 02 32 31 01 31     ............21.1
     674:	32 02 0c f0 00 03 0c 10 11 22 22 22 11 10 0c 03     2........"""....
     684:	00 f0 fc fe ce cf ff cf ce fe fc f0 00 03 0f 1f     ................
     694:	1e 3d 3d 3d 1e 1f 0f 03 00 00 f0 f8 f8 f0 e0 f0     .===............
     6a4:	f8 f8 f0 00 00 00 00 01 03 07 0f 07 03 01 00 00     ................
     6b4:	00 00 80 c0 e0 f0 f8 f0 e0 c0 80 00 00 00 00 01     ................
     6c4:	03 07 0f 07 03 01 00 00 00 80 c0 c0 b8 fc fc fc     ................
     6d4:	b8 c0 c0 80 00 03 07 07 13 1b 1f 1b 13 07 07 03     ................
     6e4:	00 00 80 c0 e0 f0 fc f0 e0 c0 80 00 00 00 03 07     ................
     6f4:	17 1b 1f 1b 17 07 03 00 00 00 00 00 80 c0 c0 80     ................
     704:	00 00 00 00 00 00 00 00 01 03 03 01 00 00 00 00     ................
     714:	ff ff ff ff 7f 3f 3f 7f ff ff ff ff ff ff ff ff     .....??.........
     724:	fe fc fc fe ff ff ff ff 00 00 00 c0 20 10 10 20     ............ .. 
     734:	c0 00 00 00 00 00 00 03 04 08 08 04 03 00 00 00     ................
     744:	ff ff ff 3f df ef ef df 3f ff ff ff ff ff ff fc     ...?....?.......
     754:	fb f7 f7 fb fc ff ff ff 00 80 c0 60 20 20 60 c8     ...........`  `.
     764:	a8 18 78 00 00 03 07 0c 08 08 0c 07 03 00 00 00     ..x.............
     774:	00 00 00 70 f8 8c 04 04 8c f8 70 00 00 00 00 00     ...p......p.....
     784:	08 09 3f 3f 09 08 00 00 00 00 00 00 00 00 ff 0e     ..??............
     794:	7c 38 00 00 00 00 00 0c 1e 1e 0f 00 00 00 00 00     |8..............
     7a4:	00 00 00 00 ff 33 66 cc 98 f0 00 00 00 06 0f 0f     .....3f.........
     7b4:	07 00 30 78 79 3f 00 00 00 80 c8 f0 30 18 1e 18     ..0xy?......0...
     7c4:	30 f0 c8 80 00 00 09 07 06 0c 3c 0c 06 07 09 00     0.........<.....
     7d4:	00 00 00 fc f8 f0 e0 c0 80 00 00 00 00 00 00 1f     ................
     7e4:	0f 07 03 01 00 00 00 00 00 00 00 80 c0 e0 f0 f8     ................
     7f4:	fc 00 00 00 00 00 00 00 01 03 07 0f 1f 00 00 00     ................
     804:	00 00 00 10 18 1c fe 1c 18 10 00 00 00 00 00 04     ................
     814:	0c 1c 3f 1c 0c 04 00 00 00 00 00 fe fe 00 00 fe     ..?.............
     824:	fe 00 00 00 00 00 00 37 37 00 00 37 37 00 00 00     .......77..77...
     834:	00 38 7c c6 82 fe fe 02 fe fe 02 00 00 00 00 00     .8|.............
     844:	00 3f 3f 00 3f 3f 00 00 00 00 dc fe 22 22 22 22     .??.??......""""
     854:	e6 c4 00 00 00 00 08 19 11 11 11 11 1f 0e 00 00     ................
     864:	00 00 00 00 00 00 00 00 00 00 00 00 00 00 00 38     ...............8
     874:	38 38 38 38 38 38 38 00 00 00 00 08 0c 0e ff 0e     8888888.........
     884:	0c 08 00 00 00 00 00 44 4c 5c 7f 5c 4c 44 00 00     .......DL\.\LD..
     894:	00 00 00 10 18 1c fe 1c 18 10 00 00 00 00 00 00     ................
     8a4:	00 00 3f 00 00 00 00 00 00 00 00 00 00 00 fe 00     ..?.............
     8b4:	00 00 00 00 00 00 00 04 0c 1c 3f 1c 0c 04 00 00     ..........?.....
     8c4:	00 00 80 80 80 80 80 f0 e0 c0 80 00 00 00 00 00     ................
     8d4:	00 00 00 07 03 01 00 00 00 00 80 c0 e0 f0 80 80     ................
     8e4:	80 80 80 00 00 00 00 01 03 07 00 00 00 00 00 00     ................
     8f4:	00 00 00 00 00 00 00 00 00 00 00 00 00 3f 20 20     .............?  
     904:	20 20 20 20 20 20 20 00 00 80 c0 e0 f0 80 80 80            .........
     914:	f0 e0 c0 80 00 00 01 03 07 00 00 00 07 03 01 00     ................
     924:	00 00 00 00 80 c0 e0 c0 80 00 00 00 00 04 06 07     ................
     934:	07 07 07 07 07 07 06 04 00 20 60 e0 e0 e0 e0 e0     ......... `.....
     944:	e0 e0 60 20 00 00 00 00 01 03 07 03 01 00 00 00     ..` ............
     954:	00 00 00 00 00 00 00 00 00 00 00 00 00 00 00 00     ................
     964:	00 00 00 00 00 00 00 00 00 00 00 00 7c ff ff 7c     ............|..|
     974:	00 00 00 00 00 00 00 00 00 33 33 00 00 00 00 00     .........33.....
     984:	00 00 00 3c 3c 00 00 3c 3c 00 00 00 00 00 00 00     ...<<..<<.......
     994:	00 00 00 00 00 00 00 00 00 00 10 90 f0 7e 1e 90     .............~..
     9a4:	f0 7e 1e 10 00 02 1e 1f 03 02 1e 1f 03 02 00 00     .~..............
     9b4:	00 00 78 fc cc ff ff cc cc 88 00 00 00 00 04 0c     ..x.............
     9c4:	0c 3f 3f 0c 0f 07 00 00 00 00 38 38 38 00 80 c0     .??.......888...
     9d4:	e0 70 38 1c 00 30 38 1c 0e 07 03 01 38 38 38 00     .p8..08.....888.
     9e4:	00 00 00 b8 fc c6 e2 3e 1c 00 00 00 00 00 1f 3f     .......>.......?
     9f4:	31 21 37 1e 1c 36 22 00 00 00 00 00 27 3f 1f 00     1!7..6".....'?..
     a04:	00 00 00 00 00 00 00 00 00 00 00 00 00 00 00 00     ................
     a14:	00 00 00 f0 fc fe 07 01 01 00 00 00 00 00 00 03     ................
     a24:	0f 1f 38 20 20 00 00 00 00 00 00 01 01 07 fe fc     ..8  ...........
     a34:	f0 00 00 00 00 00 00 20 20 38 1f 0f 03 00 00 00     .......  8......
     a44:	00 00 98 b8 e0 f8 f8 e0 b8 98 00 00 00 00 0c 0e     ................
     a54:	03 0f 0f 03 0e 0c 00 00 00 00 80 80 80 f0 f0 80     ................
     a64:	80 80 00 00 00 00 01 01 01 0f 0f 01 01 01 00 00     ................
     a74:	00 00 00 00 00 00 00 00 00 00 00 00 00 00 00 00     ................
     a84:	b8 f8 78 00 00 00 00 00 00 00 80 80 80 80 80 80     ..x.............
     a94:	80 80 00 00 00 00 01 01 01 01 01 01 01 01 00 00     ................
     aa4:	00 00 00 00 00 00 00 00 00 00 00 00 00 00 00 00     ................
     ab4:	38 38 38 00 00 00 00 00 00 00 00 00 00 80 c0 e0     888.............
     ac4:	70 38 1c 0e 00 18 1c 0e 07 03 01 00 00 00 00 00     p8..............
     ad4:	00 f8 fe 06 03 83 c3 63 33 1e fe f8 00 07 1f 1e     .......c3.......
     ae4:	33 31 30 30 30 18 1f 07 00 00 00 0c 0c 0e ff ff     31000...........
     af4:	00 00 00 00 00 00 00 30 30 30 3f 3f 30 30 30 00     .......000??000.
     b04:	00 1c 1e 07 03 03 83 c3 e3 77 3e 1c 00 30 38 3c     .........w>..08<
     b14:	3e 37 33 31 30 30 30 30 00 0c 0e 07 c3 c3 c3 c3     >7310000........
     b24:	c3 e7 7e 3c 00 0c 1c 38 30 30 30 30 30 39 1f 0e     ..~<...8000009..
     b34:	00 c0 e0 70 38 1c 0e 07 ff ff 00 00 00 03 03 03     ...p8...........
     b44:	03 03 03 03 3f 3f 03 03 00 3f 7f 63 63 63 63 63     ....??...?.ccccc
     b54:	63 e3 c3 83 00 0c 1c 38 30 30 30 30 30 38 1f 0f     c......8000008..
     b64:	00 c0 f0 f8 dc ce c7 c3 c3 c3 80 00 00 0f 1f 39     ...............9
     b74:	30 30 30 30 30 39 1f 0f 00 03 03 03 03 03 03 c3     000009..........
     b84:	f3 3f 0f 03 00 00 00 00 30 3c 0f 03 00 00 00 00     .?......0<......
     b94:	00 00 bc fe e7 c3 c3 c3 e7 fe bc 00 00 0f 1f 39     ...............9
     ba4:	30 30 30 30 30 39 1f 0f 00 3c 7e e7 c3 c3 c3 c3     000009...<~.....
     bb4:	c3 e7 fe fc 00 00 00 30 30 30 38 1c 0e 07 03 00     .......0008.....
     bc4:	00 00 00 00 70 70 70 00 00 00 00 00 00 00 00 00     ....ppp.........
     bd4:	1c 1c 1c 00 00 00 00 00 00 00 00 00 70 70 70 00     ............ppp.
     be4:	00 00 00 00 00 00 00 00 9c fc 7c 00 00 00 00 00     ..........|.....
     bf4:	00 00 c0 e0 f0 38 1c 0e 07 03 00 00 00 00 00 01     .....8..........
     c04:	03 07 0e 1c 38 30 00 00 00 00 60 60 60 60 60 60     ....80....``````
     c14:	60 60 60 00 00 00 06 06 06 06 06 06 06 06 06 00     ```.............
     c24:	00 00 03 07 0e 1c 38 f0 e0 c0 00 00 00 00 30 38     ......8.......08
     c34:	1c 0e 07 03 01 00 00 00 00 1c 1e 07 03 83 c3 e3     ................
     c44:	77 3e 1c 00 00 00 00 00 00 37 37 00 00 00 00 00     w>.......77.....
     c54:	00 f8 fe 07 f3 fb 1b fb fb 07 fe f8 00 0f 1f 18     ................
     c64:	33 37 36 37 37 36 03 01 00 00 00 e0 fc 1f 1f fc     376776..........
     c74:	e0 00 00 00 00 38 3f 07 06 06 06 06 07 3f 38 00     .....8?......?8.
     c84:	00 ff ff c3 c3 c3 c3 e7 fe bc 00 00 00 3f 3f 30     .............??0
     c94:	30 30 30 30 39 1f 0f 00 00 f0 fc 0e 07 03 03 03     00009...........
     ca4:	07 0e 0c 00 00 03 0f 1c 38 30 30 30 38 1c 0c 00     ........80008...
     cb4:	00 ff ff 03 03 03 03 07 0e fc f0 00 00 3f 3f 30     .............??0
     cc4:	30 30 30 38 1c 0f 03 00 00 ff ff c3 c3 c3 c3 c3     0008............
     cd4:	c3 03 03 00 00 3f 3f 30 30 30 30 30 30 30 30 00     .....??00000000.
     ce4:	00 ff ff c3 c3 c3 c3 c3 c3 03 03 00 00 3f 3f 00     .............??.
     cf4:	00 00 00 00 00 00 00 00 00 f0 fc 0e 07 03 c3 c3     ................
     d04:	c3 c7 c6 00 00 03 0f 1c 38 30 30 30 30 3f 3f 00     ........80000??.
     d14:	00 ff ff c0 c0 c0 c0 c0 c0 ff ff 00 00 3f 3f 00     .............??.
     d24:	00 00 00 00 00 3f 3f 00 00 00 00 03 03 ff ff 03     .....??.........
     d34:	03 00 00 00 00 00 00 30 30 3f 3f 30 30 00 00 00     .......00??00...
     d44:	00 00 00 00 00 00 00 00 00 ff ff 00 00 0e 1e 38     ...............8
     d54:	30 30 30 30 38 1f 07 00 00 ff ff c0 e0 f0 38 1c     00008.........8.
     d64:	0e 07 03 00 00 3f 3f 00 01 03 07 0e 1c 38 30 00     .....??......80.
     d74:	00 ff ff 00 00 00 00 00 00 00 00 00 00 3f 3f 30     .............??0
     d84:	30 30 30 30 30 30 30 00 00 ff ff 1e 78 e0 e0 78     0000000.....x..x
     d94:	1e ff ff 00 00 3f 3f 00 00 01 01 00 00 3f 3f 00     .....??......??.
     da4:	00 ff ff 0e 38 f0 c0 00 00 ff ff 00 00 3f 3f 00     ....8........??.
     db4:	00 00 03 07 1c 3f 3f 00 00 f0 fc 0e 07 03 03 07     .....??.........
     dc4:	0e fc f0 00 00 03 0f 1c 38 30 30 38 1c 0f 03 00     ........8008....
     dd4:	00 ff ff 83 83 83 83 83 c7 fe 7c 00 00 3f 3f 01     ..........|..??.
     de4:	01 01 01 01 01 00 00 00 00 f0 fc 0e 07 03 03 07     ................
     df4:	0e fc f0 00 00 03 0f 1c 38 30 36 3e 1c 3f 33 00     ........806>.?3.
     e04:	00 ff ff 83 83 83 83 83 c7 fe 7c 00 00 3f 3f 01     ..........|..??.
     e14:	01 03 07 0f 1d 38 30 00 00 3c 7e e7 c3 c3 c3 c3     .....80..<~.....
     e24:	c7 8e 0c 00 00 0c 1c 38 30 30 30 30 39 1f 0f 00     .......800009...
     e34:	00 00 03 03 03 ff ff 03 03 03 00 00 00 00 00 00     ................
     e44:	00 3f 3f 00 00 00 00 00 00 ff ff 00 00 00 00 00     .??.............
     e54:	00 ff ff 00 00 07 1f 38 30 30 30 30 38 1f 07 00     .......800008...
     e64:	00 07 3f f8 c0 00 00 c0 f8 3f 07 00 00 00 00 01     ..?......?......
     e74:	0f 3e 3e 0f 01 00 00 00 00 ff ff 00 00 80 80 00     .>>.............
     e84:	00 ff ff 00 00 3f 3f 1c 06 03 03 06 1c 3f 3f 00     .....??......??.
     e94:	00 03 0f 1c 30 e0 e0 30 1c 0f 03 00 00 30 3c 0e     ....0..0.....0<.
     ea4:	03 01 01 03 0e 3c 30 00 00 03 0f 3c f0 c0 c0 f0     .....<0....<....
     eb4:	3c 0f 03 00 00 00 00 00 00 3f 3f 00 00 00 00 00     <........??.....
     ec4:	00 03 03 03 03 c3 e3 33 1f 0f 03 00 00 30 3c 3e     .......3.....0<>
     ed4:	33 31 30 30 30 30 30 00 00 00 00 ff ff 03 03 03     3100000.........
     ee4:	03 00 00 00 00 00 00 3f 3f 30 30 30 30 00 00 00     .......??0000...
     ef4:	00 0e 1c 38 70 e0 c0 80 00 00 00 00 00 00 00 00     ...8p...........
     f04:	00 00 01 03 07 0e 1c 18 00 00 00 03 03 03 03 ff     ................
     f14:	ff 00 00 00 00 00 00 30 30 30 30 3f 3f 00 00 00     .......0000??...
     f24:	00 60 70 38 1c 0e 07 0e 1c 38 70 60 00 00 00 00     .`p8.....8p`....
     f34:	00 00 00 00 00 00 00 00 00 00 00 00 00 00 00 00     ................
     f44:	00 00 00 00 00 c0 c0 c0 c0 c0 c0 c0 c0 c0 c0 c0     ................
     f54:	00 00 00 00 00 3e 7e 4e 00 00 00 00 00 00 00 00     .....>~N........
     f64:	00 00 00 00 00 00 00 00 00 00 40 60 60 60 60 60     ..........@`````
     f74:	60 e0 c0 00 00 1c 3e 33 33 33 33 33 33 3f 3f 00     `.....>333333??.
     f84:	00 ff ff c0 60 60 60 60 e0 c0 80 00 00 3f 3f 30     ....````.....??0
     f94:	30 30 30 30 38 1f 0f 00 00 80 c0 e0 60 60 60 60     00008.......````
     fa4:	60 c0 80 00 00 0f 1f 38 30 30 30 30 30 18 08 00     `......800000...
     fb4:	00 80 c0 e0 60 60 60 e0 c0 ff ff 00 00 0f 1f 38     ....```........8
     fc4:	30 30 30 30 30 3f 3f 00 00 80 c0 e0 60 60 60 60     00000??.....````
     fd4:	60 c0 80 00 00 0f 1f 3b 33 33 33 33 33 13 01 00     `......;33333...
     fe4:	00 c0 c0 fc fe c7 c3 c3 03 00 00 00 00 00 00 3f     ...............?
     ff4:	3f 00 00 00 00 00 00 00 00 80 c0 e0 60 60 60 60     ?...........````
    1004:	60 e0 e0 00 00 03 c7 ce cc cc cc cc e6 7f 3f 00     `.............?.
    1014:	00 ff ff c0 60 60 60 e0 c0 80 00 00 00 3f 3f 00     ....```......??.
    1024:	00 00 00 00 3f 3f 00 00 00 00 00 00 60 ec ec 00     ....??......`...
    1034:	00 00 00 00 00 00 00 30 30 3f 3f 30 30 00 00 00     .......00??00...
    1044:	00 00 00 00 00 00 60 ec ec 00 00 00 00 00 00 60     ......`........`
    1054:	e0 c0 c0 ff 7f 00 00 00 00 00 ff ff 00 80 c0 e0     ................
    1064:	60 00 00 00 00 00 3f 3f 03 07 0f 1c 38 30 00 00     `.....??....80..
    1074:	00 00 00 00 03 ff ff 00 00 00 00 00 00 00 00 30     ...............0
    1084:	30 3f 3f 30 30 00 00 00 00 e0 c0 e0 e0 c0 c0 e0     0??00...........
    1094:	e0 c0 80 00 00 3f 3f 00 00 3f 3f 00 00 3f 3f 00     .....??..??..??.
    10a4:	00 00 e0 e0 60 60 60 60 e0 c0 80 00 00 00 3f 3f     ....````......??
    10b4:	00 00 00 00 00 3f 3f 00 00 80 c0 e0 60 60 60 60     .....??.....````
    10c4:	e0 c0 80 00 00 0f 1f 38 30 30 30 30 38 1f 0f 00     .......800008...
    10d4:	00 e0 e0 60 60 60 60 60 e0 c0 80 00 00 ff ff 0c     ...`````........
    10e4:	18 18 18 18 1c 0f 07 00 00 80 c0 e0 60 60 60 60     ............````
    10f4:	60 e0 e0 00 00 07 0f 1c 18 18 18 18 0c ff ff 00     `...............
    1104:	00 00 e0 e0 c0 60 60 60 60 e0 c0 00 00 00 3f 3f     .....````.....??
    1114:	00 00 00 00 00 00 00 00 00 c0 e0 60 60 60 60 60     ...........`````
    1124:	40 00 00 00 00 11 33 33 33 33 33 3f 1e 00 00 00     @.....33333?....
    1134:	00 60 60 fe fe 60 60 60 00 00 00 00 00 00 00 1f     .``..```........
    1144:	3f 30 30 30 30 00 00 00 00 e0 e0 00 00 00 00 00     ?0000...........
    1154:	00 e0 e0 00 00 0f 1f 38 30 30 30 30 18 3f 3f 00     .......80000.??.
    1164:	00 60 e0 80 00 00 00 00 80 e0 60 00 00 00 01 07     .`........`.....
    1174:	1e 38 38 1e 07 01 00 00 00 e0 e0 00 00 e0 e0 00     .88.............
    1184:	00 e0 e0 00 00 07 1f 38 1c 0f 0f 1c 38 1f 07 00     .......8....8...
    1194:	00 60 e0 c0 80 00 80 c0 e0 60 00 00 00 30 38 1d     .`.......`...08.
    11a4:	0f 07 0f 1d 38 30 00 00 00 00 60 e0 80 00 00 80     ....80....`.....
    11b4:	e0 60 00 00 00 00 00 81 e7 7e 1e 07 01 00 00 00     .`.......~......
    11c4:	00 60 60 60 60 60 e0 e0 60 20 00 00 00 30 38 3c     .`````..` ...08<
    11d4:	36 33 31 30 30 30 00 00 00 00 80 c0 fc 7e 07 03     631000.......~..
    11e4:	03 03 00 00 00 00 00 01 1f 3f 70 60 60 60 00 00     .........?p```..
    11f4:	00 00 00 00 00 ff ff 00 00 00 00 00 00 00 00 00     ................
    1204:	00 3f 3f 00 00 00 00 00 00 00 03 03 03 07 7e fc     .??...........~.
    1214:	c0 80 00 00 00 00 60 60 60 70 3f 1f 01 00 00 00     ......```p?.....
    1224:	00 10 18 0c 04 0c 18 10 18 0c 04 00 00 00 00 00     ................
    1234:	00 00 00 00 00 00 00 00 00 00 80 c0 60 30 30 60     ............`00`
    1244:	c0 80 00 00 00 0f 0f 0c 0c 0c 0c 0c 0c 0f 0f 00     ................
    1254:	55 00 aa 00 55 00 aa 00 55 00 aa 00 55 00 aa 00     U...U...U...U...
    1264:	55 00 aa 00 55 00 aa 00 aa 55 aa 55 aa 55 aa 55     U...U....U.U.U.U
    1274:	aa 55 aa 55 aa 55 aa 55 aa 55 aa 55 aa 55 aa 55     .U.U.U.U.U.U.U.U
    1284:	aa ff 55 ff aa ff 55 ff aa ff 55 ff aa ff 55 ff     ..U...U...U...U.
    1294:	aa ff 55 ff aa ff 55 ff 00 00 00 00 00 ff ff 00     ..U...U.........
    12a4:	00 00 00 00 00 00 00 00 00 ff ff 00 00 00 00 00     ................
    12b4:	80 80 80 80 80 ff ff 00 00 00 00 00 01 01 01 01     ................
    12c4:	01 ff ff 00 00 00 00 00 c0 c0 c0 c0 c0 ff ff 00     ................
    12d4:	00 00 00 00 06 06 06 06 06 ff ff 00 00 00 00 00     ................
    12e4:	80 80 ff ff 00 ff ff 00 00 00 00 00 01 01 ff ff     ................
    12f4:	00 ff ff 00 00 00 00 00 80 80 80 80 80 80 80 00     ................
    1304:	00 00 00 00 01 01 ff ff 01 ff ff 00 00 00 00 00     ................
    1314:	c0 c0 c0 c0 c0 c0 c0 00 00 00 00 00 06 06 06 06     ................
    1324:	06 ff ff 00 00 00 00 00 c0 c0 ff ff 00 ff ff 00     ................
    1334:	00 00 00 00 06 06 fe fe 00 ff ff 00 00 00 00 00     ................
    1344:	00 00 ff ff 00 ff ff 00 00 00 00 00 00 00 ff ff     ................
    1354:	00 ff ff 00 00 00 00 00 c0 c0 c0 c0 c0 c0 c0 00     ................
    1364:	00 00 00 00 06 06 fe fe 00 ff ff 00 00 00 00 00     ................
    1374:	c0 c0 ff ff 00 ff ff 00 00 00 00 00 06 06 06 06     ................
    1384:	06 07 07 00 00 00 00 00 80 80 ff ff 80 ff ff 00     ................
    1394:	00 00 00 00 01 01 01 01 01 01 01 00 00 00 00 00     ................
    13a4:	c0 c0 c0 c0 c0 ff ff 00 00 00 00 00 06 06 06 06     ................
    13b4:	06 07 07 00 00 00 00 00 80 80 80 80 80 80 80 00     ................
    13c4:	00 00 00 00 01 01 01 01 01 ff ff 00 00 00 00 00     ................
    13d4:	00 00 00 00 00 ff ff 80 80 80 80 80 00 00 00 00     ................
    13e4:	00 01 01 01 01 01 01 01 80 80 80 80 80 ff ff 80     ................
    13f4:	80 80 80 80 01 01 01 01 01 01 01 01 01 01 01 01     ................
    1404:	80 80 80 80 80 80 80 80 80 80 80 80 01 01 01 01     ................
    1414:	01 ff ff 01 01 01 01 01 00 00 00 00 00 ff ff 80     ................
    1424:	80 80 80 80 00 00 00 00 00 ff ff 01 01 01 01 01     ................
    1434:	80 80 80 80 80 80 80 80 80 80 80 80 01 01 01 01     ................
    1444:	01 01 01 01 01 01 01 01 80 80 80 80 80 ff ff 80     ................
    1454:	80 80 80 80 01 01 01 01 01 ff ff 01 01 01 01 01     ................
    1464:	00 00 00 00 00 ff ff c0 c0 c0 c0 c0 00 00 00 00     ................
    1474:	00 ff ff 06 06 06 06 06 00 00 ff ff 00 ff ff 80     ................
    1484:	80 80 80 80 00 00 ff ff 00 ff ff 01 01 01 01 01     ................
    1494:	00 00 ff ff 00 ff ff c0 c0 c0 c0 c0 00 00 07 07     ................
    14a4:	06 06 06 06 06 06 06 06 00 00 c0 c0 c0 c0 c0 c0     ................
    14b4:	c0 c0 c0 c0 00 00 ff ff 00 fe fe 06 06 06 06 06     ................
    14c4:	c0 c0 ff ff 00 ff ff c0 c0 c0 c0 c0 06 06 06 06     ................
    14d4:	06 06 06 06 06 06 06 06 c0 c0 c0 c0 c0 c0 c0 c0     ................
    14e4:	c0 c0 c0 c0 06 06 fe fe 00 fe fe 06 06 06 06 06     ................
    14f4:	00 00 ff ff 00 ff ff c0 c0 c0 c0 c0 00 00 ff ff     ................
    1504:	00 fe fe 06 06 06 06 06 c0 c0 c0 c0 c0 c0 c0 c0     ................
    1514:	c0 c0 c0 c0 06 06 06 06 06 06 06 06 06 06 06 06     ................
    1524:	c0 c0 ff ff 00 ff ff c0 c0 c0 c0 c0 06 06 fe fe     ................
    1534:	00 fe fe 06 06 06 06 06 c0 c0 c0 c0 c0 ff ff c0     ................
    1544:	c0 c0 c0 c0 06 06 06 06 06 06 06 06 06 06 06 06     ................
    1554:	80 80 ff ff 80 ff ff 80 80 80 80 80 01 01 01 01     ................
    1564:	01 01 01 01 01 01 01 01 c0 c0 c0 c0 c0 c0 c0 c0     ................
    1574:	c0 c0 c0 c0 06 06 06 06 06 fe fe 06 06 06 06 06     ................
    1584:	80 80 80 80 80 80 80 80 80 80 80 80 01 01 ff ff     ................
    1594:	01 ff ff 01 01 01 01 01 00 00 ff ff 80 ff ff 80     ................
    15a4:	80 80 80 80 00 00 01 01 01 01 01 01 01 01 01 01     ................
    15b4:	00 00 00 00 00 ff ff c0 c0 c0 c0 c0 00 00 00 00     ................
    15c4:	00 07 07 06 06 06 06 06 00 00 00 00 00 c0 c0 c0     ................
    15d4:	c0 c0 c0 c0 00 00 00 00 00 ff ff 06 06 06 06 06     ................
    15e4:	00 00 80 80 80 80 80 80 80 80 80 80 00 00 ff ff     ................
    15f4:	01 ff ff 01 01 01 01 01 80 80 ff ff 00 ff ff 80     ................
    1604:	80 80 80 80 01 01 ff ff 00 ff ff 01 01 01 01 01     ................
    1614:	00 f8 f8 9b 9b 98 98 9b 9b 18 18 00 00 3f 3f 31     .............??1
    1624:	31 31 31 31 31 30 30 00 c0 c0 c0 c0 c0 ff ff c0     1111100.........
    1634:	c0 c0 c0 c0 06 06 06 06 06 fe fe 06 06 06 06 06     ................
    1644:	80 80 80 80 80 ff ff 00 00 00 00 00 01 01 01 01     ................
    1654:	01 01 01 00 00 00 00 00 00 00 00 00 00 80 80 80     ................
    1664:	80 80 80 80 00 00 00 00 00 ff ff 01 01 01 01 01     ................
    1674:	ff ff ff ff ff ff ff ff ff ff ff ff ff ff ff ff     ................
    1684:	ff ff ff ff ff ff ff ff 00 00 00 00 00 00 00 00     ................
    1694:	00 00 00 00 ff ff ff ff ff ff ff ff ff ff ff ff     ................
    16a4:	ff ff ff ff ff ff 00 00 00 00 00 00 ff ff ff ff     ................
    16b4:	ff ff 00 00 00 00 00 00 00 00 00 00 00 00 ff ff     ................
    16c4:	ff ff ff ff 00 00 00 00 00 00 ff ff ff ff ff ff     ................
    16d4:	ff ff ff ff ff ff ff ff ff ff ff ff 00 00 00 00     ................
    16e4:	00 00 00 00 00 00 00 00 00 00 f0 08 08 10 20 10     .............. .
    16f4:	08 08 f0 00 00 00 00 01 02 04 08 04 02 01 00 00     ................
    1704:	00 e0 f0 f0 f0 e8 e4 e4 e4 e4 e8 f0 00 01 03 07     ................
    1714:	07 07 07 07 07 07 03 01 00 e0 30 30 30 28 24 24     ..........000($$
    1724:	24 24 28 f0 00 01 02 04 04 04 04 04 04 04 02 01     $$(.............
    1734:	00 00 00 00 80 70 08 f8 00 00 00 00 00 00 00 00     .....p..........
    1744:	00 00 00 00 00 00 00 00 00 80 80 80 a0 9c 82 be     ................
    1754:	80 80 80 00 00 00 00 00 06 08 08 3e 00 00 00 00     ...........>....
    1764:	00 00 60 e8 88 10 10 88 e8 60 00 00 00 00 00 81     ..`......`......
    1774:	e7 7e 1e 07 01 00 00 00 00 00 00 1e 3f 33 33 3f     .~..........?33?
    1784:	1e 00 00 00 00 00 00 00 00 00 00 00 00 00 00 00     ................
    1794:	00 80 c0 ec 6c 60 60 6c 6c c0 80 00 00 0f 1f 33     ....l``ll......3
    17a4:	33 33 33 33 33 13 03 00 00 00 00 c0 e0 e0 e0 e0     33333...........
    17b4:	c0 00 00 00 00 00 00 03 07 07 07 07 03 00 00 00     ................
    17c4:	00 00 00 00 00 80 c0 80 00 00 00 00 00 00 00 00     ................
    17d4:	00 01 03 01 00 00 00 00 00 00 00 00 00 00 fe fe     ................
    17e4:	06 06 06 06 00 00 03 06 0c 18 3f 3f 00 00 00 00     ..........??....
    17f4:	ff ff 1e f0 80 00 ff ff 1c 36 36 1c 3f 3f 00 00     .........66.??..
    1804:	03 1e 3f 3f 03 03 03 03 00 f6 fe 18 0c 0c 0c 0c     ..??............
    1814:	18 fe f6 00 00 1b 1f 06 0c 0c 0c 0c 06 1f 1b 00     ................
    1824:	00 00 00 00 f0 f0 f0 f0 00 00 00 00 00 00 00 00     ................
    1834:	03 03 03 03 00 00 00 00 00 00 00 00 00 00 00 00     ................
    1844:	00 00 00 00 00 00 00 00 00 00 00 00 00 00 00 00     ................
    1854:	00 f0 fc 0e 07 03 03 03 03 ff ff 00 00 3f 3f 03     .............??.
    1864:	03 03 03 03 03 3f 3f 00 00 ff ff c3 c3 c3 c3 c3     .....??.........
    1874:	c3 83 03 00 00 3f 3f 30 30 30 30 30 39 1f 0f 00     .....??000009...
    1884:	00 ff ff c3 c3 c3 c3 e7 fe bc 00 00 00 3f 3f 30     .............??0
    1894:	30 30 30 30 39 1f 0f 00 00 ff ff 03 03 03 03 03     00009...........
    18a4:	03 03 03 00 00 3f 3f 00 00 00 00 00 00 00 00 00     .....??.........
    18b4:	00 f0 fc 0e 07 03 03 03 03 ff ff 00 f0 ff 3f 30     ..............?0
    18c4:	30 30 30 30 30 3f ff f0 00 ff ff c3 c3 c3 c3 c3     00000?..........
    18d4:	c3 03 03 00 00 3f 3f 30 30 30 30 30 30 30 30 00     .....??00000000.
    18e4:	0f 3e f8 e0 c0 ff ff c0 e0 f8 1e 07 3c 1f 07 01     .>..........<...
    18f4:	00 3f 3f 00 01 07 1f 3c 00 0c 0e 07 c3 c3 c3 c3     .??....<........
    1904:	c3 e7 7e 3c 00 0c 1c 38 30 30 30 30 30 39 1f 0e     ..~<...8000009..
    1914:	00 ff ff 00 00 c0 f0 38 0e ff ff 00 00 3f 3f 1c     .......8.....??.
    1924:	07 03 00 00 00 3f 3f 00 00 ff ff 00 00 c6 f3 38     .....??........8
    1934:	0e ff ff 00 00 3f 3f 1c 07 03 00 00 00 3f 3f 00     .....??......??.
    1944:	00 ff ff c0 e0 f0 38 1c 0e 07 03 00 00 3f 3f 00     ......8......??.
    1954:	01 03 07 0e 1c 38 30 00 00 f0 fc 0e 07 03 03 03     .....80.........
    1964:	03 ff ff 00 00 3f 3f 00 00 00 00 00 00 3f 3f 00     .....??......??.
    1974:	00 ff ff 1e 78 e0 e0 78 1e ff ff 00 00 3f 3f 00     ....x..x.....??.
    1984:	00 01 01 00 00 3f 3f 00 00 ff ff c0 c0 c0 c0 c0     .....??.........
    1994:	c0 ff ff 00 00 3f 3f 00 00 00 00 00 00 3f 3f 00     .....??......??.
    19a4:	00 f0 fc 0e 07 03 03 07 0e fc f0 00 00 03 0f 1c     ................
    19b4:	38 30 30 38 1c 0f 03 00 00 ff ff 03 03 03 03 03     8008............
    19c4:	03 ff ff 00 00 3f 3f 00 00 00 00 00 00 3f 3f 00     .....??......??.
    19d4:	00 ff ff 83 83 83 83 83 c7 fe 7c 00 00 3f 3f 01     ..........|..??.
    19e4:	01 01 01 01 01 00 00 00 00 f0 fc 0e 07 03 03 03     ................
    19f4:	07 0e 0c 00 00 03 0f 1c 38 30 30 30 38 1c 0c 00     ........80008...
    1a04:	00 00 03 03 03 ff ff 03 03 03 00 00 00 00 00 00     ................
    1a14:	00 3f 3f 00 00 00 00 00 00 7f ff c0 c0 c0 c0 c0     .??.............
    1a24:	c0 ff ff 00 00 18 38 30 30 30 30 30 38 1f 07 00     ......8000008...
    1a34:	00 f8 fc 0c 0c ff ff 0c 0c fc f8 00 00 03 07 06     ................
    1a44:	06 3f 3f 06 06 07 03 00 00 03 0f 1c 30 e0 e0 30     .??.........0..0
    1a54:	1c 0f 03 00 00 30 3c 0e 03 01 01 03 0e 3c 30 00     .....0<......<0.
    1a64:	00 ff ff 00 00 00 00 00 ff ff 00 00 00 3f 3f 30     .............??0
    1a74:	30 30 30 30 3f ff f0 00 00 7f ff c0 c0 c0 c0 c0     0000?...........
    1a84:	c0 ff ff 00 00 00 00 00 00 00 00 00 00 3f 3f 00     .............??.
    1a94:	00 ff ff 00 00 ff ff 00 00 ff ff 00 00 3f 3f 30     .............??0
    1aa4:	30 3f 3f 30 30 3f 3f 00 00 ff ff 00 00 ff ff 00     0??00??.........
    1ab4:	00 ff ff 00 00 3f 3f 30 30 3f 3f 30 30 3f ff f0     .....??00??00?..
    1ac4:	0f 0f 03 ff ff 60 60 60 e0 c0 80 00 00 00 00 3f     .....```.......?
    1ad4:	3f 30 30 30 38 1f 0f 00 00 ff ff 60 60 e0 c0 80     ?0008......``...
    1ae4:	00 ff ff 00 00 3f 3f 30 30 38 1f 0f 00 3f 3f 00     .....??008...??.
    1af4:	00 ff ff 60 60 60 60 60 e0 c0 80 00 00 3f 3f 30     ...`````.....??0
    1b04:	30 30 30 30 38 1f 0f 00 00 0c 0e 07 c3 c3 c3 c7     00008...........
    1b14:	ce fc f0 00 00 0c 1c 38 30 30 30 38 1c 0f 03 00     .......80008....
    1b24:	ff ff c0 f0 fc 0e 07 03 07 0e fc f0 3f 3f 00 03     ............??..
    1b34:	0f 1c 38 30 38 1c 0f 03 00 7c fe c7 83 83 83 83     ..808....|......
    1b44:	83 ff ff 00 00 30 38 1d 0f 07 03 01 01 3f 3f 00     .....08......??.
    1b54:	00 00 40 60 60 60 60 60 60 e0 c0 00 00 1c 3e 33     ..@``````.....>3
    1b64:	33 33 33 33 33 3f 3f 00 00 f0 f8 98 d8 d8 d8 d8     33333??.........
    1b74:	d8 8c 00 00 00 1f 3f 31 30 30 30 30 39 1f 0f 00     ......?100009...
    1b84:	00 00 e0 e0 60 60 60 60 e0 c0 00 00 00 00 3f 3f     ....````......??
    1b94:	32 32 32 32 3f 1d 00 00 00 00 e0 e0 60 60 60 60     2222?.......````
    1ba4:	60 60 00 00 00 00 3f 3f 00 00 00 00 00 00 00 00     ``....??........
    1bb4:	00 00 80 c0 60 60 60 60 e0 e0 00 00 00 f0 ff 3f     ....````.......?
    1bc4:	30 30 30 30 3f ff f0 00 00 80 c0 e0 60 60 60 60     0000?.......````
    1bd4:	60 c0 80 00 00 0f 1f 3b 33 33 33 33 33 13 01 00     `......;33333...
    1be4:	60 e0 c0 80 00 e0 e0 00 80 c0 e0 60 30 38 1f 07     `..........`08..
    1bf4:	03 3f 3f 03 07 1f 38 30 00 00 80 c0 60 60 60 60     .??...80....````
    1c04:	c0 80 00 00 00 00 08 18 30 32 32 32 1f 0d 00 00     ........0222....
    1c14:	00 00 e0 e0 00 00 00 00 80 e0 e0 00 00 00 3f 3f     ..............??
    1c24:	18 0c 06 03 01 3f 3f 00 00 00 e0 e0 00 00 18 0c     .....??.........
    1c34:	80 e0 e0 00 00 00 3f 3f 18 0c 06 03 01 3f 3f 00     ......??.....??.
    1c44:	00 00 e0 e0 00 80 c0 e0 60 00 00 00 00 00 3f 3f     ........`.....??
    1c54:	03 07 0f 1c 38 30 00 00 00 00 80 c0 60 60 60 60     ....80......````
    1c64:	e0 e0 00 00 00 00 3f 3f 00 00 00 00 3f 3f 00 00     ......??....??..
    1c74:	00 e0 e0 e0 c0 00 00 c0 e0 e0 e0 00 00 3f 3f 00     .............??.
    1c84:	01 03 03 01 00 3f 3f 00 00 00 e0 e0 00 00 00 00     .....??.........
    1c94:	00 e0 e0 00 00 00 3f 3f 06 06 06 06 06 3f 3f 00     ......??.....??.
    1ca4:	00 80 c0 e0 60 60 60 60 e0 c0 80 00 00 0f 1f 38     ....````.......8
    1cb4:	30 30 30 30 38 1f 0f 00 00 00 e0 e0 60 60 60 60     00008.......````
    1cc4:	60 e0 e0 00 00 00 3f 3f 00 00 00 00 00 3f 3f 00     `.....??.....??.
    1cd4:	00 e0 e0 60 60 60 60 60 e0 c0 80 00 00 ff ff 0c     ...`````........
    1ce4:	18 18 18 18 1c 0f 07 00 00 80 c0 e0 60 60 60 60     ............````
    1cf4:	60 c0 80 00 00 0f 1f 38 30 30 30 30 30 18 08 00     `......800000...
    1d04:	00 00 60 60 60 e0 e0 60 60 60 00 00 00 00 00 00     ..```..```......
    1d14:	00 3f 3f 00 00 00 00 00 00 00 60 e0 80 00 00 80     .??.......`.....
    1d24:	e0 60 00 00 00 00 00 81 e7 7e 1e 07 01 00 00 00     .`.......~......
    1d34:	00 80 c0 c0 c0 e0 e0 c0 c0 c0 80 00 00 1f 3f 30     ..............?0
    1d44:	30 ff ff 30 30 3f 1f 00 00 60 e0 c0 80 00 80 c0     0..00?...`......
    1d54:	e0 60 00 00 00 30 38 1d 0f 07 0f 1d 38 30 00 00     .`...08.....80..
    1d64:	00 00 e0 e0 00 00 00 00 e0 e0 00 00 00 00 3f 3f     ..............??
    1d74:	30 30 30 30 3f ff f0 00 00 00 e0 e0 00 00 00 00     0000?...........
    1d84:	e0 e0 00 00 00 00 03 07 06 06 06 06 3f 3f 00 00     ............??..
    1d94:	00 e0 e0 00 00 e0 e0 00 00 e0 e0 00 00 3f 3f 30     .............??0
    1da4:	30 3f 3f 30 30 3f 3f 00 00 e0 e0 00 00 e0 e0 00     0??00??.........
    1db4:	00 e0 e0 00 00 3f 3f 30 30 3f 3f 30 30 3f ff f0     .....??00??00?..
    1dc4:	00 e0 e0 60 e0 e0 00 00 00 00 00 00 00 00 00 00     ...`............
    1dd4:	3f 3f 33 33 33 3f 1e 00 00 e0 e0 00 00 00 00 00     ??333?..........
    1de4:	00 e0 e0 00 00 3f 3f 33 33 33 3f 1e 00 3f 3f 00     .....??333?..??.
    1df4:	00 00 e0 e0 00 00 00 00 00 00 00 00 00 00 3f 3f     ..............??
    1e04:	33 33 33 33 3f 1e 00 00 00 80 c0 60 60 60 60 60     3333?......`````
    1e14:	c0 80 00 00 00 08 18 30 30 33 33 3b 1f 0f 00 00     .......0033;....
    1e24:	00 e0 e0 00 80 c0 e0 60 e0 c0 80 00 00 3f 3f 03     .......`.....??.
    1e34:	0f 1f 38 30 38 1f 0f 00 00 00 c0 e0 60 60 60 60     ..808.......````
    1e44:	e0 e0 00 00 00 00 31 3b 1e 0e 06 02 3f 3f 00 00     ......1;....??..

00001e54 <Label_TEMP>:
    1e54:	0b d2 e5 ec ef e5 f0 e0 f2 f3 f0 e0                 ............

00001e60 <Label_ROOM>:
    1e60:	09 ef ee ec e5 f9 e5 ed e8 ff                       ..........

00001e6a <Label_DELTA_TEMP>:
    1e6a:	0e c4 e5 eb fc f2 e0 20 f2 e5 ec ef e5 f0 2e        ....... .......

00001e79 <Label_TOP_OVEN>:
    1e79:	0d ef ee e2 e5 f0 f5 ed 2e 20 ef e5 f7 e8           ......... ....

00001e87 <Label_START_PYROLYS>:
    1e87:	0e f1 f2 e0 f0 f2 e0 20 ef e8 f0 ee eb e8 e7        ....... .......

00001e96 <Label_FULL_PYROLYS>:
    1e96:	0e ef ee eb ed fb e9 20 ef e8 f0 ee eb e8 e7        ....... .......

00001ea5 <Label_RAZN_TEMP>:
    1ea5:	0e d0 e0 e7 ed ee f1 f2 fc 20 f2 e5 ec ef 2e        ......... .....

00001eb4 <Label_SHUTDOWN>:
    1eb4:	0e e2 fb ea eb fe f7 e5 ed e8 ff 20 e0 e2 f2        ........... ...

00001ec3 <Label_PWM_START>:
    1ec3:	0c cc ee f9 ed 2e 20 f1 f2 e0 f0 f2 e0              ...... ......

00001ed0 <Label_FAN>:
    1ed0:	0c e2 e5 ed f2 e8 eb ff f2 ee f0 e0 20              ............ 

00001edd <LabelT1>:
    1edd:	04 54 31 3a 20                                      .T1: 

00001ee2 <LabelT2>:
    1ee2:	04 54 32 3a 20                                      .T2: 

00001ee7 <LabelT3>:
    1ee7:	04 54 33 3a 20                                      .T3: 

00001eec <LabelM1>:
    1eec:	04 cc 31 3a 20                                      ..1: 

00001ef1 <LabelM2>:
    1ef1:	04 cc 32 3a 20                                      ..2: 

00001ef6 <LabelM3>:
    1ef6:	04 cc 33 3a 20                                      ..3: 

00001efb <LabelUNC>:
    1efb:	03 55 4e 43                                         .UNC

00001eff <LabelBRK>:
    1eff:	05 42 52 45 41 4b                                   .BREAK

00001f05 <LabelOVR>:
    1f05:	04 4f 56 45 52                                      .OVER

00001f0a <LabelERR>:
    1f0a:	05 45 52 52 4f 52                                   .ERROR

00001f10 <LabelCC>:
    1f10:	02 b7 43                                            ..C

00001f13 <LabelSetting>:
    1f13:	09 cd e0 f1 f2 f0 ee e9 ea e0 00                    ...........

00001f1e <__ctors_end>:
    1f1e:	11 24       	eor	r1, r1
    1f20:	1f be       	out	0x3f, r1	; 63
    1f22:	cf e5       	ldi	r28, 0x5F	; 95
    1f24:	d8 e0       	ldi	r29, 0x08	; 8
    1f26:	de bf       	out	0x3e, r29	; 62
    1f28:	cd bf       	out	0x3d, r28	; 61

00001f2a <__do_clear_bss>:
    1f2a:	10 e0       	ldi	r17, 0x00	; 0
    1f2c:	a0 e6       	ldi	r26, 0x60	; 96
    1f2e:	b0 e0       	ldi	r27, 0x00	; 0
    1f30:	01 c0       	rjmp	.+2      	; 0x1f34 <.do_clear_bss_start>

00001f32 <.do_clear_bss_loop>:
    1f32:	1d 92       	st	X+, r1

00001f34 <.do_clear_bss_start>:
    1f34:	af 39       	cpi	r26, 0x9F	; 159
    1f36:	b1 07       	cpc	r27, r17
    1f38:	e1 f7       	brne	.-8      	; 0x1f32 <.do_clear_bss_loop>
    1f3a:	0e 94 8f 1b 	call	0x371e	; 0x371e <main>
    1f3e:	0c 94 7e 1e 	jmp	0x3cfc	; 0x3cfc <_exit>

00001f42 <__bad_interrupt>:
    1f42:	0c 94 00 00 	jmp	0	; 0x0 <__vectors>

00001f46 <CalculateCoefficients>:
    1f46:	8f 92       	push	r8
    1f48:	9f 92       	push	r9
    1f4a:	af 92       	push	r10
    1f4c:	bf 92       	push	r11
    1f4e:	cf 92       	push	r12
    1f50:	df 92       	push	r13
    1f52:	ef 92       	push	r14
    1f54:	ff 92       	push	r15
    1f56:	0f 93       	push	r16
    1f58:	1f 93       	push	r17
    1f5a:	60 91 99 00 	lds	r22, 0x0099
    1f5e:	70 e0       	ldi	r23, 0x00	; 0
    1f60:	88 27       	eor	r24, r24
    1f62:	77 fd       	sbrc	r23, 7
    1f64:	80 95       	com	r24
    1f66:	98 2f       	mov	r25, r24
    1f68:	0e 94 12 1d 	call	0x3a24	; 0x3a24 <__floatsisf>
    1f6c:	20 e0       	ldi	r18, 0x00	; 0
    1f6e:	30 e0       	ldi	r19, 0x00	; 0
    1f70:	4f e7       	ldi	r20, 0x7F	; 127
    1f72:	53 e4       	ldi	r21, 0x43	; 67
    1f74:	0e 94 a2 1d 	call	0x3b44	; 0x3b44 <__mulsf3>
    1f78:	20 e0       	ldi	r18, 0x00	; 0
    1f7a:	30 e0       	ldi	r19, 0x00	; 0
    1f7c:	48 ec       	ldi	r20, 0xC8	; 200
    1f7e:	52 e4       	ldi	r21, 0x42	; 66
    1f80:	0e 94 7c 1c 	call	0x38f8	; 0x38f8 <__divsf3>
    1f84:	0e 94 e4 1c 	call	0x39c8	; 0x39c8 <__fixunssfsi>
    1f88:	60 93 76 00 	sts	0x0076, r22
    1f8c:	60 91 76 00 	lds	r22, 0x0076
    1f90:	70 e0       	ldi	r23, 0x00	; 0
    1f92:	88 27       	eor	r24, r24
    1f94:	77 fd       	sbrc	r23, 7
    1f96:	80 95       	com	r24
    1f98:	98 2f       	mov	r25, r24
    1f9a:	0e 94 12 1d 	call	0x3a24	; 0x3a24 <__floatsisf>
    1f9e:	9b 01       	movw	r18, r22
    1fa0:	ac 01       	movw	r20, r24
    1fa2:	60 e0       	ldi	r22, 0x00	; 0
    1fa4:	70 e0       	ldi	r23, 0x00	; 0
    1fa6:	8f e7       	ldi	r24, 0x7F	; 127
    1fa8:	93 e4       	ldi	r25, 0x43	; 67
    1faa:	0e 94 17 1c 	call	0x382e	; 0x382e <__subsf3>
    1fae:	20 e0       	ldi	r18, 0x00	; 0
    1fb0:	30 e0       	ldi	r19, 0x00	; 0
    1fb2:	40 ef       	ldi	r20, 0xF0	; 240
    1fb4:	51 e4       	ldi	r21, 0x41	; 65
    1fb6:	0e 94 7c 1c 	call	0x38f8	; 0x38f8 <__divsf3>
    1fba:	0e 94 e4 1c 	call	0x39c8	; 0x39c8 <__fixunssfsi>
    1fbe:	70 e0       	ldi	r23, 0x00	; 0
    1fc0:	80 e0       	ldi	r24, 0x00	; 0
    1fc2:	90 e0       	ldi	r25, 0x00	; 0
    1fc4:	0e 94 10 1d 	call	0x3a20	; 0x3a20 <__floatunsisf>
    1fc8:	60 93 79 00 	sts	0x0079, r22
    1fcc:	70 93 7a 00 	sts	0x007A, r23
    1fd0:	80 93 7b 00 	sts	0x007B, r24
    1fd4:	90 93 7c 00 	sts	0x007C, r25
    1fd8:	60 91 95 00 	lds	r22, 0x0095
    1fdc:	70 e0       	ldi	r23, 0x00	; 0
    1fde:	88 27       	eor	r24, r24
    1fe0:	77 fd       	sbrc	r23, 7
    1fe2:	80 95       	com	r24
    1fe4:	98 2f       	mov	r25, r24
    1fe6:	0e 94 12 1d 	call	0x3a24	; 0x3a24 <__floatsisf>
    1fea:	20 e0       	ldi	r18, 0x00	; 0
    1fec:	30 e0       	ldi	r19, 0x00	; 0
    1fee:	4f e7       	ldi	r20, 0x7F	; 127
    1ff0:	53 e4       	ldi	r21, 0x43	; 67
    1ff2:	0e 94 a2 1d 	call	0x3b44	; 0x3b44 <__mulsf3>
    1ff6:	20 e0       	ldi	r18, 0x00	; 0
    1ff8:	30 e0       	ldi	r19, 0x00	; 0
    1ffa:	48 ec       	ldi	r20, 0xC8	; 200
    1ffc:	52 e4       	ldi	r21, 0x42	; 66
    1ffe:	0e 94 7c 1c 	call	0x38f8	; 0x38f8 <__divsf3>
    2002:	0e 94 e4 1c 	call	0x39c8	; 0x39c8 <__fixunssfsi>
    2006:	60 93 77 00 	sts	0x0077, r22
    200a:	60 91 77 00 	lds	r22, 0x0077
    200e:	70 e0       	ldi	r23, 0x00	; 0
    2010:	88 27       	eor	r24, r24
    2012:	77 fd       	sbrc	r23, 7
    2014:	80 95       	com	r24
    2016:	98 2f       	mov	r25, r24
    2018:	0e 94 12 1d 	call	0x3a24	; 0x3a24 <__floatsisf>
    201c:	9b 01       	movw	r18, r22
    201e:	ac 01       	movw	r20, r24
    2020:	60 e0       	ldi	r22, 0x00	; 0
    2022:	70 e0       	ldi	r23, 0x00	; 0
    2024:	8f e7       	ldi	r24, 0x7F	; 127
    2026:	93 e4       	ldi	r25, 0x43	; 67
    2028:	0e 94 17 1c 	call	0x382e	; 0x382e <__subsf3>
    202c:	20 e0       	ldi	r18, 0x00	; 0
    202e:	30 e0       	ldi	r19, 0x00	; 0
    2030:	40 ef       	ldi	r20, 0xF0	; 240
    2032:	51 e4       	ldi	r21, 0x41	; 65
    2034:	0e 94 7c 1c 	call	0x38f8	; 0x38f8 <__divsf3>
    2038:	0e 94 e4 1c 	call	0x39c8	; 0x39c8 <__fixunssfsi>
    203c:	70 e0       	ldi	r23, 0x00	; 0
    203e:	80 e0       	ldi	r24, 0x00	; 0
    2040:	90 e0       	ldi	r25, 0x00	; 0
    2042:	0e 94 10 1d 	call	0x3a20	; 0x3a20 <__floatunsisf>
    2046:	60 93 7d 00 	sts	0x007D, r22
    204a:	70 93 7e 00 	sts	0x007E, r23
    204e:	80 93 7f 00 	sts	0x007F, r24
    2052:	90 93 80 00 	sts	0x0080, r25
    2056:	60 91 8e 00 	lds	r22, 0x008E
    205a:	70 e0       	ldi	r23, 0x00	; 0
    205c:	88 27       	eor	r24, r24
    205e:	77 fd       	sbrc	r23, 7
    2060:	80 95       	com	r24
    2062:	98 2f       	mov	r25, r24
    2064:	0e 94 12 1d 	call	0x3a24	; 0x3a24 <__floatsisf>
    2068:	20 e0       	ldi	r18, 0x00	; 0
    206a:	30 e0       	ldi	r19, 0x00	; 0
    206c:	4f e7       	ldi	r20, 0x7F	; 127
    206e:	53 e4       	ldi	r21, 0x43	; 67
    2070:	0e 94 a2 1d 	call	0x3b44	; 0x3b44 <__mulsf3>
    2074:	20 e0       	ldi	r18, 0x00	; 0
    2076:	30 e0       	ldi	r19, 0x00	; 0
    2078:	48 ec       	ldi	r20, 0xC8	; 200
    207a:	52 e4       	ldi	r21, 0x42	; 66
    207c:	0e 94 7c 1c 	call	0x38f8	; 0x38f8 <__divsf3>
    2080:	0e 94 e4 1c 	call	0x39c8	; 0x39c8 <__fixunssfsi>
    2084:	60 93 78 00 	sts	0x0078, r22
    2088:	60 91 78 00 	lds	r22, 0x0078
    208c:	e0 90 96 00 	lds	r14, 0x0096
    2090:	f0 90 97 00 	lds	r15, 0x0097
    2094:	80 90 9d 00 	lds	r8, 0x009D
    2098:	90 90 9e 00 	lds	r9, 0x009E
    209c:	70 e0       	ldi	r23, 0x00	; 0
    209e:	88 27       	eor	r24, r24
    20a0:	77 fd       	sbrc	r23, 7
    20a2:	80 95       	com	r24
    20a4:	98 2f       	mov	r25, r24
    20a6:	0e 94 12 1d 	call	0x3a24	; 0x3a24 <__floatsisf>
    20aa:	9b 01       	movw	r18, r22
    20ac:	ac 01       	movw	r20, r24
    20ae:	60 e0       	ldi	r22, 0x00	; 0
    20b0:	70 e0       	ldi	r23, 0x00	; 0
    20b2:	8f e7       	ldi	r24, 0x7F	; 127
    20b4:	93 e4       	ldi	r25, 0x43	; 67
    20b6:	0e 94 17 1c 	call	0x382e	; 0x382e <__subsf3>
    20ba:	5b 01       	movw	r10, r22
    20bc:	6c 01       	movw	r12, r24
    20be:	e8 18       	sub	r14, r8
    20c0:	f9 08       	sbc	r15, r9
    20c2:	00 e0       	ldi	r16, 0x00	; 0
    20c4:	10 e0       	ldi	r17, 0x00	; 0
    20c6:	c8 01       	movw	r24, r16
    20c8:	b7 01       	movw	r22, r14
    20ca:	0e 94 10 1d 	call	0x3a20	; 0x3a20 <__floatunsisf>
    20ce:	9b 01       	movw	r18, r22
    20d0:	ac 01       	movw	r20, r24
    20d2:	c6 01       	movw	r24, r12
    20d4:	b5 01       	movw	r22, r10
    20d6:	0e 94 7c 1c 	call	0x38f8	; 0x38f8 <__divsf3>
    20da:	60 93 81 00 	sts	0x0081, r22
    20de:	70 93 82 00 	sts	0x0082, r23
    20e2:	80 93 83 00 	sts	0x0083, r24
    20e6:	90 93 84 00 	sts	0x0084, r25
    20ea:	10 92 70 00 	sts	0x0070, r1
    20ee:	80 91 70 00 	lds	r24, 0x0070
    20f2:	82 5e       	subi	r24, 0xE2	; 226
    20f4:	80 93 71 00 	sts	0x0071, r24
    20f8:	80 91 71 00 	lds	r24, 0x0071
    20fc:	82 5e       	subi	r24, 0xE2	; 226
    20fe:	80 93 72 00 	sts	0x0072, r24
    2102:	80 91 72 00 	lds	r24, 0x0072
    2106:	82 5e       	subi	r24, 0xE2	; 226
    2108:	80 93 73 00 	sts	0x0073, r24
    210c:	8f e0       	ldi	r24, 0x0F	; 15
    210e:	80 93 75 00 	sts	0x0075, r24
    2112:	1f 91       	pop	r17
    2114:	0f 91       	pop	r16
    2116:	ff 90       	pop	r15
    2118:	ef 90       	pop	r14
    211a:	df 90       	pop	r13
    211c:	cf 90       	pop	r12
    211e:	bf 90       	pop	r11
    2120:	af 90       	pop	r10
    2122:	9f 90       	pop	r9
    2124:	8f 90       	pop	r8
    2126:	08 95       	ret

00002128 <__vector_7>:
    2128:	1f 92       	push	r1
    212a:	0f 92       	push	r0
    212c:	0f b6       	in	r0, 0x3f	; 63
    212e:	0f 92       	push	r0
    2130:	11 24       	eor	r1, r1
    2132:	8f 93       	push	r24
    2134:	1d bc       	out	0x2d, r1	; 45
    2136:	1c bc       	out	0x2c, r1	; 44
    2138:	80 91 60 00 	lds	r24, 0x0060
    213c:	81 60       	ori	r24, 0x01	; 1
    213e:	80 93 60 00 	sts	0x0060, r24
    2142:	8f 91       	pop	r24
    2144:	0f 90       	pop	r0
    2146:	0f be       	out	0x3f, r0	; 63
    2148:	0f 90       	pop	r0
    214a:	1f 90       	pop	r1
    214c:	18 95       	reti

0000214e <__vector_5>:
    214e:	1f 92       	push	r1
    2150:	0f 92       	push	r0
    2152:	0f b6       	in	r0, 0x3f	; 63
    2154:	0f 92       	push	r0
    2156:	11 24       	eor	r1, r1
    2158:	8f 93       	push	r24
    215a:	80 91 62 00 	lds	r24, 0x0062
    215e:	81 50       	subi	r24, 0x01	; 1
    2160:	80 93 62 00 	sts	0x0062, r24
    2164:	80 91 62 00 	lds	r24, 0x0062
    2168:	88 23       	and	r24, r24
    216a:	31 f4       	brne	.+12     	; 0x2178 <__vector_5+0x2a>
    216c:	15 bc       	out	0x25, r1	; 37
    216e:	80 91 60 00 	lds	r24, 0x0060
    2172:	8b 7f       	andi	r24, 0xFB	; 251
    2174:	80 93 60 00 	sts	0x0060, r24
    2178:	8f 91       	pop	r24
    217a:	0f 90       	pop	r0
    217c:	0f be       	out	0x3f, r0	; 63
    217e:	0f 90       	pop	r0
    2180:	1f 90       	pop	r1
    2182:	18 95       	reti

00002184 <init>:
    2184:	47 9a       	sbi	0x08, 7	; 8
    2186:	8a b3       	in	r24, 0x1a	; 26
    2188:	8c 60       	ori	r24, 0x0C	; 12
    218a:	8a bb       	out	0x1a, r24	; 26
    218c:	d6 98       	cbi	0x1a, 6	; 26
    218e:	8b b3       	in	r24, 0x1b	; 27
    2190:	83 7b       	andi	r24, 0xB3	; 179
    2192:	8b bb       	out	0x1b, r24	; 27
    2194:	bb 9a       	sbi	0x17, 3	; 23
    2196:	c3 98       	cbi	0x18, 3	; 24
    2198:	84 b3       	in	r24, 0x14	; 20
    219a:	80 6e       	ori	r24, 0xE0	; 224
    219c:	84 bb       	out	0x14, r24	; 20
    219e:	84 b3       	in	r24, 0x14	; 20
    21a0:	88 7e       	andi	r24, 0xE8	; 232
    21a2:	84 bb       	out	0x14, r24	; 20
    21a4:	85 b3       	in	r24, 0x15	; 21
    21a6:	87 66       	ori	r24, 0x67	; 103
    21a8:	85 bb       	out	0x15, r24	; 21
    21aa:	85 b3       	in	r24, 0x15	; 21
    21ac:	8f 76       	andi	r24, 0x6F	; 111
    21ae:	85 bb       	out	0x15, r24	; 21
    21b0:	81 b3       	in	r24, 0x11	; 17
    21b2:	8f 61       	ori	r24, 0x1F	; 31
    21b4:	81 bb       	out	0x11, r24	; 17
    21b6:	82 b3       	in	r24, 0x12	; 18
    21b8:	88 61       	ori	r24, 0x18	; 24
    21ba:	82 bb       	out	0x12, r24	; 18
    21bc:	82 b3       	in	r24, 0x12	; 18
    21be:	88 7f       	andi	r24, 0xF8	; 248
    21c0:	82 bb       	out	0x12, r24	; 18
    21c2:	80 91 9a 00 	lds	r24, 0x009A
    21c6:	88 23       	and	r24, r24
    21c8:	11 f0       	breq	.+4      	; 0x21ce <init+0x4a>
    21ca:	96 98       	cbi	0x12, 6	; 18
    21cc:	01 c0       	rjmp	.+2      	; 0x21d0 <init+0x4c>
    21ce:	96 9a       	sbi	0x12, 6	; 18
    21d0:	8e 9a       	sbi	0x11, 6	; 17
    21d2:	80 b7       	in	r24, 0x30	; 48
    21d4:	83 60       	ori	r24, 0x03	; 3
    21d6:	80 bf       	out	0x30, r24	; 48
    21d8:	89 b7       	in	r24, 0x39	; 57
    21da:	80 61       	ori	r24, 0x10	; 16
    21dc:	89 bf       	out	0x39, r24	; 57
    21de:	1d bc       	out	0x2d, r1	; 45
    21e0:	1c bc       	out	0x2c, r1	; 44
    21e2:	1f bc       	out	0x2f, r1	; 47
    21e4:	84 e0       	ldi	r24, 0x04	; 4
    21e6:	8e bd       	out	0x2e, r24	; 46
    21e8:	8a e7       	ldi	r24, 0x7A	; 122
    21ea:	8b bd       	out	0x2b, r24	; 43
    21ec:	82 e1       	ldi	r24, 0x12	; 18
    21ee:	8a bd       	out	0x2a, r24	; 42
    21f0:	89 b7       	in	r24, 0x39	; 57
    21f2:	80 64       	ori	r24, 0x40	; 64
    21f4:	89 bf       	out	0x39, r24	; 57
    21f6:	78 94       	sei
    21f8:	08 95       	ret

000021fa <LCD_sendByte>:
    21fa:	66 23       	and	r22, r22
    21fc:	11 f4       	brne	.+4      	; 0x2202 <LCD_sendByte+0x8>
    21fe:	92 98       	cbi	0x12, 2	; 18
    2200:	01 c0       	rjmp	.+2      	; 0x2204 <LCD_sendByte+0xa>
    2202:	92 9a       	sbi	0x12, 2	; 18
    2204:	93 98       	cbi	0x12, 3	; 18
    2206:	90 e0       	ldi	r25, 0x00	; 0
    2208:	87 ff       	sbrs	r24, 7
    220a:	02 c0       	rjmp	.+4      	; 0x2210 <LCD_sendByte+0x16>
    220c:	91 9a       	sbi	0x12, 1	; 18
    220e:	01 c0       	rjmp	.+2      	; 0x2212 <LCD_sendByte+0x18>
    2210:	91 98       	cbi	0x12, 1	; 18
    2212:	90 9a       	sbi	0x12, 0	; 18
    2214:	90 98       	cbi	0x12, 0	; 18
    2216:	9f 5f       	subi	r25, 0xFF	; 255
    2218:	98 30       	cpi	r25, 0x08	; 8
    221a:	11 f0       	breq	.+4      	; 0x2220 <LCD_sendByte+0x26>
    221c:	88 0f       	add	r24, r24
    221e:	f4 cf       	rjmp	.-24     	; 0x2208 <LCD_sendByte+0xe>
    2220:	93 9a       	sbi	0x12, 3	; 18
    2222:	08 95       	ret

00002224 <LCD_gotoXY>:
    2224:	1f 93       	push	r17
    2226:	16 2f       	mov	r17, r22
    2228:	80 5c       	subi	r24, 0xC0	; 192
    222a:	60 e0       	ldi	r22, 0x00	; 0
    222c:	0e 94 fd 10 	call	0x21fa	; 0x21fa <LCD_sendByte>
    2230:	81 2f       	mov	r24, r17
    2232:	80 58       	subi	r24, 0x80	; 128
    2234:	60 e0       	ldi	r22, 0x00	; 0
    2236:	0e 94 fd 10 	call	0x21fa	; 0x21fa <LCD_sendByte>
    223a:	1f 91       	pop	r17
    223c:	08 95       	ret

0000223e <LCD_clear>:
    223e:	1f 93       	push	r17
    2240:	cf 93       	push	r28
    2242:	df 93       	push	r29
    2244:	88 23       	and	r24, r24
    2246:	11 f4       	brne	.+4      	; 0x224c <LCD_clear+0xe>
    2248:	10 e0       	ldi	r17, 0x00	; 0
    224a:	01 c0       	rjmp	.+2      	; 0x224e <LCD_clear+0x10>
    224c:	1f ef       	ldi	r17, 0xFF	; 255
    224e:	80 e0       	ldi	r24, 0x00	; 0
    2250:	60 e0       	ldi	r22, 0x00	; 0
    2252:	0e 94 12 11 	call	0x2224	; 0x2224 <LCD_gotoXY>
    2256:	c0 e0       	ldi	r28, 0x00	; 0
    2258:	d0 e0       	ldi	r29, 0x00	; 0
    225a:	81 2f       	mov	r24, r17
    225c:	61 e0       	ldi	r22, 0x01	; 1
    225e:	0e 94 fd 10 	call	0x21fa	; 0x21fa <LCD_sendByte>
    2262:	21 96       	adiw	r28, 0x01	; 1
    2264:	81 e0       	ldi	r24, 0x01	; 1
    2266:	c8 3f       	cpi	r28, 0xF8	; 248
    2268:	d8 07       	cpc	r29, r24
    226a:	b9 f7       	brne	.-18     	; 0x225a <LCD_clear+0x1c>
    226c:	df 91       	pop	r29
    226e:	cf 91       	pop	r28
    2270:	1f 91       	pop	r17
    2272:	08 95       	ret

00002274 <LCD_init>:
    2274:	8a e1       	ldi	r24, 0x1A	; 26
    2276:	98 2f       	mov	r25, r24
    2278:	9a 95       	dec	r25
    227a:	f1 f7       	brne	.-4      	; 0x2278 <LCD_init+0x4>
    227c:	94 98       	cbi	0x12, 4	; 18
    227e:	e8 ec       	ldi	r30, 0xC8	; 200
    2280:	f0 e0       	ldi	r31, 0x00	; 0
    2282:	31 97       	sbiw	r30, 0x01	; 1
    2284:	f1 f7       	brne	.-4      	; 0x2282 <LCD_init+0xe>
    2286:	94 9a       	sbi	0x12, 4	; 18
    2288:	8a 95       	dec	r24
    228a:	f1 f7       	brne	.-4      	; 0x2288 <LCD_init+0x14>
    228c:	81 e2       	ldi	r24, 0x21	; 33
    228e:	60 e0       	ldi	r22, 0x00	; 0
    2290:	0e 94 fd 10 	call	0x21fa	; 0x21fa <LCD_sendByte>
    2294:	83 e1       	ldi	r24, 0x13	; 19
    2296:	60 e0       	ldi	r22, 0x00	; 0
    2298:	0e 94 fd 10 	call	0x21fa	; 0x21fa <LCD_sendByte>
    229c:	84 e0       	ldi	r24, 0x04	; 4
    229e:	60 e0       	ldi	r22, 0x00	; 0
    22a0:	0e 94 fd 10 	call	0x21fa	; 0x21fa <LCD_sendByte>
    22a4:	88 eb       	ldi	r24, 0xB8	; 184
    22a6:	60 e0       	ldi	r22, 0x00	; 0
    22a8:	0e 94 fd 10 	call	0x21fa	; 0x21fa <LCD_sendByte>
    22ac:	80 e2       	ldi	r24, 0x20	; 32
    22ae:	60 e0       	ldi	r22, 0x00	; 0
    22b0:	0e 94 fd 10 	call	0x21fa	; 0x21fa <LCD_sendByte>
    22b4:	8c e0       	ldi	r24, 0x0C	; 12
    22b6:	60 e0       	ldi	r22, 0x00	; 0
    22b8:	0e 94 fd 10 	call	0x21fa	; 0x21fa <LCD_sendByte>
    22bc:	80 e0       	ldi	r24, 0x00	; 0
    22be:	0e 94 1f 11 	call	0x223e	; 0x223e <LCD_clear>
    22c2:	08 95       	ret

000022c4 <LCD_OutChar6x8>:
    22c4:	1f 93       	push	r17
    22c6:	cf 93       	push	r28
    22c8:	df 93       	push	r29
    22ca:	96 e0       	ldi	r25, 0x06	; 6
    22cc:	89 9f       	mul	r24, r25
    22ce:	e0 01       	movw	r28, r0
    22d0:	11 24       	eor	r1, r1
    22d2:	cc 5a       	subi	r28, 0xAC	; 172
    22d4:	df 4f       	sbci	r29, 0xFF	; 255
    22d6:	10 e0       	ldi	r17, 0x00	; 0
    22d8:	fe 01       	movw	r30, r28
    22da:	84 91       	lpm	r24, Z+
    22dc:	61 e0       	ldi	r22, 0x01	; 1
    22de:	0e 94 fd 10 	call	0x21fa	; 0x21fa <LCD_sendByte>
    22e2:	1f 5f       	subi	r17, 0xFF	; 255
    22e4:	21 96       	adiw	r28, 0x01	; 1
    22e6:	16 30       	cpi	r17, 0x06	; 6
    22e8:	b9 f7       	brne	.-18     	; 0x22d8 <LCD_OutChar6x8+0x14>
    22ea:	df 91       	pop	r29
    22ec:	cf 91       	pop	r28
    22ee:	1f 91       	pop	r17
    22f0:	08 95       	ret

000022f2 <LCD_OutString6x8>:
    22f2:	0f 93       	push	r16
    22f4:	1f 93       	push	r17
    22f6:	cf 93       	push	r28
    22f8:	df 93       	push	r29
    22fa:	ec 01       	movw	r28, r24
    22fc:	fc 01       	movw	r30, r24
    22fe:	04 91       	lpm	r16, Z+
    2300:	11 e0       	ldi	r17, 0x01	; 1
    2302:	08 c0       	rjmp	.+16     	; 0x2314 <LCD_OutString6x8+0x22>
    2304:	fe 01       	movw	r30, r28
    2306:	e1 0f       	add	r30, r17
    2308:	f1 1d       	adc	r31, r1
    230a:	e4 91       	lpm	r30, Z+
    230c:	8e 2f       	mov	r24, r30
    230e:	0e 94 62 11 	call	0x22c4	; 0x22c4 <LCD_OutChar6x8>
    2312:	1f 5f       	subi	r17, 0xFF	; 255
    2314:	01 17       	cp	r16, r17
    2316:	b0 f7       	brcc	.-20     	; 0x2304 <LCD_OutString6x8+0x12>
    2318:	df 91       	pop	r29
    231a:	cf 91       	pop	r28
    231c:	1f 91       	pop	r17
    231e:	0f 91       	pop	r16
    2320:	08 95       	ret

00002322 <LCD_OutChar12x16>:
    2322:	df 92       	push	r13
    2324:	ef 92       	push	r14
    2326:	ff 92       	push	r15
    2328:	0f 93       	push	r16
    232a:	1f 93       	push	r17
    232c:	cf 93       	push	r28
    232e:	df 93       	push	r29
    2330:	18 2f       	mov	r17, r24
    2332:	06 2f       	mov	r16, r22
    2334:	d4 2e       	mov	r13, r20
    2336:	86 2f       	mov	r24, r22
    2338:	64 2f       	mov	r22, r20
    233a:	0e 94 12 11 	call	0x2224	; 0x2224 <LCD_gotoXY>
    233e:	88 e1       	ldi	r24, 0x18	; 24
    2340:	18 9f       	mul	r17, r24
    2342:	70 01       	movw	r14, r0
    2344:	11 24       	eor	r1, r1
    2346:	e7 01       	movw	r28, r14
    2348:	cc 5a       	subi	r28, 0xAC	; 172
    234a:	d9 4f       	sbci	r29, 0xF9	; 249
    234c:	10 e0       	ldi	r17, 0x00	; 0
    234e:	fe 01       	movw	r30, r28
    2350:	84 91       	lpm	r24, Z+
    2352:	61 e0       	ldi	r22, 0x01	; 1
    2354:	0e 94 fd 10 	call	0x21fa	; 0x21fa <LCD_sendByte>
    2358:	1f 5f       	subi	r17, 0xFF	; 255
    235a:	21 96       	adiw	r28, 0x01	; 1
    235c:	1c 30       	cpi	r17, 0x0C	; 12
    235e:	b9 f7       	brne	.-18     	; 0x234e <LCD_OutChar12x16+0x2c>
    2360:	80 2f       	mov	r24, r16
    2362:	8f 5f       	subi	r24, 0xFF	; 255
    2364:	6d 2d       	mov	r22, r13
    2366:	0e 94 12 11 	call	0x2224	; 0x2224 <LCD_gotoXY>
    236a:	87 01       	movw	r16, r14
    236c:	00 5a       	subi	r16, 0xA0	; 160
    236e:	19 4f       	sbci	r17, 0xF9	; 249
    2370:	e7 01       	movw	r28, r14
    2372:	68 96       	adiw	r28, 0x18	; 24
    2374:	cc 5a       	subi	r28, 0xAC	; 172
    2376:	d9 4f       	sbci	r29, 0xF9	; 249
    2378:	f8 01       	movw	r30, r16
    237a:	84 91       	lpm	r24, Z+
    237c:	61 e0       	ldi	r22, 0x01	; 1
    237e:	0e 94 fd 10 	call	0x21fa	; 0x21fa <LCD_sendByte>
    2382:	0f 5f       	subi	r16, 0xFF	; 255
    2384:	1f 4f       	sbci	r17, 0xFF	; 255
    2386:	0c 17       	cp	r16, r28
    2388:	1d 07       	cpc	r17, r29
    238a:	b1 f7       	brne	.-20     	; 0x2378 <LCD_OutChar12x16+0x56>
    238c:	8d 2d       	mov	r24, r13
    238e:	84 5f       	subi	r24, 0xF4	; 244
    2390:	df 91       	pop	r29
    2392:	cf 91       	pop	r28
    2394:	1f 91       	pop	r17
    2396:	0f 91       	pop	r16
    2398:	ff 90       	pop	r15
    239a:	ef 90       	pop	r14
    239c:	df 90       	pop	r13
    239e:	08 95       	ret

000023a0 <LCD_OutString12x16>:
    23a0:	ef 92       	push	r14
    23a2:	ff 92       	push	r15
    23a4:	0f 93       	push	r16
    23a6:	1f 93       	push	r17
    23a8:	cf 93       	push	r28
    23aa:	df 93       	push	r29
    23ac:	ec 01       	movw	r28, r24
    23ae:	e6 2e       	mov	r14, r22
    23b0:	04 2f       	mov	r16, r20
    23b2:	fc 01       	movw	r30, r24
    23b4:	f4 90       	lpm	r15, Z+
    23b6:	11 e0       	ldi	r17, 0x01	; 1
    23b8:	0b c0       	rjmp	.+22     	; 0x23d0 <LCD_OutString12x16+0x30>
    23ba:	fe 01       	movw	r30, r28
    23bc:	e1 0f       	add	r30, r17
    23be:	f1 1d       	adc	r31, r1
    23c0:	e4 91       	lpm	r30, Z+
    23c2:	8e 2f       	mov	r24, r30
    23c4:	6e 2d       	mov	r22, r14
    23c6:	40 2f       	mov	r20, r16
    23c8:	0e 94 91 11 	call	0x2322	; 0x2322 <LCD_OutChar12x16>
    23cc:	04 5f       	subi	r16, 0xF4	; 244
    23ce:	1f 5f       	subi	r17, 0xFF	; 255
    23d0:	f1 16       	cp	r15, r17
    23d2:	98 f7       	brcc	.-26     	; 0x23ba <LCD_OutString12x16+0x1a>
    23d4:	80 2f       	mov	r24, r16
    23d6:	df 91       	pop	r29
    23d8:	cf 91       	pop	r28
    23da:	1f 91       	pop	r17
    23dc:	0f 91       	pop	r16
    23de:	ff 90       	pop	r15
    23e0:	ef 90       	pop	r14
    23e2:	08 95       	ret

000023e4 <LCD_OutNumber12x16>:
    23e4:	ff 92       	push	r15
    23e6:	0f 93       	push	r16
    23e8:	1f 93       	push	r17
    23ea:	f8 2e       	mov	r15, r24
    23ec:	06 2f       	mov	r16, r22
    23ee:	14 2f       	mov	r17, r20
    23f0:	64 e6       	ldi	r22, 0x64	; 100
    23f2:	0e 94 29 1e 	call	0x3c52	; 0x3c52 <__udivmodqi4>
    23f6:	88 23       	and	r24, r24
    23f8:	11 f4       	brne	.+4      	; 0x23fe <LCD_OutNumber12x16+0x1a>
    23fa:	20 e0       	ldi	r18, 0x00	; 0
    23fc:	06 c0       	rjmp	.+12     	; 0x240a <LCD_OutNumber12x16+0x26>
    23fe:	80 5d       	subi	r24, 0xD0	; 208
    2400:	60 2f       	mov	r22, r16
    2402:	0e 94 91 11 	call	0x2322	; 0x2322 <LCD_OutChar12x16>
    2406:	14 5f       	subi	r17, 0xF4	; 244
    2408:	21 e0       	ldi	r18, 0x01	; 1
    240a:	8f 2d       	mov	r24, r15
    240c:	64 e6       	ldi	r22, 0x64	; 100
    240e:	0e 94 29 1e 	call	0x3c52	; 0x3c52 <__udivmodqi4>
    2412:	f9 2e       	mov	r15, r25
    2414:	89 2f       	mov	r24, r25
    2416:	6a e0       	ldi	r22, 0x0A	; 10
    2418:	0e 94 29 1e 	call	0x3c52	; 0x3c52 <__udivmodqi4>
    241c:	88 23       	and	r24, r24
    241e:	11 f0       	breq	.+4      	; 0x2424 <LCD_OutNumber12x16+0x40>
    2420:	80 5d       	subi	r24, 0xD0	; 208
    2422:	03 c0       	rjmp	.+6      	; 0x242a <LCD_OutNumber12x16+0x46>
    2424:	21 30       	cpi	r18, 0x01	; 1
    2426:	31 f4       	brne	.+12     	; 0x2434 <LCD_OutNumber12x16+0x50>
    2428:	80 e3       	ldi	r24, 0x30	; 48
    242a:	60 2f       	mov	r22, r16
    242c:	41 2f       	mov	r20, r17
    242e:	0e 94 91 11 	call	0x2322	; 0x2322 <LCD_OutChar12x16>
    2432:	14 5f       	subi	r17, 0xF4	; 244
    2434:	8f 2d       	mov	r24, r15
    2436:	6a e0       	ldi	r22, 0x0A	; 10
    2438:	0e 94 29 1e 	call	0x3c52	; 0x3c52 <__udivmodqi4>
    243c:	89 2f       	mov	r24, r25
    243e:	80 5d       	subi	r24, 0xD0	; 208
    2440:	60 2f       	mov	r22, r16
    2442:	41 2f       	mov	r20, r17
    2444:	0e 94 91 11 	call	0x2322	; 0x2322 <LCD_OutChar12x16>
    2448:	81 2f       	mov	r24, r17
    244a:	84 5f       	subi	r24, 0xF4	; 244
    244c:	1f 91       	pop	r17
    244e:	0f 91       	pop	r16
    2450:	ff 90       	pop	r15
    2452:	08 95       	ret

00002454 <LCD_OutBigNumber12x16>:
    2454:	df 92       	push	r13
    2456:	ef 92       	push	r14
    2458:	ff 92       	push	r15
    245a:	0f 93       	push	r16
    245c:	1f 93       	push	r17
    245e:	cf 93       	push	r28
    2460:	df 93       	push	r29
    2462:	ec 01       	movw	r28, r24
    2464:	f6 2e       	mov	r15, r22
    2466:	14 2f       	mov	r17, r20
    2468:	60 e1       	ldi	r22, 0x10	; 16
    246a:	77 e2       	ldi	r23, 0x27	; 39
    246c:	0e 94 35 1e 	call	0x3c6a	; 0x3c6a <__udivmodhi4>
    2470:	cb 01       	movw	r24, r22
    2472:	61 15       	cp	r22, r1
    2474:	71 05       	cpc	r23, r1
    2476:	11 f4       	brne	.+4      	; 0x247c <LCD_OutBigNumber12x16+0x28>
    2478:	00 e0       	ldi	r16, 0x00	; 0
    247a:	06 c0       	rjmp	.+12     	; 0x2488 <LCD_OutBigNumber12x16+0x34>
    247c:	80 5d       	subi	r24, 0xD0	; 208
    247e:	6f 2d       	mov	r22, r15
    2480:	0e 94 91 11 	call	0x2322	; 0x2322 <LCD_OutChar12x16>
    2484:	14 5f       	subi	r17, 0xF4	; 244
    2486:	01 e0       	ldi	r16, 0x01	; 1
    2488:	ce 01       	movw	r24, r28
    248a:	60 e1       	ldi	r22, 0x10	; 16
    248c:	77 e2       	ldi	r23, 0x27	; 39
    248e:	0e 94 35 1e 	call	0x3c6a	; 0x3c6a <__udivmodhi4>
    2492:	e8 2e       	mov	r14, r24
    2494:	d9 2e       	mov	r13, r25
    2496:	68 ee       	ldi	r22, 0xE8	; 232
    2498:	73 e0       	ldi	r23, 0x03	; 3
    249a:	0e 94 35 1e 	call	0x3c6a	; 0x3c6a <__udivmodhi4>
    249e:	cb 01       	movw	r24, r22
    24a0:	61 15       	cp	r22, r1
    24a2:	71 05       	cpc	r23, r1
    24a4:	41 f0       	breq	.+16     	; 0x24b6 <LCD_OutBigNumber12x16+0x62>
    24a6:	80 5d       	subi	r24, 0xD0	; 208
    24a8:	6f 2d       	mov	r22, r15
    24aa:	41 2f       	mov	r20, r17
    24ac:	0e 94 91 11 	call	0x2322	; 0x2322 <LCD_OutChar12x16>
    24b0:	14 5f       	subi	r17, 0xF4	; 244
    24b2:	01 e0       	ldi	r16, 0x01	; 1
    24b4:	0a c0       	rjmp	.+20     	; 0x24ca <LCD_OutBigNumber12x16+0x76>
    24b6:	01 30       	cpi	r16, 0x01	; 1
    24b8:	11 f0       	breq	.+4      	; 0x24be <LCD_OutBigNumber12x16+0x6a>
    24ba:	00 e0       	ldi	r16, 0x00	; 0
    24bc:	06 c0       	rjmp	.+12     	; 0x24ca <LCD_OutBigNumber12x16+0x76>
    24be:	80 e3       	ldi	r24, 0x30	; 48
    24c0:	6f 2d       	mov	r22, r15
    24c2:	41 2f       	mov	r20, r17
    24c4:	0e 94 91 11 	call	0x2322	; 0x2322 <LCD_OutChar12x16>
    24c8:	14 5f       	subi	r17, 0xF4	; 244
    24ca:	8e 2d       	mov	r24, r14
    24cc:	9d 2d       	mov	r25, r13
    24ce:	68 ee       	ldi	r22, 0xE8	; 232
    24d0:	73 e0       	ldi	r23, 0x03	; 3
    24d2:	0e 94 35 1e 	call	0x3c6a	; 0x3c6a <__udivmodhi4>
    24d6:	e8 2e       	mov	r14, r24
    24d8:	d9 2e       	mov	r13, r25
    24da:	64 e6       	ldi	r22, 0x64	; 100
    24dc:	70 e0       	ldi	r23, 0x00	; 0
    24de:	0e 94 35 1e 	call	0x3c6a	; 0x3c6a <__udivmodhi4>
    24e2:	cb 01       	movw	r24, r22
    24e4:	61 15       	cp	r22, r1
    24e6:	71 05       	cpc	r23, r1
    24e8:	41 f0       	breq	.+16     	; 0x24fa <LCD_OutBigNumber12x16+0xa6>
    24ea:	80 5d       	subi	r24, 0xD0	; 208
    24ec:	6f 2d       	mov	r22, r15
    24ee:	41 2f       	mov	r20, r17
    24f0:	0e 94 91 11 	call	0x2322	; 0x2322 <LCD_OutChar12x16>
    24f4:	14 5f       	subi	r17, 0xF4	; 244
    24f6:	01 e0       	ldi	r16, 0x01	; 1
    24f8:	0a c0       	rjmp	.+20     	; 0x250e <LCD_OutBigNumber12x16+0xba>
    24fa:	01 30       	cpi	r16, 0x01	; 1
    24fc:	11 f0       	breq	.+4      	; 0x2502 <LCD_OutBigNumber12x16+0xae>
    24fe:	00 e0       	ldi	r16, 0x00	; 0
    2500:	06 c0       	rjmp	.+12     	; 0x250e <LCD_OutBigNumber12x16+0xba>
    2502:	80 e3       	ldi	r24, 0x30	; 48
    2504:	6f 2d       	mov	r22, r15
    2506:	41 2f       	mov	r20, r17
    2508:	0e 94 91 11 	call	0x2322	; 0x2322 <LCD_OutChar12x16>
    250c:	14 5f       	subi	r17, 0xF4	; 244
    250e:	8e 2d       	mov	r24, r14
    2510:	9d 2d       	mov	r25, r13
    2512:	64 e6       	ldi	r22, 0x64	; 100
    2514:	70 e0       	ldi	r23, 0x00	; 0
    2516:	0e 94 35 1e 	call	0x3c6a	; 0x3c6a <__udivmodhi4>
    251a:	e8 2e       	mov	r14, r24
    251c:	d9 2e       	mov	r13, r25
    251e:	6a e0       	ldi	r22, 0x0A	; 10
    2520:	70 e0       	ldi	r23, 0x00	; 0
    2522:	0e 94 35 1e 	call	0x3c6a	; 0x3c6a <__udivmodhi4>
    2526:	cb 01       	movw	r24, r22
    2528:	61 15       	cp	r22, r1
    252a:	71 05       	cpc	r23, r1
    252c:	11 f0       	breq	.+4      	; 0x2532 <LCD_OutBigNumber12x16+0xde>
    252e:	80 5d       	subi	r24, 0xD0	; 208
    2530:	03 c0       	rjmp	.+6      	; 0x2538 <LCD_OutBigNumber12x16+0xe4>
    2532:	01 30       	cpi	r16, 0x01	; 1
    2534:	31 f4       	brne	.+12     	; 0x2542 <LCD_OutBigNumber12x16+0xee>
    2536:	80 e3       	ldi	r24, 0x30	; 48
    2538:	6f 2d       	mov	r22, r15
    253a:	41 2f       	mov	r20, r17
    253c:	0e 94 91 11 	call	0x2322	; 0x2322 <LCD_OutChar12x16>
    2540:	14 5f       	subi	r17, 0xF4	; 244
    2542:	8e 2d       	mov	r24, r14
    2544:	9d 2d       	mov	r25, r13
    2546:	6a e0       	ldi	r22, 0x0A	; 10
    2548:	70 e0       	ldi	r23, 0x00	; 0
    254a:	0e 94 35 1e 	call	0x3c6a	; 0x3c6a <__udivmodhi4>
    254e:	80 5d       	subi	r24, 0xD0	; 208
    2550:	6f 2d       	mov	r22, r15
    2552:	41 2f       	mov	r20, r17
    2554:	0e 94 91 11 	call	0x2322	; 0x2322 <LCD_OutChar12x16>
    2558:	81 2f       	mov	r24, r17
    255a:	84 5f       	subi	r24, 0xF4	; 244
    255c:	df 91       	pop	r29
    255e:	cf 91       	pop	r28
    2560:	1f 91       	pop	r17
    2562:	0f 91       	pop	r16
    2564:	ff 90       	pop	r15
    2566:	ef 90       	pop	r14
    2568:	df 90       	pop	r13
    256a:	08 95       	ret

0000256c <ReadMAX6675>:
    256c:	48 2f       	mov	r20, r24
    256e:	81 50       	subi	r24, 0x01	; 1
    2570:	82 30       	cpi	r24, 0x02	; 2
    2572:	28 f0       	brcs	.+10     	; 0x257e <ReadMAX6675+0x12>
    2574:	10 92 66 00 	sts	0x0066, r1
    2578:	10 92 69 00 	sts	0x0069, r1
    257c:	08 95       	ret
    257e:	41 30       	cpi	r20, 0x01	; 1
    2580:	11 f4       	brne	.+4      	; 0x2586 <ReadMAX6675+0x1a>
    2582:	ae 98       	cbi	0x15, 6	; 21
    2584:	01 c0       	rjmp	.+2      	; 0x2588 <ReadMAX6675+0x1c>
    2586:	ad 98       	cbi	0x15, 5	; 21
    2588:	80 e1       	ldi	r24, 0x10	; 16
    258a:	20 e0       	ldi	r18, 0x00	; 0
    258c:	30 e0       	ldi	r19, 0x00	; 0
    258e:	06 c0       	rjmp	.+12     	; 0x259c <ReadMAX6675+0x30>
    2590:	af 9a       	sbi	0x15, 7	; 21
    2592:	22 0f       	add	r18, r18
    2594:	33 1f       	adc	r19, r19
    2596:	9c 99       	sbic	0x13, 4	; 19
    2598:	21 60       	ori	r18, 0x01	; 1
    259a:	af 98       	cbi	0x15, 7	; 21
    259c:	81 50       	subi	r24, 0x01	; 1
    259e:	c0 f7       	brcc	.-16     	; 0x2590 <ReadMAX6675+0x24>
    25a0:	41 30       	cpi	r20, 0x01	; 1
    25a2:	11 f4       	brne	.+4      	; 0x25a8 <ReadMAX6675+0x3c>
    25a4:	ae 9a       	sbi	0x15, 6	; 21
    25a6:	01 c0       	rjmp	.+2      	; 0x25aa <ReadMAX6675+0x3e>
    25a8:	ad 9a       	sbi	0x15, 5	; 21
    25aa:	c9 01       	movw	r24, r18
    25ac:	86 70       	andi	r24, 0x06	; 6
    25ae:	90 78       	andi	r25, 0x80	; 128
    25b0:	89 2b       	or	r24, r25
    25b2:	21 f0       	breq	.+8      	; 0x25bc <ReadMAX6675+0x50>
    25b4:	80 e0       	ldi	r24, 0x00	; 0
    25b6:	90 e0       	ldi	r25, 0x00	; 0
    25b8:	22 e0       	ldi	r18, 0x02	; 2
    25ba:	0d c0       	rjmp	.+26     	; 0x25d6 <ReadMAX6675+0x6a>
    25bc:	c9 01       	movw	r24, r18
    25be:	25 e0       	ldi	r18, 0x05	; 5
    25c0:	96 95       	lsr	r25
    25c2:	87 95       	ror	r24
    25c4:	2a 95       	dec	r18
    25c6:	e1 f7       	brne	.-8      	; 0x25c0 <ReadMAX6675+0x54>
    25c8:	23 e0       	ldi	r18, 0x03	; 3
    25ca:	88 3e       	cpi	r24, 0xE8	; 232
    25cc:	92 07       	cpc	r25, r18
    25ce:	10 f0       	brcs	.+4      	; 0x25d4 <ReadMAX6675+0x68>
    25d0:	23 e0       	ldi	r18, 0x03	; 3
    25d2:	01 c0       	rjmp	.+2      	; 0x25d6 <ReadMAX6675+0x6a>
    25d4:	21 e0       	ldi	r18, 0x01	; 1
    25d6:	41 30       	cpi	r20, 0x01	; 1
    25d8:	39 f4       	brne	.+14     	; 0x25e8 <ReadMAX6675+0x7c>
    25da:	20 93 66 00 	sts	0x0066, r18
    25de:	90 93 68 00 	sts	0x0068, r25
    25e2:	80 93 67 00 	sts	0x0067, r24
    25e6:	08 95       	ret
    25e8:	20 93 69 00 	sts	0x0069, r18
    25ec:	90 93 6b 00 	sts	0x006B, r25
    25f0:	80 93 6a 00 	sts	0x006A, r24
    25f4:	08 95       	ret

000025f6 <OutMenuToLCD>:
    25f6:	1f 93       	push	r17
    25f8:	80 e0       	ldi	r24, 0x00	; 0
    25fa:	0e 94 1f 11 	call	0x223e	; 0x223e <LCD_clear>
    25fe:	80 e0       	ldi	r24, 0x00	; 0
    2600:	6e e0       	ldi	r22, 0x0E	; 14
    2602:	0e 94 12 11 	call	0x2224	; 0x2224 <LCD_gotoXY>
    2606:	83 e1       	ldi	r24, 0x13	; 19
    2608:	9f e1       	ldi	r25, 0x1F	; 31
    260a:	0e 94 79 11 	call	0x22f2	; 0x22f2 <LCD_OutString6x8>
    260e:	81 e0       	ldi	r24, 0x01	; 1
    2610:	60 e0       	ldi	r22, 0x00	; 0
    2612:	0e 94 12 11 	call	0x2224	; 0x2224 <LCD_gotoXY>
    2616:	1e e0       	ldi	r17, 0x0E	; 14
    2618:	03 c0       	rjmp	.+6      	; 0x2620 <OutMenuToLCD+0x2a>
    261a:	8d e3       	ldi	r24, 0x3D	; 61
    261c:	0e 94 62 11 	call	0x22c4	; 0x22c4 <LCD_OutChar6x8>
    2620:	11 50       	subi	r17, 0x01	; 1
    2622:	d8 f7       	brcc	.-10     	; 0x261a <OutMenuToLCD+0x24>
    2624:	80 91 63 00 	lds	r24, 0x0063
    2628:	84 30       	cpi	r24, 0x04	; 4
    262a:	09 f4       	brne	.+2      	; 0x262e <OutMenuToLCD+0x38>
    262c:	70 c0       	rjmp	.+224    	; 0x270e <OutMenuToLCD+0x118>
    262e:	85 30       	cpi	r24, 0x05	; 5
    2630:	58 f4       	brcc	.+22     	; 0x2648 <OutMenuToLCD+0x52>
    2632:	81 30       	cpi	r24, 0x01	; 1
    2634:	89 f1       	breq	.+98     	; 0x2698 <OutMenuToLCD+0xa2>
    2636:	81 30       	cpi	r24, 0x01	; 1
    2638:	d0 f0       	brcs	.+52     	; 0x266e <OutMenuToLCD+0x78>
    263a:	82 30       	cpi	r24, 0x02	; 2
    263c:	09 f4       	brne	.+2      	; 0x2640 <OutMenuToLCD+0x4a>
    263e:	3f c0       	rjmp	.+126    	; 0x26be <OutMenuToLCD+0xc8>
    2640:	83 30       	cpi	r24, 0x03	; 3
    2642:	09 f0       	breq	.+2      	; 0x2646 <OutMenuToLCD+0x50>
    2644:	f9 c0       	rjmp	.+498    	; 0x2838 <OutMenuToLCD+0x242>
    2646:	50 c0       	rjmp	.+160    	; 0x26e8 <OutMenuToLCD+0xf2>
    2648:	87 30       	cpi	r24, 0x07	; 7
    264a:	09 f4       	brne	.+2      	; 0x264e <OutMenuToLCD+0x58>
    264c:	ab c0       	rjmp	.+342    	; 0x27a4 <OutMenuToLCD+0x1ae>
    264e:	88 30       	cpi	r24, 0x08	; 8
    2650:	38 f4       	brcc	.+14     	; 0x2660 <OutMenuToLCD+0x6a>
    2652:	85 30       	cpi	r24, 0x05	; 5
    2654:	09 f4       	brne	.+2      	; 0x2658 <OutMenuToLCD+0x62>
    2656:	70 c0       	rjmp	.+224    	; 0x2738 <OutMenuToLCD+0x142>
    2658:	86 30       	cpi	r24, 0x06	; 6
    265a:	09 f0       	breq	.+2      	; 0x265e <OutMenuToLCD+0x68>
    265c:	ed c0       	rjmp	.+474    	; 0x2838 <OutMenuToLCD+0x242>
    265e:	85 c0       	rjmp	.+266    	; 0x276a <OutMenuToLCD+0x174>
    2660:	88 30       	cpi	r24, 0x08	; 8
    2662:	09 f4       	brne	.+2      	; 0x2666 <OutMenuToLCD+0x70>
    2664:	b5 c0       	rjmp	.+362    	; 0x27d0 <OutMenuToLCD+0x1da>
    2666:	89 30       	cpi	r24, 0x09	; 9
    2668:	09 f0       	breq	.+2      	; 0x266c <OutMenuToLCD+0x76>
    266a:	e6 c0       	rjmp	.+460    	; 0x2838 <OutMenuToLCD+0x242>
    266c:	c7 c0       	rjmp	.+398    	; 0x27fc <OutMenuToLCD+0x206>
    266e:	82 e0       	ldi	r24, 0x02	; 2
    2670:	69 e0       	ldi	r22, 0x09	; 9
    2672:	0e 94 12 11 	call	0x2224	; 0x2224 <LCD_gotoXY>
    2676:	84 e5       	ldi	r24, 0x54	; 84
    2678:	9e e1       	ldi	r25, 0x1E	; 30
    267a:	0e 94 79 11 	call	0x22f2	; 0x22f2 <LCD_OutString6x8>
    267e:	83 e0       	ldi	r24, 0x03	; 3
    2680:	6f e0       	ldi	r22, 0x0F	; 15
    2682:	0e 94 12 11 	call	0x2224	; 0x2224 <LCD_gotoXY>
    2686:	80 e6       	ldi	r24, 0x60	; 96
    2688:	9e e1       	ldi	r25, 0x1E	; 30
    268a:	0e 94 79 11 	call	0x22f2	; 0x22f2 <LCD_OutString6x8>
    268e:	80 91 8f 00 	lds	r24, 0x008F
    2692:	64 e0       	ldi	r22, 0x04	; 4
    2694:	42 e1       	ldi	r20, 0x12	; 18
    2696:	7d c0       	rjmp	.+250    	; 0x2792 <OutMenuToLCD+0x19c>
    2698:	82 e0       	ldi	r24, 0x02	; 2
    269a:	60 e0       	ldi	r22, 0x00	; 0
    269c:	0e 94 12 11 	call	0x2224	; 0x2224 <LCD_gotoXY>
    26a0:	8a e6       	ldi	r24, 0x6A	; 106
    26a2:	9e e1       	ldi	r25, 0x1E	; 30
    26a4:	0e 94 79 11 	call	0x22f2	; 0x22f2 <LCD_OutString6x8>
    26a8:	83 e0       	ldi	r24, 0x03	; 3
    26aa:	6f e0       	ldi	r22, 0x0F	; 15
    26ac:	0e 94 12 11 	call	0x2224	; 0x2224 <LCD_gotoXY>
    26b0:	80 e6       	ldi	r24, 0x60	; 96
    26b2:	9e e1       	ldi	r25, 0x1E	; 30
    26b4:	0e 94 79 11 	call	0x22f2	; 0x22f2 <LCD_OutString6x8>
    26b8:	80 91 9c 00 	lds	r24, 0x009C
    26bc:	12 c0       	rjmp	.+36     	; 0x26e2 <OutMenuToLCD+0xec>
    26be:	82 e0       	ldi	r24, 0x02	; 2
    26c0:	69 e0       	ldi	r22, 0x09	; 9
    26c2:	0e 94 12 11 	call	0x2224	; 0x2224 <LCD_gotoXY>
    26c6:	84 e5       	ldi	r24, 0x54	; 84
    26c8:	9e e1       	ldi	r25, 0x1E	; 30
    26ca:	0e 94 79 11 	call	0x22f2	; 0x22f2 <LCD_OutString6x8>
    26ce:	83 e0       	ldi	r24, 0x03	; 3
    26d0:	63 e0       	ldi	r22, 0x03	; 3
    26d2:	0e 94 12 11 	call	0x2224	; 0x2224 <LCD_gotoXY>
    26d6:	89 e7       	ldi	r24, 0x79	; 121
    26d8:	9e e1       	ldi	r25, 0x1E	; 30
    26da:	0e 94 79 11 	call	0x22f2	; 0x22f2 <LCD_OutString6x8>
    26de:	80 91 90 00 	lds	r24, 0x0090
    26e2:	64 e0       	ldi	r22, 0x04	; 4
    26e4:	45 e1       	ldi	r20, 0x15	; 21
    26e6:	55 c0       	rjmp	.+170    	; 0x2792 <OutMenuToLCD+0x19c>
    26e8:	82 e0       	ldi	r24, 0x02	; 2
    26ea:	60 e0       	ldi	r22, 0x00	; 0
    26ec:	0e 94 12 11 	call	0x2224	; 0x2224 <LCD_gotoXY>
    26f0:	8a e6       	ldi	r24, 0x6A	; 106
    26f2:	9e e1       	ldi	r25, 0x1E	; 30
    26f4:	0e 94 79 11 	call	0x22f2	; 0x22f2 <LCD_OutString6x8>
    26f8:	83 e0       	ldi	r24, 0x03	; 3
    26fa:	60 e0       	ldi	r22, 0x00	; 0
    26fc:	0e 94 12 11 	call	0x2224	; 0x2224 <LCD_gotoXY>
    2700:	89 e7       	ldi	r24, 0x79	; 121
    2702:	9e e1       	ldi	r25, 0x1E	; 30
    2704:	0e 94 79 11 	call	0x22f2	; 0x22f2 <LCD_OutString6x8>
    2708:	80 91 9b 00 	lds	r24, 0x009B
    270c:	ea cf       	rjmp	.-44     	; 0x26e2 <OutMenuToLCD+0xec>
    270e:	82 e0       	ldi	r24, 0x02	; 2
    2710:	60 e0       	ldi	r22, 0x00	; 0
    2712:	0e 94 12 11 	call	0x2224	; 0x2224 <LCD_gotoXY>
    2716:	84 e5       	ldi	r24, 0x54	; 84
    2718:	9e e1       	ldi	r25, 0x1E	; 30
    271a:	0e 94 79 11 	call	0x22f2	; 0x22f2 <LCD_OutString6x8>
    271e:	83 e0       	ldi	r24, 0x03	; 3
    2720:	60 e0       	ldi	r22, 0x00	; 0
    2722:	0e 94 12 11 	call	0x2224	; 0x2224 <LCD_gotoXY>
    2726:	87 e8       	ldi	r24, 0x87	; 135
    2728:	9e e1       	ldi	r25, 0x1E	; 30
    272a:	0e 94 79 11 	call	0x22f2	; 0x22f2 <LCD_OutString6x8>
    272e:	80 91 9d 00 	lds	r24, 0x009D
    2732:	90 91 9e 00 	lds	r25, 0x009E
    2736:	14 c0       	rjmp	.+40     	; 0x2760 <OutMenuToLCD+0x16a>
    2738:	82 e0       	ldi	r24, 0x02	; 2
    273a:	60 e0       	ldi	r22, 0x00	; 0
    273c:	0e 94 12 11 	call	0x2224	; 0x2224 <LCD_gotoXY>
    2740:	84 e5       	ldi	r24, 0x54	; 84
    2742:	9e e1       	ldi	r25, 0x1E	; 30
    2744:	0e 94 79 11 	call	0x22f2	; 0x22f2 <LCD_OutString6x8>
    2748:	83 e0       	ldi	r24, 0x03	; 3
    274a:	60 e0       	ldi	r22, 0x00	; 0
    274c:	0e 94 12 11 	call	0x2224	; 0x2224 <LCD_gotoXY>
    2750:	86 e9       	ldi	r24, 0x96	; 150
    2752:	9e e1       	ldi	r25, 0x1E	; 30
    2754:	0e 94 79 11 	call	0x22f2	; 0x22f2 <LCD_OutString6x8>
    2758:	80 91 96 00 	lds	r24, 0x0096
    275c:	90 91 97 00 	lds	r25, 0x0097
    2760:	64 e0       	ldi	r22, 0x04	; 4
    2762:	4c e0       	ldi	r20, 0x0C	; 12
    2764:	0e 94 2a 12 	call	0x2454	; 0x2454 <LCD_OutBigNumber12x16>
    2768:	16 c0       	rjmp	.+44     	; 0x2796 <OutMenuToLCD+0x1a0>
    276a:	82 e0       	ldi	r24, 0x02	; 2
    276c:	60 e0       	ldi	r22, 0x00	; 0
    276e:	0e 94 12 11 	call	0x2224	; 0x2224 <LCD_gotoXY>
    2772:	85 ea       	ldi	r24, 0xA5	; 165
    2774:	9e e1       	ldi	r25, 0x1E	; 30
    2776:	0e 94 79 11 	call	0x22f2	; 0x22f2 <LCD_OutString6x8>
    277a:	83 e0       	ldi	r24, 0x03	; 3
    277c:	60 e0       	ldi	r22, 0x00	; 0
    277e:	0e 94 12 11 	call	0x2224	; 0x2224 <LCD_gotoXY>
    2782:	84 eb       	ldi	r24, 0xB4	; 180
    2784:	9e e1       	ldi	r25, 0x1E	; 30
    2786:	0e 94 79 11 	call	0x22f2	; 0x22f2 <LCD_OutString6x8>
    278a:	80 91 98 00 	lds	r24, 0x0098
    278e:	64 e0       	ldi	r22, 0x04	; 4
    2790:	4c e0       	ldi	r20, 0x0C	; 12
    2792:	0e 94 f2 11 	call	0x23e4	; 0x23e4 <LCD_OutNumber12x16>
    2796:	48 2f       	mov	r20, r24
    2798:	80 e1       	ldi	r24, 0x10	; 16
    279a:	9f e1       	ldi	r25, 0x1F	; 31
    279c:	64 e0       	ldi	r22, 0x04	; 4
    279e:	0e 94 d0 11 	call	0x23a0	; 0x23a0 <LCD_OutString12x16>
    27a2:	4a c0       	rjmp	.+148    	; 0x2838 <OutMenuToLCD+0x242>
    27a4:	82 e0       	ldi	r24, 0x02	; 2
    27a6:	60 e0       	ldi	r22, 0x00	; 0
    27a8:	0e 94 12 11 	call	0x2224	; 0x2224 <LCD_gotoXY>
    27ac:	83 ec       	ldi	r24, 0xC3	; 195
    27ae:	9e e1       	ldi	r25, 0x1E	; 30
    27b0:	0e 94 79 11 	call	0x22f2	; 0x22f2 <LCD_OutString6x8>
    27b4:	83 e0       	ldi	r24, 0x03	; 3
    27b6:	60 e0       	ldi	r22, 0x00	; 0
    27b8:	0e 94 12 11 	call	0x2224	; 0x2224 <LCD_gotoXY>
    27bc:	80 ed       	ldi	r24, 0xD0	; 208
    27be:	9e e1       	ldi	r25, 0x1E	; 30
    27c0:	0e 94 79 11 	call	0x22f2	; 0x22f2 <LCD_OutString6x8>
    27c4:	81 e3       	ldi	r24, 0x31	; 49
    27c6:	0e 94 62 11 	call	0x22c4	; 0x22c4 <LCD_OutChar6x8>
    27ca:	80 91 99 00 	lds	r24, 0x0099
    27ce:	2b c0       	rjmp	.+86     	; 0x2826 <OutMenuToLCD+0x230>
    27d0:	82 e0       	ldi	r24, 0x02	; 2
    27d2:	60 e0       	ldi	r22, 0x00	; 0
    27d4:	0e 94 12 11 	call	0x2224	; 0x2224 <LCD_gotoXY>
    27d8:	83 ec       	ldi	r24, 0xC3	; 195
    27da:	9e e1       	ldi	r25, 0x1E	; 30
    27dc:	0e 94 79 11 	call	0x22f2	; 0x22f2 <LCD_OutString6x8>
    27e0:	83 e0       	ldi	r24, 0x03	; 3
    27e2:	60 e0       	ldi	r22, 0x00	; 0
    27e4:	0e 94 12 11 	call	0x2224	; 0x2224 <LCD_gotoXY>
    27e8:	80 ed       	ldi	r24, 0xD0	; 208
    27ea:	9e e1       	ldi	r25, 0x1E	; 30
    27ec:	0e 94 79 11 	call	0x22f2	; 0x22f2 <LCD_OutString6x8>
    27f0:	82 e3       	ldi	r24, 0x32	; 50
    27f2:	0e 94 62 11 	call	0x22c4	; 0x22c4 <LCD_OutChar6x8>
    27f6:	80 91 95 00 	lds	r24, 0x0095
    27fa:	15 c0       	rjmp	.+42     	; 0x2826 <OutMenuToLCD+0x230>
    27fc:	82 e0       	ldi	r24, 0x02	; 2
    27fe:	60 e0       	ldi	r22, 0x00	; 0
    2800:	0e 94 12 11 	call	0x2224	; 0x2224 <LCD_gotoXY>
    2804:	83 ec       	ldi	r24, 0xC3	; 195
    2806:	9e e1       	ldi	r25, 0x1E	; 30
    2808:	0e 94 79 11 	call	0x22f2	; 0x22f2 <LCD_OutString6x8>
    280c:	83 e0       	ldi	r24, 0x03	; 3
    280e:	60 e0       	ldi	r22, 0x00	; 0
    2810:	0e 94 12 11 	call	0x2224	; 0x2224 <LCD_gotoXY>
    2814:	80 ed       	ldi	r24, 0xD0	; 208
    2816:	9e e1       	ldi	r25, 0x1E	; 30
    2818:	0e 94 79 11 	call	0x22f2	; 0x22f2 <LCD_OutString6x8>
    281c:	83 e3       	ldi	r24, 0x33	; 51
    281e:	0e 94 62 11 	call	0x22c4	; 0x22c4 <LCD_OutChar6x8>
    2822:	80 91 8e 00 	lds	r24, 0x008E
    2826:	64 e0       	ldi	r22, 0x04	; 4
    2828:	45 e1       	ldi	r20, 0x15	; 21
    282a:	0e 94 f2 11 	call	0x23e4	; 0x23e4 <LCD_OutNumber12x16>
    282e:	48 2f       	mov	r20, r24
    2830:	85 e2       	ldi	r24, 0x25	; 37
    2832:	64 e0       	ldi	r22, 0x04	; 4
    2834:	0e 94 91 11 	call	0x2322	; 0x2322 <LCD_OutChar12x16>
    2838:	1f 91       	pop	r17
    283a:	08 95       	ret

0000283c <ExecuteButton>:
    283c:	80 91 60 00 	lds	r24, 0x0060
    2840:	83 ff       	sbrs	r24, 3
    2842:	03 c0       	rjmp	.+6      	; 0x284a <ExecuteButton+0xe>
    2844:	85 e0       	ldi	r24, 0x05	; 5
    2846:	80 93 64 00 	sts	0x0064, r24
    284a:	80 91 61 00 	lds	r24, 0x0061
    284e:	80 ff       	sbrs	r24, 0
    2850:	22 c0       	rjmp	.+68     	; 0x2896 <ExecuteButton+0x5a>
    2852:	80 91 60 00 	lds	r24, 0x0060
    2856:	83 fd       	sbrc	r24, 3
    2858:	0c c0       	rjmp	.+24     	; 0x2872 <ExecuteButton+0x36>
    285a:	80 91 60 00 	lds	r24, 0x0060
    285e:	88 60       	ori	r24, 0x08	; 8
    2860:	80 93 60 00 	sts	0x0060, r24
    2864:	10 92 63 00 	sts	0x0063, r1
    2868:	96 98       	cbi	0x12, 6	; 18
    286a:	85 e0       	ldi	r24, 0x05	; 5
    286c:	80 93 64 00 	sts	0x0064, r24
    2870:	0b c0       	rjmp	.+22     	; 0x2888 <ExecuteButton+0x4c>
    2872:	80 91 63 00 	lds	r24, 0x0063
    2876:	8f 5f       	subi	r24, 0xFF	; 255
    2878:	80 93 63 00 	sts	0x0063, r24
    287c:	80 91 63 00 	lds	r24, 0x0063
    2880:	8a 30       	cpi	r24, 0x0A	; 10
    2882:	11 f4       	brne	.+4      	; 0x2888 <ExecuteButton+0x4c>
    2884:	10 92 63 00 	sts	0x0063, r1
    2888:	0e 94 fb 12 	call	0x25f6	; 0x25f6 <OutMenuToLCD>
    288c:	80 91 61 00 	lds	r24, 0x0061
    2890:	8e 7f       	andi	r24, 0xFE	; 254
    2892:	80 93 61 00 	sts	0x0061, r24
    2896:	80 91 61 00 	lds	r24, 0x0061
    289a:	81 ff       	sbrs	r24, 1
    289c:	d5 c0       	rjmp	.+426    	; 0x2a48 <ExecuteButton+0x20c>
    289e:	80 91 60 00 	lds	r24, 0x0060
    28a2:	83 fd       	sbrc	r24, 3
    28a4:	05 c0       	rjmp	.+10     	; 0x28b0 <ExecuteButton+0x74>
    28a6:	81 e0       	ldi	r24, 0x01	; 1
    28a8:	80 93 9a 00 	sts	0x009A, r24
    28ac:	96 98       	cbi	0x12, 6	; 18
    28ae:	c7 c0       	rjmp	.+398    	; 0x2a3e <ExecuteButton+0x202>
    28b0:	80 91 63 00 	lds	r24, 0x0063
    28b4:	84 30       	cpi	r24, 0x04	; 4
    28b6:	09 f4       	brne	.+2      	; 0x28ba <ExecuteButton+0x7e>
    28b8:	4b c0       	rjmp	.+150    	; 0x2950 <ExecuteButton+0x114>
    28ba:	85 30       	cpi	r24, 0x05	; 5
    28bc:	50 f4       	brcc	.+20     	; 0x28d2 <ExecuteButton+0x96>
    28be:	81 30       	cpi	r24, 0x01	; 1
    28c0:	31 f1       	breq	.+76     	; 0x290e <ExecuteButton+0xd2>
    28c2:	81 30       	cpi	r24, 0x01	; 1
    28c4:	c8 f0       	brcs	.+50     	; 0x28f8 <ExecuteButton+0xbc>
    28c6:	82 30       	cpi	r24, 0x02	; 2
    28c8:	69 f1       	breq	.+90     	; 0x2924 <ExecuteButton+0xe8>
    28ca:	83 30       	cpi	r24, 0x03	; 3
    28cc:	09 f0       	breq	.+2      	; 0x28d0 <ExecuteButton+0x94>
    28ce:	b5 c0       	rjmp	.+362    	; 0x2a3a <ExecuteButton+0x1fe>
    28d0:	34 c0       	rjmp	.+104    	; 0x293a <ExecuteButton+0xfe>
    28d2:	87 30       	cpi	r24, 0x07	; 7
    28d4:	09 f4       	brne	.+2      	; 0x28d8 <ExecuteButton+0x9c>
    28d6:	94 c0       	rjmp	.+296    	; 0x2a00 <ExecuteButton+0x1c4>
    28d8:	88 30       	cpi	r24, 0x08	; 8
    28da:	38 f4       	brcc	.+14     	; 0x28ea <ExecuteButton+0xae>
    28dc:	85 30       	cpi	r24, 0x05	; 5
    28de:	09 f4       	brne	.+2      	; 0x28e2 <ExecuteButton+0xa6>
    28e0:	5d c0       	rjmp	.+186    	; 0x299c <ExecuteButton+0x160>
    28e2:	86 30       	cpi	r24, 0x06	; 6
    28e4:	09 f0       	breq	.+2      	; 0x28e8 <ExecuteButton+0xac>
    28e6:	a9 c0       	rjmp	.+338    	; 0x2a3a <ExecuteButton+0x1fe>
    28e8:	81 c0       	rjmp	.+258    	; 0x29ec <ExecuteButton+0x1b0>
    28ea:	88 30       	cpi	r24, 0x08	; 8
    28ec:	09 f4       	brne	.+2      	; 0x28f0 <ExecuteButton+0xb4>
    28ee:	92 c0       	rjmp	.+292    	; 0x2a14 <ExecuteButton+0x1d8>
    28f0:	89 30       	cpi	r24, 0x09	; 9
    28f2:	09 f0       	breq	.+2      	; 0x28f6 <ExecuteButton+0xba>
    28f4:	a2 c0       	rjmp	.+324    	; 0x2a3a <ExecuteButton+0x1fe>
    28f6:	98 c0       	rjmp	.+304    	; 0x2a28 <ExecuteButton+0x1ec>
    28f8:	80 91 8f 00 	lds	r24, 0x008F
    28fc:	8e 31       	cpi	r24, 0x1E	; 30
    28fe:	09 f4       	brne	.+2      	; 0x2902 <ExecuteButton+0xc6>
    2900:	9c c0       	rjmp	.+312    	; 0x2a3a <ExecuteButton+0x1fe>
    2902:	80 91 8f 00 	lds	r24, 0x008F
    2906:	8f 5f       	subi	r24, 0xFF	; 255
    2908:	80 93 8f 00 	sts	0x008F, r24
    290c:	96 c0       	rjmp	.+300    	; 0x2a3a <ExecuteButton+0x1fe>
    290e:	80 91 9c 00 	lds	r24, 0x009C
    2912:	85 30       	cpi	r24, 0x05	; 5
    2914:	09 f4       	brne	.+2      	; 0x2918 <ExecuteButton+0xdc>
    2916:	91 c0       	rjmp	.+290    	; 0x2a3a <ExecuteButton+0x1fe>
    2918:	80 91 9c 00 	lds	r24, 0x009C
    291c:	8f 5f       	subi	r24, 0xFF	; 255
    291e:	80 93 9c 00 	sts	0x009C, r24
    2922:	8b c0       	rjmp	.+278    	; 0x2a3a <ExecuteButton+0x1fe>
    2924:	80 91 90 00 	lds	r24, 0x0090
    2928:	8c 38       	cpi	r24, 0x8C	; 140
    292a:	09 f4       	brne	.+2      	; 0x292e <ExecuteButton+0xf2>
    292c:	86 c0       	rjmp	.+268    	; 0x2a3a <ExecuteButton+0x1fe>
    292e:	80 91 90 00 	lds	r24, 0x0090
    2932:	8f 5f       	subi	r24, 0xFF	; 255
    2934:	80 93 90 00 	sts	0x0090, r24
    2938:	80 c0       	rjmp	.+256    	; 0x2a3a <ExecuteButton+0x1fe>
    293a:	80 91 9b 00 	lds	r24, 0x009B
    293e:	84 31       	cpi	r24, 0x14	; 20
    2940:	09 f4       	brne	.+2      	; 0x2944 <ExecuteButton+0x108>
    2942:	7b c0       	rjmp	.+246    	; 0x2a3a <ExecuteButton+0x1fe>
    2944:	80 91 9b 00 	lds	r24, 0x009B
    2948:	8f 5f       	subi	r24, 0xFF	; 255
    294a:	80 93 9b 00 	sts	0x009B, r24
    294e:	75 c0       	rjmp	.+234    	; 0x2a3a <ExecuteButton+0x1fe>
    2950:	80 91 9d 00 	lds	r24, 0x009D
    2954:	90 91 9e 00 	lds	r25, 0x009E
    2958:	88 55       	subi	r24, 0x58	; 88
    295a:	92 40       	sbci	r25, 0x02	; 2
    295c:	09 f4       	brne	.+2      	; 0x2960 <ExecuteButton+0x124>
    295e:	6d c0       	rjmp	.+218    	; 0x2a3a <ExecuteButton+0x1fe>
    2960:	80 91 9d 00 	lds	r24, 0x009D
    2964:	90 91 9e 00 	lds	r25, 0x009E
    2968:	0a 96       	adiw	r24, 0x0a	; 10
    296a:	90 93 9e 00 	sts	0x009E, r25
    296e:	80 93 9d 00 	sts	0x009D, r24
    2972:	20 91 96 00 	lds	r18, 0x0096
    2976:	30 91 97 00 	lds	r19, 0x0097
    297a:	80 91 9d 00 	lds	r24, 0x009D
    297e:	90 91 9e 00 	lds	r25, 0x009E
    2982:	8c 59       	subi	r24, 0x9C	; 156
    2984:	9f 4f       	sbci	r25, 0xFF	; 255
    2986:	28 17       	cp	r18, r24
    2988:	39 07       	cpc	r19, r25
    298a:	08 f0       	brcs	.+2      	; 0x298e <ExecuteButton+0x152>
    298c:	56 c0       	rjmp	.+172    	; 0x2a3a <ExecuteButton+0x1fe>
    298e:	80 91 9d 00 	lds	r24, 0x009D
    2992:	90 91 9e 00 	lds	r25, 0x009E
    2996:	8c 59       	subi	r24, 0x9C	; 156
    2998:	9f 4f       	sbci	r25, 0xFF	; 255
    299a:	23 c0       	rjmp	.+70     	; 0x29e2 <ExecuteButton+0x1a6>
    299c:	20 91 96 00 	lds	r18, 0x0096
    29a0:	30 91 97 00 	lds	r19, 0x0097
    29a4:	80 91 9d 00 	lds	r24, 0x009D
    29a8:	90 91 9e 00 	lds	r25, 0x009E
    29ac:	8c 59       	subi	r24, 0x9C	; 156
    29ae:	9f 4f       	sbci	r25, 0xFF	; 255
    29b0:	28 17       	cp	r18, r24
    29b2:	39 07       	cpc	r19, r25
    29b4:	50 f4       	brcc	.+20     	; 0x29ca <ExecuteButton+0x18e>
    29b6:	80 91 9d 00 	lds	r24, 0x009D
    29ba:	90 91 9e 00 	lds	r25, 0x009E
    29be:	8c 59       	subi	r24, 0x9C	; 156
    29c0:	9f 4f       	sbci	r25, 0xFF	; 255
    29c2:	90 93 97 00 	sts	0x0097, r25
    29c6:	80 93 96 00 	sts	0x0096, r24
    29ca:	80 91 96 00 	lds	r24, 0x0096
    29ce:	90 91 97 00 	lds	r25, 0x0097
    29d2:	8e 5d       	subi	r24, 0xDE	; 222
    29d4:	93 40       	sbci	r25, 0x03	; 3
    29d6:	89 f1       	breq	.+98     	; 0x2a3a <ExecuteButton+0x1fe>
    29d8:	80 91 96 00 	lds	r24, 0x0096
    29dc:	90 91 97 00 	lds	r25, 0x0097
    29e0:	0a 96       	adiw	r24, 0x0a	; 10
    29e2:	90 93 97 00 	sts	0x0097, r25
    29e6:	80 93 96 00 	sts	0x0096, r24
    29ea:	27 c0       	rjmp	.+78     	; 0x2a3a <ExecuteButton+0x1fe>
    29ec:	80 91 98 00 	lds	r24, 0x0098
    29f0:	84 31       	cpi	r24, 0x14	; 20
    29f2:	19 f1       	breq	.+70     	; 0x2a3a <ExecuteButton+0x1fe>
    29f4:	80 91 98 00 	lds	r24, 0x0098
    29f8:	8f 5f       	subi	r24, 0xFF	; 255
    29fa:	80 93 98 00 	sts	0x0098, r24
    29fe:	1d c0       	rjmp	.+58     	; 0x2a3a <ExecuteButton+0x1fe>
    2a00:	80 91 99 00 	lds	r24, 0x0099
    2a04:	84 31       	cpi	r24, 0x14	; 20
    2a06:	c9 f0       	breq	.+50     	; 0x2a3a <ExecuteButton+0x1fe>
    2a08:	80 91 99 00 	lds	r24, 0x0099
    2a0c:	8f 5f       	subi	r24, 0xFF	; 255
    2a0e:	80 93 99 00 	sts	0x0099, r24
    2a12:	13 c0       	rjmp	.+38     	; 0x2a3a <ExecuteButton+0x1fe>
    2a14:	80 91 95 00 	lds	r24, 0x0095
    2a18:	84 31       	cpi	r24, 0x14	; 20
    2a1a:	79 f0       	breq	.+30     	; 0x2a3a <ExecuteButton+0x1fe>
    2a1c:	80 91 95 00 	lds	r24, 0x0095
    2a20:	8f 5f       	subi	r24, 0xFF	; 255
    2a22:	80 93 95 00 	sts	0x0095, r24
    2a26:	09 c0       	rjmp	.+18     	; 0x2a3a <ExecuteButton+0x1fe>
    2a28:	80 91 8e 00 	lds	r24, 0x008E
    2a2c:	84 31       	cpi	r24, 0x14	; 20
    2a2e:	29 f0       	breq	.+10     	; 0x2a3a <ExecuteButton+0x1fe>
    2a30:	80 91 8e 00 	lds	r24, 0x008E
    2a34:	8f 5f       	subi	r24, 0xFF	; 255
    2a36:	80 93 8e 00 	sts	0x008E, r24
    2a3a:	0e 94 fb 12 	call	0x25f6	; 0x25f6 <OutMenuToLCD>
    2a3e:	80 91 61 00 	lds	r24, 0x0061
    2a42:	8d 7f       	andi	r24, 0xFD	; 253
    2a44:	80 93 61 00 	sts	0x0061, r24
    2a48:	80 91 61 00 	lds	r24, 0x0061
    2a4c:	82 ff       	sbrs	r24, 2
    2a4e:	b6 c0       	rjmp	.+364    	; 0x2bbc <ExecuteButton+0x380>
    2a50:	80 91 60 00 	lds	r24, 0x0060
    2a54:	83 fd       	sbrc	r24, 3
    2a56:	04 c0       	rjmp	.+8      	; 0x2a60 <ExecuteButton+0x224>
    2a58:	10 92 9a 00 	sts	0x009A, r1
    2a5c:	96 9a       	sbi	0x12, 6	; 18
    2a5e:	a9 c0       	rjmp	.+338    	; 0x2bb2 <ExecuteButton+0x376>
    2a60:	80 91 63 00 	lds	r24, 0x0063
    2a64:	84 30       	cpi	r24, 0x04	; 4
    2a66:	09 f4       	brne	.+2      	; 0x2a6a <ExecuteButton+0x22e>
    2a68:	4b c0       	rjmp	.+150    	; 0x2b00 <ExecuteButton+0x2c4>
    2a6a:	85 30       	cpi	r24, 0x05	; 5
    2a6c:	50 f4       	brcc	.+20     	; 0x2a82 <ExecuteButton+0x246>
    2a6e:	81 30       	cpi	r24, 0x01	; 1
    2a70:	31 f1       	breq	.+76     	; 0x2abe <ExecuteButton+0x282>
    2a72:	81 30       	cpi	r24, 0x01	; 1
    2a74:	c8 f0       	brcs	.+50     	; 0x2aa8 <ExecuteButton+0x26c>
    2a76:	82 30       	cpi	r24, 0x02	; 2
    2a78:	69 f1       	breq	.+90     	; 0x2ad4 <ExecuteButton+0x298>
    2a7a:	83 30       	cpi	r24, 0x03	; 3
    2a7c:	09 f0       	breq	.+2      	; 0x2a80 <ExecuteButton+0x244>
    2a7e:	97 c0       	rjmp	.+302    	; 0x2bae <ExecuteButton+0x372>
    2a80:	34 c0       	rjmp	.+104    	; 0x2aea <ExecuteButton+0x2ae>
    2a82:	87 30       	cpi	r24, 0x07	; 7
    2a84:	09 f4       	brne	.+2      	; 0x2a88 <ExecuteButton+0x24c>
    2a86:	76 c0       	rjmp	.+236    	; 0x2b74 <ExecuteButton+0x338>
    2a88:	88 30       	cpi	r24, 0x08	; 8
    2a8a:	38 f4       	brcc	.+14     	; 0x2a9a <ExecuteButton+0x25e>
    2a8c:	85 30       	cpi	r24, 0x05	; 5
    2a8e:	09 f4       	brne	.+2      	; 0x2a92 <ExecuteButton+0x256>
    2a90:	49 c0       	rjmp	.+146    	; 0x2b24 <ExecuteButton+0x2e8>
    2a92:	86 30       	cpi	r24, 0x06	; 6
    2a94:	09 f0       	breq	.+2      	; 0x2a98 <ExecuteButton+0x25c>
    2a96:	8b c0       	rjmp	.+278    	; 0x2bae <ExecuteButton+0x372>
    2a98:	63 c0       	rjmp	.+198    	; 0x2b60 <ExecuteButton+0x324>
    2a9a:	88 30       	cpi	r24, 0x08	; 8
    2a9c:	09 f4       	brne	.+2      	; 0x2aa0 <ExecuteButton+0x264>
    2a9e:	74 c0       	rjmp	.+232    	; 0x2b88 <ExecuteButton+0x34c>
    2aa0:	89 30       	cpi	r24, 0x09	; 9
    2aa2:	09 f0       	breq	.+2      	; 0x2aa6 <ExecuteButton+0x26a>
    2aa4:	84 c0       	rjmp	.+264    	; 0x2bae <ExecuteButton+0x372>
    2aa6:	7a c0       	rjmp	.+244    	; 0x2b9c <ExecuteButton+0x360>
    2aa8:	80 91 8f 00 	lds	r24, 0x008F
    2aac:	8a 30       	cpi	r24, 0x0A	; 10
    2aae:	09 f4       	brne	.+2      	; 0x2ab2 <ExecuteButton+0x276>
    2ab0:	7e c0       	rjmp	.+252    	; 0x2bae <ExecuteButton+0x372>
    2ab2:	80 91 8f 00 	lds	r24, 0x008F
    2ab6:	81 50       	subi	r24, 0x01	; 1
    2ab8:	80 93 8f 00 	sts	0x008F, r24
    2abc:	78 c0       	rjmp	.+240    	; 0x2bae <ExecuteButton+0x372>
    2abe:	80 91 9c 00 	lds	r24, 0x009C
    2ac2:	81 30       	cpi	r24, 0x01	; 1
    2ac4:	09 f4       	brne	.+2      	; 0x2ac8 <ExecuteButton+0x28c>
    2ac6:	73 c0       	rjmp	.+230    	; 0x2bae <ExecuteButton+0x372>
    2ac8:	80 91 9c 00 	lds	r24, 0x009C
    2acc:	81 50       	subi	r24, 0x01	; 1
    2ace:	80 93 9c 00 	sts	0x009C, r24
    2ad2:	6d c0       	rjmp	.+218    	; 0x2bae <ExecuteButton+0x372>
    2ad4:	80 91 90 00 	lds	r24, 0x0090
    2ad8:	87 33       	cpi	r24, 0x37	; 55
    2ada:	09 f4       	brne	.+2      	; 0x2ade <ExecuteButton+0x2a2>
    2adc:	68 c0       	rjmp	.+208    	; 0x2bae <ExecuteButton+0x372>
    2ade:	80 91 90 00 	lds	r24, 0x0090
    2ae2:	81 50       	subi	r24, 0x01	; 1
    2ae4:	80 93 90 00 	sts	0x0090, r24
    2ae8:	62 c0       	rjmp	.+196    	; 0x2bae <ExecuteButton+0x372>
    2aea:	80 91 9b 00 	lds	r24, 0x009B
    2aee:	81 30       	cpi	r24, 0x01	; 1
    2af0:	09 f4       	brne	.+2      	; 0x2af4 <ExecuteButton+0x2b8>
    2af2:	5d c0       	rjmp	.+186    	; 0x2bae <ExecuteButton+0x372>
    2af4:	80 91 9b 00 	lds	r24, 0x009B
    2af8:	81 50       	subi	r24, 0x01	; 1
    2afa:	80 93 9b 00 	sts	0x009B, r24
    2afe:	57 c0       	rjmp	.+174    	; 0x2bae <ExecuteButton+0x372>
    2b00:	80 91 9d 00 	lds	r24, 0x009D
    2b04:	90 91 9e 00 	lds	r25, 0x009E
    2b08:	88 3c       	cpi	r24, 0xC8	; 200
    2b0a:	91 05       	cpc	r25, r1
    2b0c:	09 f4       	brne	.+2      	; 0x2b10 <ExecuteButton+0x2d4>
    2b0e:	4f c0       	rjmp	.+158    	; 0x2bae <ExecuteButton+0x372>
    2b10:	80 91 9d 00 	lds	r24, 0x009D
    2b14:	90 91 9e 00 	lds	r25, 0x009E
    2b18:	0a 97       	sbiw	r24, 0x0a	; 10
    2b1a:	90 93 9e 00 	sts	0x009E, r25
    2b1e:	80 93 9d 00 	sts	0x009D, r24
    2b22:	45 c0       	rjmp	.+138    	; 0x2bae <ExecuteButton+0x372>
    2b24:	20 91 96 00 	lds	r18, 0x0096
    2b28:	30 91 97 00 	lds	r19, 0x0097
    2b2c:	80 91 9d 00 	lds	r24, 0x009D
    2b30:	90 91 9e 00 	lds	r25, 0x009E
    2b34:	8c 59       	subi	r24, 0x9C	; 156
    2b36:	9f 4f       	sbci	r25, 0xFF	; 255
    2b38:	82 17       	cp	r24, r18
    2b3a:	93 07       	cpc	r25, r19
    2b3c:	38 f0       	brcs	.+14     	; 0x2b4c <ExecuteButton+0x310>
    2b3e:	80 91 9d 00 	lds	r24, 0x009D
    2b42:	90 91 9e 00 	lds	r25, 0x009E
    2b46:	8c 59       	subi	r24, 0x9C	; 156
    2b48:	9f 4f       	sbci	r25, 0xFF	; 255
    2b4a:	05 c0       	rjmp	.+10     	; 0x2b56 <ExecuteButton+0x31a>
    2b4c:	80 91 96 00 	lds	r24, 0x0096
    2b50:	90 91 97 00 	lds	r25, 0x0097
    2b54:	0a 97       	sbiw	r24, 0x0a	; 10
    2b56:	90 93 97 00 	sts	0x0097, r25
    2b5a:	80 93 96 00 	sts	0x0096, r24
    2b5e:	27 c0       	rjmp	.+78     	; 0x2bae <ExecuteButton+0x372>
    2b60:	80 91 98 00 	lds	r24, 0x0098
    2b64:	85 30       	cpi	r24, 0x05	; 5
    2b66:	19 f1       	breq	.+70     	; 0x2bae <ExecuteButton+0x372>
    2b68:	80 91 98 00 	lds	r24, 0x0098
    2b6c:	81 50       	subi	r24, 0x01	; 1
    2b6e:	80 93 98 00 	sts	0x0098, r24
    2b72:	1d c0       	rjmp	.+58     	; 0x2bae <ExecuteButton+0x372>
    2b74:	80 91 99 00 	lds	r24, 0x0099
    2b78:	88 23       	and	r24, r24
    2b7a:	c9 f0       	breq	.+50     	; 0x2bae <ExecuteButton+0x372>
    2b7c:	80 91 99 00 	lds	r24, 0x0099
    2b80:	81 50       	subi	r24, 0x01	; 1
    2b82:	80 93 99 00 	sts	0x0099, r24
    2b86:	13 c0       	rjmp	.+38     	; 0x2bae <ExecuteButton+0x372>
    2b88:	80 91 95 00 	lds	r24, 0x0095
    2b8c:	88 23       	and	r24, r24
    2b8e:	79 f0       	breq	.+30     	; 0x2bae <ExecuteButton+0x372>
    2b90:	80 91 95 00 	lds	r24, 0x0095
    2b94:	81 50       	subi	r24, 0x01	; 1
    2b96:	80 93 95 00 	sts	0x0095, r24
    2b9a:	09 c0       	rjmp	.+18     	; 0x2bae <ExecuteButton+0x372>
    2b9c:	80 91 8e 00 	lds	r24, 0x008E
    2ba0:	88 23       	and	r24, r24
    2ba2:	29 f0       	breq	.+10     	; 0x2bae <ExecuteButton+0x372>
    2ba4:	80 91 8e 00 	lds	r24, 0x008E
    2ba8:	81 50       	subi	r24, 0x01	; 1
    2baa:	80 93 8e 00 	sts	0x008E, r24
    2bae:	0e 94 fb 12 	call	0x25f6	; 0x25f6 <OutMenuToLCD>
    2bb2:	80 91 61 00 	lds	r24, 0x0061
    2bb6:	8b 7f       	andi	r24, 0xFB	; 251
    2bb8:	80 93 61 00 	sts	0x0061, r24
    2bbc:	08 95       	ret

00002bbe <CalculatePercent>:
    2bbe:	90 e0       	ldi	r25, 0x00	; 0
    2bc0:	aa 27       	eor	r26, r26
    2bc2:	97 fd       	sbrc	r25, 7
    2bc4:	a0 95       	com	r26
    2bc6:	ba 2f       	mov	r27, r26
    2bc8:	bc 01       	movw	r22, r24
    2bca:	cd 01       	movw	r24, r26
    2bcc:	0e 94 12 1d 	call	0x3a24	; 0x3a24 <__floatsisf>
    2bd0:	20 e0       	ldi	r18, 0x00	; 0
    2bd2:	30 e0       	ldi	r19, 0x00	; 0
    2bd4:	48 ec       	ldi	r20, 0xC8	; 200
    2bd6:	52 e4       	ldi	r21, 0x42	; 66
    2bd8:	0e 94 a2 1d 	call	0x3b44	; 0x3b44 <__mulsf3>
    2bdc:	20 e0       	ldi	r18, 0x00	; 0
    2bde:	30 e0       	ldi	r19, 0x00	; 0
    2be0:	4f e7       	ldi	r20, 0x7F	; 127
    2be2:	53 e4       	ldi	r21, 0x43	; 67
    2be4:	0e 94 7c 1c 	call	0x38f8	; 0x38f8 <__divsf3>
    2be8:	0e 94 e4 1c 	call	0x39c8	; 0x39c8 <__fixunssfsi>
    2bec:	dc 01       	movw	r26, r24
    2bee:	cb 01       	movw	r24, r22
    2bf0:	08 95       	ret

00002bf2 <OutTemperatureTC>:
    2bf2:	0f 93       	push	r16
    2bf4:	1f 93       	push	r17
    2bf6:	cf 93       	push	r28
    2bf8:	df 93       	push	r29
    2bfa:	eb 01       	movw	r28, r22
    2bfc:	81 30       	cpi	r24, 0x01	; 1
    2bfe:	51 f0       	breq	.+20     	; 0x2c14 <OutTemperatureTC+0x22>
    2c00:	81 30       	cpi	r24, 0x01	; 1
    2c02:	28 f0       	brcs	.+10     	; 0x2c0e <OutTemperatureTC+0x1c>
    2c04:	82 30       	cpi	r24, 0x02	; 2
    2c06:	a9 f1       	breq	.+106    	; 0x2c72 <OutTemperatureTC+0x80>
    2c08:	83 30       	cpi	r24, 0x03	; 3
    2c0a:	c9 f5       	brne	.+114    	; 0x2c7e <OutTemperatureTC+0x8c>
    2c0c:	35 c0       	rjmp	.+106    	; 0x2c78 <OutTemperatureTC+0x86>
    2c0e:	8b ef       	ldi	r24, 0xFB	; 251
    2c10:	9e e1       	ldi	r25, 0x1E	; 30
    2c12:	37 c0       	rjmp	.+110    	; 0x2c82 <OutTemperatureTC+0x90>
    2c14:	cb 01       	movw	r24, r22
    2c16:	64 e6       	ldi	r22, 0x64	; 100
    2c18:	70 e0       	ldi	r23, 0x00	; 0
    2c1a:	0e 94 35 1e 	call	0x3c6a	; 0x3c6a <__udivmodhi4>
    2c1e:	66 23       	and	r22, r22
    2c20:	11 f4       	brne	.+4      	; 0x2c26 <OutTemperatureTC+0x34>
    2c22:	20 e0       	ldi	r18, 0x00	; 0
    2c24:	05 c0       	rjmp	.+10     	; 0x2c30 <OutTemperatureTC+0x3e>
    2c26:	86 2f       	mov	r24, r22
    2c28:	80 5d       	subi	r24, 0xD0	; 208
    2c2a:	0e 94 62 11 	call	0x22c4	; 0x22c4 <LCD_OutChar6x8>
    2c2e:	21 e0       	ldi	r18, 0x01	; 1
    2c30:	ce 01       	movw	r24, r28
    2c32:	64 e6       	ldi	r22, 0x64	; 100
    2c34:	70 e0       	ldi	r23, 0x00	; 0
    2c36:	0e 94 35 1e 	call	0x3c6a	; 0x3c6a <__udivmodhi4>
    2c3a:	18 2f       	mov	r17, r24
    2c3c:	09 2f       	mov	r16, r25
    2c3e:	6a e0       	ldi	r22, 0x0A	; 10
    2c40:	70 e0       	ldi	r23, 0x00	; 0
    2c42:	0e 94 35 1e 	call	0x3c6a	; 0x3c6a <__udivmodhi4>
    2c46:	66 23       	and	r22, r22
    2c48:	19 f0       	breq	.+6      	; 0x2c50 <OutTemperatureTC+0x5e>
    2c4a:	86 2f       	mov	r24, r22
    2c4c:	80 5d       	subi	r24, 0xD0	; 208
    2c4e:	03 c0       	rjmp	.+6      	; 0x2c56 <OutTemperatureTC+0x64>
    2c50:	21 30       	cpi	r18, 0x01	; 1
    2c52:	19 f4       	brne	.+6      	; 0x2c5a <OutTemperatureTC+0x68>
    2c54:	80 e3       	ldi	r24, 0x30	; 48
    2c56:	0e 94 62 11 	call	0x22c4	; 0x22c4 <LCD_OutChar6x8>
    2c5a:	81 2f       	mov	r24, r17
    2c5c:	90 2f       	mov	r25, r16
    2c5e:	6a e0       	ldi	r22, 0x0A	; 10
    2c60:	70 e0       	ldi	r23, 0x00	; 0
    2c62:	0e 94 35 1e 	call	0x3c6a	; 0x3c6a <__udivmodhi4>
    2c66:	80 5d       	subi	r24, 0xD0	; 208
    2c68:	0e 94 62 11 	call	0x22c4	; 0x22c4 <LCD_OutChar6x8>
    2c6c:	80 e1       	ldi	r24, 0x10	; 16
    2c6e:	9f e1       	ldi	r25, 0x1F	; 31
    2c70:	08 c0       	rjmp	.+16     	; 0x2c82 <OutTemperatureTC+0x90>
    2c72:	8f ef       	ldi	r24, 0xFF	; 255
    2c74:	9e e1       	ldi	r25, 0x1E	; 30
    2c76:	05 c0       	rjmp	.+10     	; 0x2c82 <OutTemperatureTC+0x90>
    2c78:	85 e0       	ldi	r24, 0x05	; 5
    2c7a:	9f e1       	ldi	r25, 0x1F	; 31
    2c7c:	02 c0       	rjmp	.+4      	; 0x2c82 <OutTemperatureTC+0x90>
    2c7e:	8a e0       	ldi	r24, 0x0A	; 10
    2c80:	9f e1       	ldi	r25, 0x1F	; 31
    2c82:	0e 94 79 11 	call	0x22f2	; 0x22f2 <LCD_OutString6x8>
    2c86:	df 91       	pop	r29
    2c88:	cf 91       	pop	r28
    2c8a:	1f 91       	pop	r17
    2c8c:	0f 91       	pop	r16
    2c8e:	08 95       	ret

00002c90 <OutTemperatureDS>:
    2c90:	cf 92       	push	r12
    2c92:	df 92       	push	r13
    2c94:	ef 92       	push	r14
    2c96:	ff 92       	push	r15
    2c98:	1f 93       	push	r17
    2c9a:	20 91 91 00 	lds	r18, 0x0091
    2c9e:	30 91 92 00 	lds	r19, 0x0092
    2ca2:	40 91 93 00 	lds	r20, 0x0093
    2ca6:	50 91 94 00 	lds	r21, 0x0094
    2caa:	c0 90 91 00 	lds	r12, 0x0091
    2cae:	d0 90 92 00 	lds	r13, 0x0092
    2cb2:	e0 90 93 00 	lds	r14, 0x0093
    2cb6:	f0 90 94 00 	lds	r15, 0x0094
    2cba:	80 91 65 00 	lds	r24, 0x0065
    2cbe:	81 30       	cpi	r24, 0x01	; 1
    2cc0:	09 f0       	breq	.+2      	; 0x2cc4 <OutTemperatureDS+0x34>
    2cc2:	56 c0       	rjmp	.+172    	; 0x2d70 <OutTemperatureDS+0xe0>
    2cc4:	ca 01       	movw	r24, r20
    2cc6:	b9 01       	movw	r22, r18
    2cc8:	0e 94 e4 1c 	call	0x39c8	; 0x39c8 <__fixunssfsi>
    2ccc:	dc 01       	movw	r26, r24
    2cce:	cb 01       	movw	r24, r22
    2cd0:	18 2f       	mov	r17, r24
    2cd2:	64 e6       	ldi	r22, 0x64	; 100
    2cd4:	0e 94 29 1e 	call	0x3c52	; 0x3c52 <__udivmodqi4>
    2cd8:	88 23       	and	r24, r24
    2cda:	11 f4       	brne	.+4      	; 0x2ce0 <OutTemperatureDS+0x50>
    2cdc:	20 e0       	ldi	r18, 0x00	; 0
    2cde:	04 c0       	rjmp	.+8      	; 0x2ce8 <OutTemperatureDS+0x58>
    2ce0:	80 5d       	subi	r24, 0xD0	; 208
    2ce2:	0e 94 62 11 	call	0x22c4	; 0x22c4 <LCD_OutChar6x8>
    2ce6:	21 e0       	ldi	r18, 0x01	; 1
    2ce8:	81 2f       	mov	r24, r17
    2cea:	64 e6       	ldi	r22, 0x64	; 100
    2cec:	0e 94 29 1e 	call	0x3c52	; 0x3c52 <__udivmodqi4>
    2cf0:	19 2f       	mov	r17, r25
    2cf2:	89 2f       	mov	r24, r25
    2cf4:	6a e0       	ldi	r22, 0x0A	; 10
    2cf6:	0e 94 29 1e 	call	0x3c52	; 0x3c52 <__udivmodqi4>
    2cfa:	88 23       	and	r24, r24
    2cfc:	11 f0       	breq	.+4      	; 0x2d02 <OutTemperatureDS+0x72>
    2cfe:	80 5d       	subi	r24, 0xD0	; 208
    2d00:	03 c0       	rjmp	.+6      	; 0x2d08 <OutTemperatureDS+0x78>
    2d02:	21 30       	cpi	r18, 0x01	; 1
    2d04:	19 f4       	brne	.+6      	; 0x2d0c <OutTemperatureDS+0x7c>
    2d06:	80 e3       	ldi	r24, 0x30	; 48
    2d08:	0e 94 62 11 	call	0x22c4	; 0x22c4 <LCD_OutChar6x8>
    2d0c:	81 2f       	mov	r24, r17
    2d0e:	6a e0       	ldi	r22, 0x0A	; 10
    2d10:	0e 94 29 1e 	call	0x3c52	; 0x3c52 <__udivmodqi4>
    2d14:	89 2f       	mov	r24, r25
    2d16:	80 5d       	subi	r24, 0xD0	; 208
    2d18:	0e 94 62 11 	call	0x22c4	; 0x22c4 <LCD_OutChar6x8>
    2d1c:	8e e2       	ldi	r24, 0x2E	; 46
    2d1e:	0e 94 62 11 	call	0x22c4	; 0x22c4 <LCD_OutChar6x8>
    2d22:	60 91 91 00 	lds	r22, 0x0091
    2d26:	70 91 92 00 	lds	r23, 0x0092
    2d2a:	80 91 93 00 	lds	r24, 0x0093
    2d2e:	90 91 94 00 	lds	r25, 0x0094
    2d32:	0e 94 e4 1c 	call	0x39c8	; 0x39c8 <__fixunssfsi>
    2d36:	70 e0       	ldi	r23, 0x00	; 0
    2d38:	88 27       	eor	r24, r24
    2d3a:	77 fd       	sbrc	r23, 7
    2d3c:	80 95       	com	r24
    2d3e:	98 2f       	mov	r25, r24
    2d40:	0e 94 12 1d 	call	0x3a24	; 0x3a24 <__floatsisf>
    2d44:	9b 01       	movw	r18, r22
    2d46:	ac 01       	movw	r20, r24
    2d48:	c7 01       	movw	r24, r14
    2d4a:	b6 01       	movw	r22, r12
    2d4c:	0e 94 17 1c 	call	0x382e	; 0x382e <__subsf3>
    2d50:	20 e0       	ldi	r18, 0x00	; 0
    2d52:	30 e0       	ldi	r19, 0x00	; 0
    2d54:	40 e2       	ldi	r20, 0x20	; 32
    2d56:	51 e4       	ldi	r21, 0x41	; 65
    2d58:	0e 94 a2 1d 	call	0x3b44	; 0x3b44 <__mulsf3>
    2d5c:	0e 94 e4 1c 	call	0x39c8	; 0x39c8 <__fixunssfsi>
    2d60:	dc 01       	movw	r26, r24
    2d62:	cb 01       	movw	r24, r22
    2d64:	80 5d       	subi	r24, 0xD0	; 208
    2d66:	0e 94 62 11 	call	0x22c4	; 0x22c4 <LCD_OutChar6x8>
    2d6a:	80 e1       	ldi	r24, 0x10	; 16
    2d6c:	9f e1       	ldi	r25, 0x1F	; 31
    2d6e:	02 c0       	rjmp	.+4      	; 0x2d74 <OutTemperatureDS+0xe4>
    2d70:	8f ef       	ldi	r24, 0xFF	; 255
    2d72:	9e e1       	ldi	r25, 0x1E	; 30
    2d74:	0e 94 79 11 	call	0x22f2	; 0x22f2 <LCD_OutString6x8>
    2d78:	1f 91       	pop	r17
    2d7a:	ff 90       	pop	r15
    2d7c:	ef 90       	pop	r14
    2d7e:	df 90       	pop	r13
    2d80:	cf 90       	pop	r12
    2d82:	08 95       	ret

00002d84 <OutUI8_6x8>:
    2d84:	1f 93       	push	r17
    2d86:	18 2f       	mov	r17, r24
    2d88:	64 e6       	ldi	r22, 0x64	; 100
    2d8a:	0e 94 29 1e 	call	0x3c52	; 0x3c52 <__udivmodqi4>
    2d8e:	88 23       	and	r24, r24
    2d90:	11 f4       	brne	.+4      	; 0x2d96 <OutUI8_6x8+0x12>
    2d92:	20 e0       	ldi	r18, 0x00	; 0
    2d94:	04 c0       	rjmp	.+8      	; 0x2d9e <OutUI8_6x8+0x1a>
    2d96:	80 5d       	subi	r24, 0xD0	; 208
    2d98:	0e 94 62 11 	call	0x22c4	; 0x22c4 <LCD_OutChar6x8>
    2d9c:	21 e0       	ldi	r18, 0x01	; 1
    2d9e:	81 2f       	mov	r24, r17
    2da0:	64 e6       	ldi	r22, 0x64	; 100
    2da2:	0e 94 29 1e 	call	0x3c52	; 0x3c52 <__udivmodqi4>
    2da6:	19 2f       	mov	r17, r25
    2da8:	89 2f       	mov	r24, r25
    2daa:	6a e0       	ldi	r22, 0x0A	; 10
    2dac:	0e 94 29 1e 	call	0x3c52	; 0x3c52 <__udivmodqi4>
    2db0:	88 23       	and	r24, r24
    2db2:	11 f0       	breq	.+4      	; 0x2db8 <OutUI8_6x8+0x34>
    2db4:	80 5d       	subi	r24, 0xD0	; 208
    2db6:	03 c0       	rjmp	.+6      	; 0x2dbe <OutUI8_6x8+0x3a>
    2db8:	21 30       	cpi	r18, 0x01	; 1
    2dba:	19 f4       	brne	.+6      	; 0x2dc2 <OutUI8_6x8+0x3e>
    2dbc:	80 e3       	ldi	r24, 0x30	; 48
    2dbe:	0e 94 62 11 	call	0x22c4	; 0x22c4 <LCD_OutChar6x8>
    2dc2:	81 2f       	mov	r24, r17
    2dc4:	6a e0       	ldi	r22, 0x0A	; 10
    2dc6:	0e 94 29 1e 	call	0x3c52	; 0x3c52 <__udivmodqi4>
    2dca:	89 2f       	mov	r24, r25
    2dcc:	80 5d       	subi	r24, 0xD0	; 208
    2dce:	0e 94 62 11 	call	0x22c4	; 0x22c4 <LCD_OutChar6x8>
    2dd2:	1f 91       	pop	r17
    2dd4:	08 95       	ret

00002dd6 <OutInfoToLCD>:
    2dd6:	80 e0       	ldi	r24, 0x00	; 0
    2dd8:	0e 94 1f 11 	call	0x223e	; 0x223e <LCD_clear>
    2ddc:	80 e0       	ldi	r24, 0x00	; 0
    2dde:	60 e0       	ldi	r22, 0x00	; 0
    2de0:	0e 94 12 11 	call	0x2224	; 0x2224 <LCD_gotoXY>
    2de4:	8d ed       	ldi	r24, 0xDD	; 221
    2de6:	9e e1       	ldi	r25, 0x1E	; 30
    2de8:	0e 94 79 11 	call	0x22f2	; 0x22f2 <LCD_OutString6x8>
    2dec:	0e 94 48 16 	call	0x2c90	; 0x2c90 <OutTemperatureDS>
    2df0:	81 e0       	ldi	r24, 0x01	; 1
    2df2:	60 e0       	ldi	r22, 0x00	; 0
    2df4:	0e 94 12 11 	call	0x2224	; 0x2224 <LCD_gotoXY>
    2df8:	82 ee       	ldi	r24, 0xE2	; 226
    2dfa:	9e e1       	ldi	r25, 0x1E	; 30
    2dfc:	0e 94 79 11 	call	0x22f2	; 0x22f2 <LCD_OutString6x8>
    2e00:	80 91 66 00 	lds	r24, 0x0066
    2e04:	60 91 67 00 	lds	r22, 0x0067
    2e08:	70 91 68 00 	lds	r23, 0x0068
    2e0c:	0e 94 f9 15 	call	0x2bf2	; 0x2bf2 <OutTemperatureTC>
    2e10:	82 e0       	ldi	r24, 0x02	; 2
    2e12:	60 e0       	ldi	r22, 0x00	; 0
    2e14:	0e 94 12 11 	call	0x2224	; 0x2224 <LCD_gotoXY>
    2e18:	87 ee       	ldi	r24, 0xE7	; 231
    2e1a:	9e e1       	ldi	r25, 0x1E	; 30
    2e1c:	0e 94 79 11 	call	0x22f2	; 0x22f2 <LCD_OutString6x8>
    2e20:	80 91 69 00 	lds	r24, 0x0069
    2e24:	60 91 6a 00 	lds	r22, 0x006A
    2e28:	70 91 6b 00 	lds	r23, 0x006B
    2e2c:	0e 94 f9 15 	call	0x2bf2	; 0x2bf2 <OutTemperatureTC>
    2e30:	83 e0       	ldi	r24, 0x03	; 3
    2e32:	60 e0       	ldi	r22, 0x00	; 0
    2e34:	0e 94 12 11 	call	0x2224	; 0x2224 <LCD_gotoXY>
    2e38:	8c ee       	ldi	r24, 0xEC	; 236
    2e3a:	9e e1       	ldi	r25, 0x1E	; 30
    2e3c:	0e 94 79 11 	call	0x22f2	; 0x22f2 <LCD_OutString6x8>
    2e40:	80 91 6c 00 	lds	r24, 0x006C
    2e44:	0e 94 df 15 	call	0x2bbe	; 0x2bbe <CalculatePercent>
    2e48:	0e 94 c2 16 	call	0x2d84	; 0x2d84 <OutUI8_6x8>
    2e4c:	85 e2       	ldi	r24, 0x25	; 37
    2e4e:	0e 94 62 11 	call	0x22c4	; 0x22c4 <LCD_OutChar6x8>
    2e52:	84 e0       	ldi	r24, 0x04	; 4
    2e54:	60 e0       	ldi	r22, 0x00	; 0
    2e56:	0e 94 12 11 	call	0x2224	; 0x2224 <LCD_gotoXY>
    2e5a:	81 ef       	ldi	r24, 0xF1	; 241
    2e5c:	9e e1       	ldi	r25, 0x1E	; 30
    2e5e:	0e 94 79 11 	call	0x22f2	; 0x22f2 <LCD_OutString6x8>
    2e62:	80 91 6d 00 	lds	r24, 0x006D
    2e66:	0e 94 df 15 	call	0x2bbe	; 0x2bbe <CalculatePercent>
    2e6a:	0e 94 c2 16 	call	0x2d84	; 0x2d84 <OutUI8_6x8>
    2e6e:	85 e2       	ldi	r24, 0x25	; 37
    2e70:	0e 94 62 11 	call	0x22c4	; 0x22c4 <LCD_OutChar6x8>
    2e74:	85 e0       	ldi	r24, 0x05	; 5
    2e76:	60 e0       	ldi	r22, 0x00	; 0
    2e78:	0e 94 12 11 	call	0x2224	; 0x2224 <LCD_gotoXY>
    2e7c:	86 ef       	ldi	r24, 0xF6	; 246
    2e7e:	9e e1       	ldi	r25, 0x1E	; 30
    2e80:	0e 94 79 11 	call	0x22f2	; 0x22f2 <LCD_OutString6x8>
    2e84:	80 91 6e 00 	lds	r24, 0x006E
    2e88:	0e 94 df 15 	call	0x2bbe	; 0x2bbe <CalculatePercent>
    2e8c:	0e 94 c2 16 	call	0x2d84	; 0x2d84 <OutUI8_6x8>
    2e90:	85 e2       	ldi	r24, 0x25	; 37
    2e92:	0e 94 62 11 	call	0x22c4	; 0x22c4 <LCD_OutChar6x8>
    2e96:	08 95       	ret

00002e98 <CheckButton>:
    2e98:	80 91 60 00 	lds	r24, 0x0060
    2e9c:	82 fd       	sbrc	r24, 2
    2e9e:	30 c0       	rjmp	.+96     	; 0x2f00 <CheckButton+0x68>
    2ea0:	98 99       	sbic	0x13, 0	; 19
    2ea2:	0a c0       	rjmp	.+20     	; 0x2eb8 <CheckButton+0x20>
    2ea4:	80 91 61 00 	lds	r24, 0x0061
    2ea8:	81 60       	ori	r24, 0x01	; 1
    2eaa:	80 93 61 00 	sts	0x0061, r24
    2eae:	80 91 60 00 	lds	r24, 0x0060
    2eb2:	82 60       	ori	r24, 0x02	; 2
    2eb4:	80 93 60 00 	sts	0x0060, r24
    2eb8:	99 99       	sbic	0x13, 1	; 19
    2eba:	0a c0       	rjmp	.+20     	; 0x2ed0 <CheckButton+0x38>
    2ebc:	80 91 61 00 	lds	r24, 0x0061
    2ec0:	82 60       	ori	r24, 0x02	; 2
    2ec2:	80 93 61 00 	sts	0x0061, r24
    2ec6:	80 91 60 00 	lds	r24, 0x0060
    2eca:	82 60       	ori	r24, 0x02	; 2
    2ecc:	80 93 60 00 	sts	0x0060, r24
    2ed0:	9a 99       	sbic	0x13, 2	; 19
    2ed2:	0a c0       	rjmp	.+20     	; 0x2ee8 <CheckButton+0x50>
    2ed4:	80 91 61 00 	lds	r24, 0x0061
    2ed8:	84 60       	ori	r24, 0x04	; 4
    2eda:	80 93 61 00 	sts	0x0061, r24
    2ede:	80 91 60 00 	lds	r24, 0x0060
    2ee2:	82 60       	ori	r24, 0x02	; 2
    2ee4:	80 93 60 00 	sts	0x0060, r24
    2ee8:	86 e0       	ldi	r24, 0x06	; 6
    2eea:	80 93 62 00 	sts	0x0062, r24
    2eee:	14 bc       	out	0x24, r1	; 36
    2ef0:	85 b5       	in	r24, 0x25	; 37
    2ef2:	87 60       	ori	r24, 0x07	; 7
    2ef4:	85 bd       	out	0x25, r24	; 37
    2ef6:	80 91 60 00 	lds	r24, 0x0060
    2efa:	84 60       	ori	r24, 0x04	; 4
    2efc:	80 93 60 00 	sts	0x0060, r24
    2f00:	08 95       	ret

00002f02 <DS18B20_init>:
    2f02:	de 98       	cbi	0x1b, 6	; 27
    2f04:	d6 98       	cbi	0x1a, 6	; 26
    2f06:	ce 9b       	sbis	0x19, 6	; 25
    2f08:	1a c0       	rjmp	.+52     	; 0x2f3e <DS18B20_init+0x3c>
    2f0a:	d6 9a       	sbi	0x1a, 6	; 26
    2f0c:	88 ee       	ldi	r24, 0xE8	; 232
    2f0e:	93 e0       	ldi	r25, 0x03	; 3
    2f10:	01 97       	sbiw	r24, 0x01	; 1
    2f12:	f1 f7       	brne	.-4      	; 0x2f10 <DS18B20_init+0xe>
    2f14:	d6 98       	cbi	0x1a, 6	; 26
    2f16:	80 ea       	ldi	r24, 0xA0	; 160
    2f18:	8a 95       	dec	r24
    2f1a:	f1 f7       	brne	.-4      	; 0x2f18 <DS18B20_init+0x16>
    2f1c:	90 ef       	ldi	r25, 0xF0	; 240
    2f1e:	22 e0       	ldi	r18, 0x02	; 2
    2f20:	05 c0       	rjmp	.+10     	; 0x2f2c <DS18B20_init+0x2a>
    2f22:	82 2f       	mov	r24, r18
    2f24:	8a 95       	dec	r24
    2f26:	f1 f7       	brne	.-4      	; 0x2f24 <DS18B20_init+0x22>
    2f28:	ce 9b       	sbis	0x19, 6	; 25
    2f2a:	03 c0       	rjmp	.+6      	; 0x2f32 <DS18B20_init+0x30>
    2f2c:	91 50       	subi	r25, 0x01	; 1
    2f2e:	c8 f7       	brcc	.-14     	; 0x2f22 <DS18B20_init+0x20>
    2f30:	06 c0       	rjmp	.+12     	; 0x2f3e <DS18B20_init+0x3c>
    2f32:	80 ec       	ldi	r24, 0xC0	; 192
    2f34:	93 e0       	ldi	r25, 0x03	; 3
    2f36:	01 97       	sbiw	r24, 0x01	; 1
    2f38:	f1 f7       	brne	.-4      	; 0x2f36 <DS18B20_init+0x34>
    2f3a:	80 e0       	ldi	r24, 0x00	; 0
    2f3c:	08 95       	ret
    2f3e:	81 e0       	ldi	r24, 0x01	; 1
    2f40:	08 95       	ret

00002f42 <DS18B20_send>:
    2f42:	38 2f       	mov	r19, r24
    2f44:	28 e0       	ldi	r18, 0x08	; 8
    2f46:	80 e0       	ldi	r24, 0x00	; 0
    2f48:	62 e0       	ldi	r22, 0x02	; 2
    2f4a:	5a e1       	ldi	r21, 0x1A	; 26
    2f4c:	40 ef       	ldi	r20, 0xF0	; 240
    2f4e:	11 c0       	rjmp	.+34     	; 0x2f72 <DS18B20_send+0x30>
    2f50:	d6 9a       	sbi	0x1a, 6	; 26
    2f52:	96 2f       	mov	r25, r22
    2f54:	9a 95       	dec	r25
    2f56:	f1 f7       	brne	.-4      	; 0x2f54 <DS18B20_send+0x12>
    2f58:	30 fd       	sbrc	r19, 0
    2f5a:	d6 98       	cbi	0x1a, 6	; 26
    2f5c:	95 2f       	mov	r25, r21
    2f5e:	9a 95       	dec	r25
    2f60:	f1 f7       	brne	.-4      	; 0x2f5e <DS18B20_send+0x1c>
    2f62:	86 95       	lsr	r24
    2f64:	ce 99       	sbic	0x19, 6	; 25
    2f66:	80 68       	ori	r24, 0x80	; 128
    2f68:	36 95       	lsr	r19
    2f6a:	94 2f       	mov	r25, r20
    2f6c:	9a 95       	dec	r25
    2f6e:	f1 f7       	brne	.-4      	; 0x2f6c <DS18B20_send+0x2a>
    2f70:	d6 98       	cbi	0x1a, 6	; 26
    2f72:	21 50       	subi	r18, 0x01	; 1
    2f74:	68 f7       	brcc	.-38     	; 0x2f50 <DS18B20_send+0xe>
    2f76:	08 95       	ret

00002f78 <DS_calcCRC8>:
    2f78:	28 2f       	mov	r18, r24
    2f7a:	98 e0       	ldi	r25, 0x08	; 8
    2f7c:	48 e1       	ldi	r20, 0x18	; 24
    2f7e:	0b c0       	rjmp	.+22     	; 0x2f96 <DS_calcCRC8+0x1e>
    2f80:	86 2f       	mov	r24, r22
    2f82:	82 27       	eor	r24, r18
    2f84:	38 2f       	mov	r19, r24
    2f86:	31 70       	andi	r19, 0x01	; 1
    2f88:	80 fd       	sbrc	r24, 0
    2f8a:	64 27       	eor	r22, r20
    2f8c:	66 95       	lsr	r22
    2f8e:	31 30       	cpi	r19, 0x01	; 1
    2f90:	09 f4       	brne	.+2      	; 0x2f94 <DS_calcCRC8+0x1c>
    2f92:	60 68       	ori	r22, 0x80	; 128
    2f94:	26 95       	lsr	r18
    2f96:	91 50       	subi	r25, 0x01	; 1
    2f98:	98 f7       	brcc	.-26     	; 0x2f80 <DS_calcCRC8+0x8>
    2f9a:	86 2f       	mov	r24, r22
    2f9c:	08 95       	ret

00002f9e <DS18B20_read>:
    2f9e:	1f 93       	push	r17
    2fa0:	cf 93       	push	r28
    2fa2:	df 93       	push	r29
    2fa4:	10 e0       	ldi	r17, 0x00	; 0
    2fa6:	c0 e0       	ldi	r28, 0x00	; 0
    2fa8:	d0 e0       	ldi	r29, 0x00	; 0
    2faa:	8f ef       	ldi	r24, 0xFF	; 255
    2fac:	0e 94 a1 17 	call	0x2f42	; 0x2f42 <DS18B20_send>
    2fb0:	fe 01       	movw	r30, r28
    2fb2:	eb 57       	subi	r30, 0x7B	; 123
    2fb4:	ff 4f       	sbci	r31, 0xFF	; 255
    2fb6:	80 83       	st	Z, r24
    2fb8:	61 2f       	mov	r22, r17
    2fba:	0e 94 bc 17 	call	0x2f78	; 0x2f78 <DS_calcCRC8>
    2fbe:	18 2f       	mov	r17, r24
    2fc0:	21 96       	adiw	r28, 0x01	; 1
    2fc2:	c9 30       	cpi	r28, 0x09	; 9
    2fc4:	d1 05       	cpc	r29, r1
    2fc6:	89 f7       	brne	.-30     	; 0x2faa <DS18B20_read+0xc>
    2fc8:	68 2f       	mov	r22, r24
    2fca:	81 11       	cpse	r24, r1
    2fcc:	61 e0       	ldi	r22, 0x01	; 1
    2fce:	86 2f       	mov	r24, r22
    2fd0:	df 91       	pop	r29
    2fd2:	cf 91       	pop	r28
    2fd4:	1f 91       	pop	r17
    2fd6:	08 95       	ret

00002fd8 <DS18B20_SetResolution>:
    2fd8:	1f 93       	push	r17
    2fda:	18 2f       	mov	r17, r24
    2fdc:	0e 94 81 17 	call	0x2f02	; 0x2f02 <DS18B20_init>
    2fe0:	8c ec       	ldi	r24, 0xCC	; 204
    2fe2:	0e 94 a1 17 	call	0x2f42	; 0x2f42 <DS18B20_send>
    2fe6:	8e e4       	ldi	r24, 0x4E	; 78
    2fe8:	0e 94 a1 17 	call	0x2f42	; 0x2f42 <DS18B20_send>
    2fec:	8f ef       	ldi	r24, 0xFF	; 255
    2fee:	0e 94 a1 17 	call	0x2f42	; 0x2f42 <DS18B20_send>
    2ff2:	8f ef       	ldi	r24, 0xFF	; 255
    2ff4:	0e 94 a1 17 	call	0x2f42	; 0x2f42 <DS18B20_send>
    2ff8:	81 2f       	mov	r24, r17
    2ffa:	0e 94 a1 17 	call	0x2f42	; 0x2f42 <DS18B20_send>
    2ffe:	0e 94 81 17 	call	0x2f02	; 0x2f02 <DS18B20_init>
    3002:	8c ec       	ldi	r24, 0xCC	; 204
    3004:	0e 94 a1 17 	call	0x2f42	; 0x2f42 <DS18B20_send>
    3008:	88 e4       	ldi	r24, 0x48	; 72
    300a:	0e 94 a1 17 	call	0x2f42	; 0x2f42 <DS18B20_send>
    300e:	1f 91       	pop	r17
    3010:	08 95       	ret

00003012 <DS18B20_convertTemp>:
    3012:	0e 94 81 17 	call	0x2f02	; 0x2f02 <DS18B20_init>
    3016:	88 23       	and	r24, r24
    3018:	19 f0       	breq	.+6      	; 0x3020 <DS18B20_convertTemp+0xe>
    301a:	10 92 65 00 	sts	0x0065, r1
    301e:	08 95       	ret
    3020:	8c ec       	ldi	r24, 0xCC	; 204
    3022:	0e 94 a1 17 	call	0x2f42	; 0x2f42 <DS18B20_send>
    3026:	84 e4       	ldi	r24, 0x44	; 68
    3028:	0e 94 a1 17 	call	0x2f42	; 0x2f42 <DS18B20_send>
    302c:	08 95       	ret

0000302e <DS18B20_getTemp>:
    302e:	cf 92       	push	r12
    3030:	df 92       	push	r13
    3032:	ef 92       	push	r14
    3034:	ff 92       	push	r15
    3036:	0f 93       	push	r16
    3038:	1f 93       	push	r17
    303a:	0e 94 81 17 	call	0x2f02	; 0x2f02 <DS18B20_init>
    303e:	88 23       	and	r24, r24
    3040:	51 f4       	brne	.+20     	; 0x3056 <DS18B20_getTemp+0x28>
    3042:	8c ec       	ldi	r24, 0xCC	; 204
    3044:	0e 94 a1 17 	call	0x2f42	; 0x2f42 <DS18B20_send>
    3048:	8e eb       	ldi	r24, 0xBE	; 190
    304a:	0e 94 a1 17 	call	0x2f42	; 0x2f42 <DS18B20_send>
    304e:	0e 94 cf 17 	call	0x2f9e	; 0x2f9e <DS18B20_read>
    3052:	88 23       	and	r24, r24
    3054:	19 f0       	breq	.+6      	; 0x305c <DS18B20_getTemp+0x2e>
    3056:	10 92 65 00 	sts	0x0065, r1
    305a:	54 c0       	rjmp	.+168    	; 0x3104 <DS18B20_getTemp+0xd6>
    305c:	80 91 86 00 	lds	r24, 0x0086
    3060:	90 91 85 00 	lds	r25, 0x0085
    3064:	18 2f       	mov	r17, r24
    3066:	00 e0       	ldi	r16, 0x00	; 0
    3068:	09 0f       	add	r16, r25
    306a:	11 1d       	adc	r17, r1
    306c:	b8 01       	movw	r22, r16
    306e:	77 70       	andi	r23, 0x07	; 7
    3070:	e4 e0       	ldi	r30, 0x04	; 4
    3072:	76 95       	lsr	r23
    3074:	67 95       	ror	r22
    3076:	ea 95       	dec	r30
    3078:	e1 f7       	brne	.-8      	; 0x3072 <DS18B20_getTemp+0x44>
    307a:	80 e0       	ldi	r24, 0x00	; 0
    307c:	90 e0       	ldi	r25, 0x00	; 0
    307e:	0e 94 10 1d 	call	0x3a20	; 0x3a20 <__floatunsisf>
    3082:	60 93 91 00 	sts	0x0091, r22
    3086:	70 93 92 00 	sts	0x0092, r23
    308a:	80 93 93 00 	sts	0x0093, r24
    308e:	90 93 94 00 	sts	0x0094, r25
    3092:	c0 90 91 00 	lds	r12, 0x0091
    3096:	d0 90 92 00 	lds	r13, 0x0092
    309a:	e0 90 93 00 	lds	r14, 0x0093
    309e:	f0 90 94 00 	lds	r15, 0x0094
    30a2:	b8 01       	movw	r22, r16
    30a4:	6f 70       	andi	r22, 0x0F	; 15
    30a6:	70 70       	andi	r23, 0x00	; 0
    30a8:	80 e0       	ldi	r24, 0x00	; 0
    30aa:	90 e0       	ldi	r25, 0x00	; 0
    30ac:	0e 94 10 1d 	call	0x3a20	; 0x3a20 <__floatunsisf>
    30b0:	20 e0       	ldi	r18, 0x00	; 0
    30b2:	30 e0       	ldi	r19, 0x00	; 0
    30b4:	40 e8       	ldi	r20, 0x80	; 128
    30b6:	5d e3       	ldi	r21, 0x3D	; 61
    30b8:	0e 94 a2 1d 	call	0x3b44	; 0x3b44 <__mulsf3>
    30bc:	9b 01       	movw	r18, r22
    30be:	ac 01       	movw	r20, r24
    30c0:	c7 01       	movw	r24, r14
    30c2:	b6 01       	movw	r22, r12
    30c4:	0e 94 18 1c 	call	0x3830	; 0x3830 <__addsf3>
    30c8:	60 93 91 00 	sts	0x0091, r22
    30cc:	70 93 92 00 	sts	0x0092, r23
    30d0:	80 93 93 00 	sts	0x0093, r24
    30d4:	90 93 94 00 	sts	0x0094, r25
    30d8:	17 ff       	sbrs	r17, 7
    30da:	11 c0       	rjmp	.+34     	; 0x30fe <DS18B20_getTemp+0xd0>
    30dc:	80 91 91 00 	lds	r24, 0x0091
    30e0:	90 91 92 00 	lds	r25, 0x0092
    30e4:	a0 91 93 00 	lds	r26, 0x0093
    30e8:	b0 91 94 00 	lds	r27, 0x0094
    30ec:	b0 58       	subi	r27, 0x80	; 128
    30ee:	80 93 91 00 	sts	0x0091, r24
    30f2:	90 93 92 00 	sts	0x0092, r25
    30f6:	a0 93 93 00 	sts	0x0093, r26
    30fa:	b0 93 94 00 	sts	0x0094, r27
    30fe:	81 e0       	ldi	r24, 0x01	; 1
    3100:	80 93 65 00 	sts	0x0065, r24
    3104:	1f 91       	pop	r17
    3106:	0f 91       	pop	r16
    3108:	ff 90       	pop	r15
    310a:	ef 90       	pop	r14
    310c:	df 90       	pop	r13
    310e:	cf 90       	pop	r12
    3110:	08 95       	ret

00003112 <PWM_sendByte>:
    3112:	98 e0       	ldi	r25, 0x08	; 8
    3114:	20 ed       	ldi	r18, 0xD0	; 208
    3116:	37 e0       	ldi	r19, 0x07	; 7
    3118:	11 c0       	rjmp	.+34     	; 0x313c <PWM_sendByte+0x2a>
    311a:	87 ff       	sbrs	r24, 7
    311c:	02 c0       	rjmp	.+4      	; 0x3122 <PWM_sendByte+0x10>
    311e:	db 9a       	sbi	0x1b, 3	; 27
    3120:	01 c0       	rjmp	.+2      	; 0x3124 <PWM_sendByte+0x12>
    3122:	db 98       	cbi	0x1b, 3	; 27
    3124:	f9 01       	movw	r30, r18
    3126:	31 97       	sbiw	r30, 0x01	; 1
    3128:	f1 f7       	brne	.-4      	; 0x3126 <PWM_sendByte+0x14>
    312a:	da 9a       	sbi	0x1b, 2	; 27
    312c:	f9 01       	movw	r30, r18
    312e:	31 97       	sbiw	r30, 0x01	; 1
    3130:	f1 f7       	brne	.-4      	; 0x312e <PWM_sendByte+0x1c>
    3132:	da 98       	cbi	0x1b, 2	; 27
    3134:	88 0f       	add	r24, r24
    3136:	f9 01       	movw	r30, r18
    3138:	31 97       	sbiw	r30, 0x01	; 1
    313a:	f1 f7       	brne	.-4      	; 0x3138 <PWM_sendByte+0x26>
    313c:	91 50       	subi	r25, 0x01	; 1
    313e:	68 f7       	brcc	.-38     	; 0x311a <PWM_sendByte+0x8>
    3140:	80 e1       	ldi	r24, 0x10	; 16
    3142:	97 e2       	ldi	r25, 0x27	; 39
    3144:	01 97       	sbiw	r24, 0x01	; 1
    3146:	f1 f7       	brne	.-4      	; 0x3144 <PWM_sendByte+0x32>
    3148:	08 95       	ret

0000314a <PWM_send>:
    314a:	0f 93       	push	r16
    314c:	1f 93       	push	r17
    314e:	08 2f       	mov	r16, r24
    3150:	16 2f       	mov	r17, r22
    3152:	0e 94 89 18 	call	0x3112	; 0x3112 <PWM_sendByte>
    3156:	81 2f       	mov	r24, r17
    3158:	0e 94 89 18 	call	0x3112	; 0x3112 <PWM_sendByte>
    315c:	81 2f       	mov	r24, r17
    315e:	80 0f       	add	r24, r16
    3160:	0e 94 89 18 	call	0x3112	; 0x3112 <PWM_sendByte>
    3164:	80 e2       	ldi	r24, 0x20	; 32
    3166:	9e e4       	ldi	r25, 0x4E	; 78
    3168:	01 97       	sbiw	r24, 0x01	; 1
    316a:	f1 f7       	brne	.-4      	; 0x3168 <PWM_send+0x1e>
    316c:	1f 91       	pop	r17
    316e:	0f 91       	pop	r16
    3170:	08 95       	ret

00003172 <Work_T3_M3>:
    3172:	af 92       	push	r10
    3174:	bf 92       	push	r11
    3176:	cf 92       	push	r12
    3178:	df 92       	push	r13
    317a:	ef 92       	push	r14
    317c:	ff 92       	push	r15
    317e:	0f 93       	push	r16
    3180:	1f 93       	push	r17
    3182:	80 91 69 00 	lds	r24, 0x0069
    3186:	81 30       	cpi	r24, 0x01	; 1
    3188:	09 f0       	breq	.+2      	; 0x318c <Work_T3_M3+0x1a>
    318a:	74 c0       	rjmp	.+232    	; 0x3274 <Work_T3_M3+0x102>
    318c:	20 91 6a 00 	lds	r18, 0x006A
    3190:	30 91 6b 00 	lds	r19, 0x006B
    3194:	80 91 9d 00 	lds	r24, 0x009D
    3198:	90 91 9e 00 	lds	r25, 0x009E
    319c:	28 17       	cp	r18, r24
    319e:	39 07       	cpc	r19, r25
    31a0:	08 f4       	brcc	.+2      	; 0x31a4 <Work_T3_M3+0x32>
    31a2:	68 c0       	rjmp	.+208    	; 0x3274 <Work_T3_M3+0x102>
    31a4:	80 91 60 00 	lds	r24, 0x0060
    31a8:	85 fd       	sbrc	r24, 5
    31aa:	05 c0       	rjmp	.+10     	; 0x31b6 <Work_T3_M3+0x44>
    31ac:	80 91 60 00 	lds	r24, 0x0060
    31b0:	80 62       	ori	r24, 0x20	; 32
    31b2:	80 93 60 00 	sts	0x0060, r24
    31b6:	20 91 6a 00 	lds	r18, 0x006A
    31ba:	30 91 6b 00 	lds	r19, 0x006B
    31be:	80 91 96 00 	lds	r24, 0x0096
    31c2:	90 91 97 00 	lds	r25, 0x0097
    31c6:	28 17       	cp	r18, r24
    31c8:	39 07       	cpc	r19, r25
    31ca:	58 f0       	brcs	.+22     	; 0x31e2 <Work_T3_M3+0x70>
    31cc:	0f 2e       	mov	r0, r31
    31ce:	f0 e0       	ldi	r31, 0x00	; 0
    31d0:	ef 2e       	mov	r14, r31
    31d2:	f0 e0       	ldi	r31, 0x00	; 0
    31d4:	ff 2e       	mov	r15, r31
    31d6:	ff e7       	ldi	r31, 0x7F	; 127
    31d8:	0f 2f       	mov	r16, r31
    31da:	f3 e4       	ldi	r31, 0x43	; 67
    31dc:	1f 2f       	mov	r17, r31
    31de:	f0 2d       	mov	r31, r0
    31e0:	39 c0       	rjmp	.+114    	; 0x3254 <Work_T3_M3+0xe2>
    31e2:	60 91 6a 00 	lds	r22, 0x006A
    31e6:	70 91 6b 00 	lds	r23, 0x006B
    31ea:	20 91 9d 00 	lds	r18, 0x009D
    31ee:	30 91 9e 00 	lds	r19, 0x009E
    31f2:	a0 90 81 00 	lds	r10, 0x0081
    31f6:	b0 90 82 00 	lds	r11, 0x0082
    31fa:	c0 90 83 00 	lds	r12, 0x0083
    31fe:	d0 90 84 00 	lds	r13, 0x0084
    3202:	e0 90 78 00 	lds	r14, 0x0078
    3206:	62 1b       	sub	r22, r18
    3208:	73 0b       	sbc	r23, r19
    320a:	80 e0       	ldi	r24, 0x00	; 0
    320c:	90 e0       	ldi	r25, 0x00	; 0
    320e:	0e 94 10 1d 	call	0x3a20	; 0x3a20 <__floatunsisf>
    3212:	a6 01       	movw	r20, r12
    3214:	95 01       	movw	r18, r10
    3216:	0e 94 a2 1d 	call	0x3b44	; 0x3b44 <__mulsf3>
    321a:	5b 01       	movw	r10, r22
    321c:	6c 01       	movw	r12, r24
    321e:	ff 24       	eor	r15, r15
    3220:	00 27       	eor	r16, r16
    3222:	f7 fc       	sbrc	r15, 7
    3224:	00 95       	com	r16
    3226:	10 2f       	mov	r17, r16
    3228:	c8 01       	movw	r24, r16
    322a:	b7 01       	movw	r22, r14
    322c:	0e 94 12 1d 	call	0x3a24	; 0x3a24 <__floatsisf>
    3230:	9b 01       	movw	r18, r22
    3232:	ac 01       	movw	r20, r24
    3234:	c6 01       	movw	r24, r12
    3236:	b5 01       	movw	r22, r10
    3238:	0e 94 18 1c 	call	0x3830	; 0x3830 <__addsf3>
    323c:	7b 01       	movw	r14, r22
    323e:	8c 01       	movw	r16, r24
    3240:	20 e0       	ldi	r18, 0x00	; 0
    3242:	30 e0       	ldi	r19, 0x00	; 0
    3244:	4f e7       	ldi	r20, 0x7F	; 127
    3246:	53 e4       	ldi	r21, 0x43	; 67
    3248:	0e 94 9e 1d 	call	0x3b3c	; 0x3b3c <__gesf2>
    324c:	18 16       	cp	r1, r24
    324e:	14 f4       	brge	.+4      	; 0x3254 <Work_T3_M3+0xe2>
    3250:	6f ef       	ldi	r22, 0xFF	; 255
    3252:	04 c0       	rjmp	.+8      	; 0x325c <Work_T3_M3+0xea>
    3254:	c8 01       	movw	r24, r16
    3256:	b7 01       	movw	r22, r14
    3258:	0e 94 e4 1c 	call	0x39c8	; 0x39c8 <__fixunssfsi>
    325c:	80 91 6e 00 	lds	r24, 0x006E
    3260:	86 17       	cp	r24, r22
    3262:	e1 f0       	breq	.+56     	; 0x329c <Work_T3_M3+0x12a>
    3264:	60 93 6e 00 	sts	0x006E, r22
    3268:	60 91 6e 00 	lds	r22, 0x006E
    326c:	83 e0       	ldi	r24, 0x03	; 3
    326e:	0e 94 a5 18 	call	0x314a	; 0x314a <PWM_send>
    3272:	14 c0       	rjmp	.+40     	; 0x329c <Work_T3_M3+0x12a>
    3274:	80 91 6e 00 	lds	r24, 0x006E
    3278:	88 23       	and	r24, r24
    327a:	39 f0       	breq	.+14     	; 0x328a <Work_T3_M3+0x118>
    327c:	10 92 6e 00 	sts	0x006E, r1
    3280:	60 91 6e 00 	lds	r22, 0x006E
    3284:	83 e0       	ldi	r24, 0x03	; 3
    3286:	0e 94 a5 18 	call	0x314a	; 0x314a <PWM_send>
    328a:	80 91 60 00 	lds	r24, 0x0060
    328e:	85 ff       	sbrs	r24, 5
    3290:	05 c0       	rjmp	.+10     	; 0x329c <Work_T3_M3+0x12a>
    3292:	80 91 60 00 	lds	r24, 0x0060
    3296:	8f 7d       	andi	r24, 0xDF	; 223
    3298:	80 93 60 00 	sts	0x0060, r24
    329c:	1f 91       	pop	r17
    329e:	0f 91       	pop	r16
    32a0:	ff 90       	pop	r15
    32a2:	ef 90       	pop	r14
    32a4:	df 90       	pop	r13
    32a6:	cf 90       	pop	r12
    32a8:	bf 90       	pop	r11
    32aa:	af 90       	pop	r10
    32ac:	08 95       	ret

000032ae <Work_T12_M12>:
    32ae:	5f 92       	push	r5
    32b0:	6f 92       	push	r6
    32b2:	7f 92       	push	r7
    32b4:	8f 92       	push	r8
    32b6:	9f 92       	push	r9
    32b8:	af 92       	push	r10
    32ba:	bf 92       	push	r11
    32bc:	cf 92       	push	r12
    32be:	df 92       	push	r13
    32c0:	ef 92       	push	r14
    32c2:	ff 92       	push	r15
    32c4:	0f 93       	push	r16
    32c6:	1f 93       	push	r17
    32c8:	cf 93       	push	r28
    32ca:	df 93       	push	r29
    32cc:	80 91 60 00 	lds	r24, 0x0060
    32d0:	86 ff       	sbrs	r24, 6
    32d2:	b4 c0       	rjmp	.+360    	; 0x343c <Work_T12_M12+0x18e>
    32d4:	90 91 6f 00 	lds	r25, 0x006F
    32d8:	80 91 70 00 	lds	r24, 0x0070
    32dc:	89 17       	cp	r24, r25
    32de:	e8 f5       	brcc	.+122    	; 0x335a <Work_T12_M12+0xac>
    32e0:	90 91 6f 00 	lds	r25, 0x006F
    32e4:	80 91 71 00 	lds	r24, 0x0071
    32e8:	89 17       	cp	r24, r25
    32ea:	b8 f1       	brcs	.+110    	; 0x335a <Work_T12_M12+0xac>
    32ec:	a0 90 79 00 	lds	r10, 0x0079
    32f0:	b0 90 7a 00 	lds	r11, 0x007A
    32f4:	c0 90 7b 00 	lds	r12, 0x007B
    32f8:	d0 90 7c 00 	lds	r13, 0x007C
    32fc:	60 91 6f 00 	lds	r22, 0x006F
    3300:	20 91 70 00 	lds	r18, 0x0070
    3304:	e0 90 76 00 	lds	r14, 0x0076
    3308:	70 e0       	ldi	r23, 0x00	; 0
    330a:	62 1b       	sub	r22, r18
    330c:	71 09       	sbc	r23, r1
    330e:	88 27       	eor	r24, r24
    3310:	77 fd       	sbrc	r23, 7
    3312:	80 95       	com	r24
    3314:	98 2f       	mov	r25, r24
    3316:	0e 94 12 1d 	call	0x3a24	; 0x3a24 <__floatsisf>
    331a:	9b 01       	movw	r18, r22
    331c:	ac 01       	movw	r20, r24
    331e:	c6 01       	movw	r24, r12
    3320:	b5 01       	movw	r22, r10
    3322:	0e 94 a2 1d 	call	0x3b44	; 0x3b44 <__mulsf3>
    3326:	5b 01       	movw	r10, r22
    3328:	6c 01       	movw	r12, r24
    332a:	ff 24       	eor	r15, r15
    332c:	00 27       	eor	r16, r16
    332e:	f7 fc       	sbrc	r15, 7
    3330:	00 95       	com	r16
    3332:	10 2f       	mov	r17, r16
    3334:	c8 01       	movw	r24, r16
    3336:	b7 01       	movw	r22, r14
    3338:	0e 94 12 1d 	call	0x3a24	; 0x3a24 <__floatsisf>
    333c:	9b 01       	movw	r18, r22
    333e:	ac 01       	movw	r20, r24
    3340:	c6 01       	movw	r24, r12
    3342:	b5 01       	movw	r22, r10
    3344:	0e 94 18 1c 	call	0x3830	; 0x3830 <__addsf3>
    3348:	0e 94 e4 1c 	call	0x39c8	; 0x39c8 <__fixunssfsi>
    334c:	60 93 6c 00 	sts	0x006C, r22
    3350:	60 91 6c 00 	lds	r22, 0x006C
    3354:	81 e0       	ldi	r24, 0x01	; 1
    3356:	0e 94 a5 18 	call	0x314a	; 0x314a <PWM_send>
    335a:	20 91 6f 00 	lds	r18, 0x006F
    335e:	80 91 71 00 	lds	r24, 0x0071
    3362:	30 e0       	ldi	r19, 0x00	; 0
    3364:	90 e0       	ldi	r25, 0x00	; 0
    3366:	01 96       	adiw	r24, 0x01	; 1
    3368:	28 17       	cp	r18, r24
    336a:	39 07       	cpc	r19, r25
    336c:	41 f4       	brne	.+16     	; 0x337e <Work_T12_M12+0xd0>
    336e:	8f ef       	ldi	r24, 0xFF	; 255
    3370:	80 93 6c 00 	sts	0x006C, r24
    3374:	60 91 6c 00 	lds	r22, 0x006C
    3378:	81 e0       	ldi	r24, 0x01	; 1
    337a:	0e 94 a5 18 	call	0x314a	; 0x314a <PWM_send>
    337e:	90 91 6f 00 	lds	r25, 0x006F
    3382:	80 91 72 00 	lds	r24, 0x0072
    3386:	98 17       	cp	r25, r24
    3388:	e8 f1       	brcs	.+122    	; 0x3404 <Work_T12_M12+0x156>
    338a:	90 91 6f 00 	lds	r25, 0x006F
    338e:	80 91 73 00 	lds	r24, 0x0073
    3392:	89 17       	cp	r24, r25
    3394:	b8 f1       	brcs	.+110    	; 0x3404 <Work_T12_M12+0x156>
    3396:	a0 90 7d 00 	lds	r10, 0x007D
    339a:	b0 90 7e 00 	lds	r11, 0x007E
    339e:	c0 90 7f 00 	lds	r12, 0x007F
    33a2:	d0 90 80 00 	lds	r13, 0x0080
    33a6:	60 91 6f 00 	lds	r22, 0x006F
    33aa:	20 91 72 00 	lds	r18, 0x0072
    33ae:	e0 90 77 00 	lds	r14, 0x0077
    33b2:	70 e0       	ldi	r23, 0x00	; 0
    33b4:	62 1b       	sub	r22, r18
    33b6:	71 09       	sbc	r23, r1
    33b8:	88 27       	eor	r24, r24
    33ba:	77 fd       	sbrc	r23, 7
    33bc:	80 95       	com	r24
    33be:	98 2f       	mov	r25, r24
    33c0:	0e 94 12 1d 	call	0x3a24	; 0x3a24 <__floatsisf>
    33c4:	9b 01       	movw	r18, r22
    33c6:	ac 01       	movw	r20, r24
    33c8:	c6 01       	movw	r24, r12
    33ca:	b5 01       	movw	r22, r10
    33cc:	0e 94 a2 1d 	call	0x3b44	; 0x3b44 <__mulsf3>
    33d0:	5b 01       	movw	r10, r22
    33d2:	6c 01       	movw	r12, r24
    33d4:	ff 24       	eor	r15, r15
    33d6:	00 27       	eor	r16, r16
    33d8:	f7 fc       	sbrc	r15, 7
    33da:	00 95       	com	r16
    33dc:	10 2f       	mov	r17, r16
    33de:	c8 01       	movw	r24, r16
    33e0:	b7 01       	movw	r22, r14
    33e2:	0e 94 12 1d 	call	0x3a24	; 0x3a24 <__floatsisf>
    33e6:	9b 01       	movw	r18, r22
    33e8:	ac 01       	movw	r20, r24
    33ea:	c6 01       	movw	r24, r12
    33ec:	b5 01       	movw	r22, r10
    33ee:	0e 94 18 1c 	call	0x3830	; 0x3830 <__addsf3>
    33f2:	0e 94 e4 1c 	call	0x39c8	; 0x39c8 <__fixunssfsi>
    33f6:	60 93 6d 00 	sts	0x006D, r22
    33fa:	60 91 6d 00 	lds	r22, 0x006D
    33fe:	82 e0       	ldi	r24, 0x02	; 2
    3400:	0e 94 a5 18 	call	0x314a	; 0x314a <PWM_send>
    3404:	20 91 6f 00 	lds	r18, 0x006F
    3408:	80 91 73 00 	lds	r24, 0x0073
    340c:	30 e0       	ldi	r19, 0x00	; 0
    340e:	90 e0       	ldi	r25, 0x00	; 0
    3410:	01 96       	adiw	r24, 0x01	; 1
    3412:	28 17       	cp	r18, r24
    3414:	39 07       	cpc	r19, r25
    3416:	69 f4       	brne	.+26     	; 0x3432 <Work_T12_M12+0x184>
    3418:	8f ef       	ldi	r24, 0xFF	; 255
    341a:	80 93 6d 00 	sts	0x006D, r24
    341e:	60 91 6d 00 	lds	r22, 0x006D
    3422:	82 e0       	ldi	r24, 0x02	; 2
    3424:	0e 94 a5 18 	call	0x314a	; 0x314a <PWM_send>
    3428:	80 91 60 00 	lds	r24, 0x0060
    342c:	8f 7b       	andi	r24, 0xBF	; 191
    342e:	80 93 60 00 	sts	0x0060, r24
    3432:	80 91 6f 00 	lds	r24, 0x006F
    3436:	8f 5f       	subi	r24, 0xFF	; 255
    3438:	80 93 6f 00 	sts	0x006F, r24
    343c:	80 91 60 00 	lds	r24, 0x0060
    3440:	87 ff       	sbrs	r24, 7
    3442:	22 c0       	rjmp	.+68     	; 0x3488 <Work_T12_M12+0x1da>
    3444:	80 91 74 00 	lds	r24, 0x0074
    3448:	88 23       	and	r24, r24
    344a:	39 f4       	brne	.+14     	; 0x345a <Work_T12_M12+0x1ac>
    344c:	10 92 6d 00 	sts	0x006D, r1
    3450:	60 91 6d 00 	lds	r22, 0x006D
    3454:	82 e0       	ldi	r24, 0x02	; 2
    3456:	0e 94 a5 18 	call	0x314a	; 0x314a <PWM_send>
    345a:	90 91 74 00 	lds	r25, 0x0074
    345e:	80 91 75 00 	lds	r24, 0x0075
    3462:	98 17       	cp	r25, r24
    3464:	61 f4       	brne	.+24     	; 0x347e <Work_T12_M12+0x1d0>
    3466:	10 92 6c 00 	sts	0x006C, r1
    346a:	60 91 6c 00 	lds	r22, 0x006C
    346e:	81 e0       	ldi	r24, 0x01	; 1
    3470:	0e 94 a5 18 	call	0x314a	; 0x314a <PWM_send>
    3474:	80 91 60 00 	lds	r24, 0x0060
    3478:	8f 77       	andi	r24, 0x7F	; 127
    347a:	80 93 60 00 	sts	0x0060, r24
    347e:	80 91 74 00 	lds	r24, 0x0074
    3482:	8f 5f       	subi	r24, 0xFF	; 255
    3484:	80 93 74 00 	sts	0x0074, r24
    3488:	80 91 65 00 	lds	r24, 0x0065
    348c:	81 30       	cpi	r24, 0x01	; 1
    348e:	09 f0       	breq	.+2      	; 0x3492 <Work_T12_M12+0x1e4>
    3490:	8b c0       	rjmp	.+278    	; 0x35a8 <Work_T12_M12+0x2fa>
    3492:	80 91 66 00 	lds	r24, 0x0066
    3496:	81 30       	cpi	r24, 0x01	; 1
    3498:	09 f0       	breq	.+2      	; 0x349c <Work_T12_M12+0x1ee>
    349a:	86 c0       	rjmp	.+268    	; 0x35a8 <Work_T12_M12+0x2fa>
    349c:	e0 90 67 00 	lds	r14, 0x0067
    34a0:	f0 90 68 00 	lds	r15, 0x0068
    34a4:	60 91 91 00 	lds	r22, 0x0091
    34a8:	70 91 92 00 	lds	r23, 0x0092
    34ac:	80 91 93 00 	lds	r24, 0x0093
    34b0:	90 91 94 00 	lds	r25, 0x0094
    34b4:	00 91 98 00 	lds	r16, 0x0098
    34b8:	0e 94 e4 1c 	call	0x39c8	; 0x39c8 <__fixunssfsi>
    34bc:	e6 1a       	sub	r14, r22
    34be:	f1 08       	sbc	r15, r1
    34c0:	10 e0       	ldi	r17, 0x00	; 0
    34c2:	e0 16       	cp	r14, r16
    34c4:	f1 06       	cpc	r15, r17
    34c6:	08 f4       	brcc	.+2      	; 0x34ca <Work_T12_M12+0x21c>
    34c8:	6f c0       	rjmp	.+222    	; 0x35a8 <Work_T12_M12+0x2fa>
    34ca:	80 91 60 00 	lds	r24, 0x0060
    34ce:	84 fd       	sbrc	r24, 4
    34d0:	05 c0       	rjmp	.+10     	; 0x34dc <Work_T12_M12+0x22e>
    34d2:	80 91 60 00 	lds	r24, 0x0060
    34d6:	80 61       	ori	r24, 0x10	; 16
    34d8:	80 93 60 00 	sts	0x0060, r24
    34dc:	60 91 91 00 	lds	r22, 0x0091
    34e0:	70 91 92 00 	lds	r23, 0x0092
    34e4:	80 91 93 00 	lds	r24, 0x0093
    34e8:	90 91 94 00 	lds	r25, 0x0094
    34ec:	00 91 8f 00 	lds	r16, 0x008F
    34f0:	f0 90 9c 00 	lds	r15, 0x009C
    34f4:	c0 91 67 00 	lds	r28, 0x0067
    34f8:	d0 91 68 00 	lds	r29, 0x0068
    34fc:	90 90 90 00 	lds	r9, 0x0090
    3500:	e0 90 9b 00 	lds	r14, 0x009B
    3504:	a0 90 91 00 	lds	r10, 0x0091
    3508:	b0 90 92 00 	lds	r11, 0x0092
    350c:	c0 90 93 00 	lds	r12, 0x0093
    3510:	d0 90 94 00 	lds	r13, 0x0094
    3514:	50 90 8f 00 	lds	r5, 0x008F
    3518:	60 90 67 00 	lds	r6, 0x0067
    351c:	70 90 68 00 	lds	r7, 0x0068
    3520:	80 90 90 00 	lds	r8, 0x0090
    3524:	0e 94 e4 1c 	call	0x39c8	; 0x39c8 <__fixunssfsi>
    3528:	70 e0       	ldi	r23, 0x00	; 0
    352a:	10 e0       	ldi	r17, 0x00	; 0
    352c:	0f 19       	sub	r16, r15
    352e:	11 09       	sbc	r17, r1
    3530:	06 17       	cp	r16, r22
    3532:	17 07       	cpc	r17, r23
    3534:	dc f0       	brlt	.+54     	; 0x356c <Work_T12_M12+0x2be>
    3536:	89 2d       	mov	r24, r9
    3538:	90 e0       	ldi	r25, 0x00	; 0
    353a:	8e 19       	sub	r24, r14
    353c:	91 09       	sbc	r25, r1
    353e:	8c 17       	cp	r24, r28
    3540:	9d 07       	cpc	r25, r29
    3542:	a0 f0       	brcs	.+40     	; 0x356c <Work_T12_M12+0x2be>
    3544:	80 91 6c 00 	lds	r24, 0x006C
    3548:	88 23       	and	r24, r24
    354a:	81 f4       	brne	.+32     	; 0x356c <Work_T12_M12+0x2be>
    354c:	80 91 60 00 	lds	r24, 0x0060
    3550:	86 fd       	sbrc	r24, 6
    3552:	0c c0       	rjmp	.+24     	; 0x356c <Work_T12_M12+0x2be>
    3554:	10 92 6f 00 	sts	0x006F, r1
    3558:	80 91 60 00 	lds	r24, 0x0060
    355c:	8f 77       	andi	r24, 0x7F	; 127
    355e:	80 93 60 00 	sts	0x0060, r24
    3562:	80 91 60 00 	lds	r24, 0x0060
    3566:	80 64       	ori	r24, 0x40	; 64
    3568:	80 93 60 00 	sts	0x0060, r24
    356c:	c6 01       	movw	r24, r12
    356e:	b5 01       	movw	r22, r10
    3570:	0e 94 e4 1c 	call	0x39c8	; 0x39c8 <__fixunssfsi>
    3574:	65 15       	cp	r22, r5
    3576:	28 f4       	brcc	.+10     	; 0x3582 <Work_T12_M12+0x2d4>
    3578:	88 2d       	mov	r24, r8
    357a:	90 e0       	ldi	r25, 0x00	; 0
    357c:	68 16       	cp	r6, r24
    357e:	79 06       	cpc	r7, r25
    3580:	80 f1       	brcs	.+96     	; 0x35e2 <Work_T12_M12+0x334>
    3582:	80 91 6c 00 	lds	r24, 0x006C
    3586:	88 23       	and	r24, r24
    3588:	61 f1       	breq	.+88     	; 0x35e2 <Work_T12_M12+0x334>
    358a:	80 91 60 00 	lds	r24, 0x0060
    358e:	87 fd       	sbrc	r24, 7
    3590:	28 c0       	rjmp	.+80     	; 0x35e2 <Work_T12_M12+0x334>
    3592:	10 92 74 00 	sts	0x0074, r1
    3596:	80 91 60 00 	lds	r24, 0x0060
    359a:	8f 7b       	andi	r24, 0xBF	; 191
    359c:	80 93 60 00 	sts	0x0060, r24
    35a0:	80 91 60 00 	lds	r24, 0x0060
    35a4:	80 68       	ori	r24, 0x80	; 128
    35a6:	1b c0       	rjmp	.+54     	; 0x35de <Work_T12_M12+0x330>
    35a8:	80 91 60 00 	lds	r24, 0x0060
    35ac:	87 fd       	sbrc	r24, 7
    35ae:	10 c0       	rjmp	.+32     	; 0x35d0 <Work_T12_M12+0x322>
    35b0:	80 91 6c 00 	lds	r24, 0x006C
    35b4:	88 23       	and	r24, r24
    35b6:	61 f0       	breq	.+24     	; 0x35d0 <Work_T12_M12+0x322>
    35b8:	10 92 74 00 	sts	0x0074, r1
    35bc:	80 91 60 00 	lds	r24, 0x0060
    35c0:	8f 7b       	andi	r24, 0xBF	; 191
    35c2:	80 93 60 00 	sts	0x0060, r24
    35c6:	80 91 60 00 	lds	r24, 0x0060
    35ca:	80 68       	ori	r24, 0x80	; 128
    35cc:	80 93 60 00 	sts	0x0060, r24
    35d0:	80 91 60 00 	lds	r24, 0x0060
    35d4:	84 ff       	sbrs	r24, 4
    35d6:	05 c0       	rjmp	.+10     	; 0x35e2 <Work_T12_M12+0x334>
    35d8:	80 91 60 00 	lds	r24, 0x0060
    35dc:	8f 7e       	andi	r24, 0xEF	; 239
    35de:	80 93 60 00 	sts	0x0060, r24
    35e2:	df 91       	pop	r29
    35e4:	cf 91       	pop	r28
    35e6:	1f 91       	pop	r17
    35e8:	0f 91       	pop	r16
    35ea:	ff 90       	pop	r15
    35ec:	ef 90       	pop	r14
    35ee:	df 90       	pop	r13
    35f0:	cf 90       	pop	r12
    35f2:	bf 90       	pop	r11
    35f4:	af 90       	pop	r10
    35f6:	9f 90       	pop	r9
    35f8:	8f 90       	pop	r8
    35fa:	7f 90       	pop	r7
    35fc:	6f 90       	pop	r6
    35fe:	5f 90       	pop	r5
    3600:	08 95       	ret

00003602 <UpdateValuesFromEEPROM>:
    3602:	60 91 9a 00 	lds	r22, 0x009A
    3606:	80 e0       	ldi	r24, 0x00	; 0
    3608:	90 e0       	ldi	r25, 0x00	; 0
    360a:	0e 94 57 1e 	call	0x3cae	; 0x3cae <__eeupd_byte_m32>
    360e:	60 91 8f 00 	lds	r22, 0x008F
    3612:	81 e0       	ldi	r24, 0x01	; 1
    3614:	90 e0       	ldi	r25, 0x00	; 0
    3616:	0e 94 57 1e 	call	0x3cae	; 0x3cae <__eeupd_byte_m32>
    361a:	60 91 9c 00 	lds	r22, 0x009C
    361e:	82 e0       	ldi	r24, 0x02	; 2
    3620:	90 e0       	ldi	r25, 0x00	; 0
    3622:	0e 94 57 1e 	call	0x3cae	; 0x3cae <__eeupd_byte_m32>
    3626:	60 91 90 00 	lds	r22, 0x0090
    362a:	83 e0       	ldi	r24, 0x03	; 3
    362c:	90 e0       	ldi	r25, 0x00	; 0
    362e:	0e 94 57 1e 	call	0x3cae	; 0x3cae <__eeupd_byte_m32>
    3632:	60 91 9b 00 	lds	r22, 0x009B
    3636:	84 e0       	ldi	r24, 0x04	; 4
    3638:	90 e0       	ldi	r25, 0x00	; 0
    363a:	0e 94 57 1e 	call	0x3cae	; 0x3cae <__eeupd_byte_m32>
    363e:	60 91 9d 00 	lds	r22, 0x009D
    3642:	70 91 9e 00 	lds	r23, 0x009E
    3646:	85 e0       	ldi	r24, 0x05	; 5
    3648:	90 e0       	ldi	r25, 0x00	; 0
    364a:	0e 94 68 1e 	call	0x3cd0	; 0x3cd0 <__eeupd_word_m32>
    364e:	60 91 96 00 	lds	r22, 0x0096
    3652:	70 91 97 00 	lds	r23, 0x0097
    3656:	87 e0       	ldi	r24, 0x07	; 7
    3658:	90 e0       	ldi	r25, 0x00	; 0
    365a:	0e 94 68 1e 	call	0x3cd0	; 0x3cd0 <__eeupd_word_m32>
    365e:	60 91 98 00 	lds	r22, 0x0098
    3662:	89 e0       	ldi	r24, 0x09	; 9
    3664:	90 e0       	ldi	r25, 0x00	; 0
    3666:	0e 94 57 1e 	call	0x3cae	; 0x3cae <__eeupd_byte_m32>
    366a:	60 91 99 00 	lds	r22, 0x0099
    366e:	8a e0       	ldi	r24, 0x0A	; 10
    3670:	90 e0       	ldi	r25, 0x00	; 0
    3672:	0e 94 57 1e 	call	0x3cae	; 0x3cae <__eeupd_byte_m32>
    3676:	60 91 95 00 	lds	r22, 0x0095
    367a:	8b e0       	ldi	r24, 0x0B	; 11
    367c:	90 e0       	ldi	r25, 0x00	; 0
    367e:	0e 94 57 1e 	call	0x3cae	; 0x3cae <__eeupd_byte_m32>
    3682:	60 91 8e 00 	lds	r22, 0x008E
    3686:	8c e0       	ldi	r24, 0x0C	; 12
    3688:	90 e0       	ldi	r25, 0x00	; 0
    368a:	0e 94 57 1e 	call	0x3cae	; 0x3cae <__eeupd_byte_m32>
    368e:	08 95       	ret

00003690 <LoadValuesFromEEPROM>:
    3690:	80 e0       	ldi	r24, 0x00	; 0
    3692:	90 e0       	ldi	r25, 0x00	; 0
    3694:	0e 94 49 1e 	call	0x3c92	; 0x3c92 <__eerd_byte_m32>
    3698:	80 93 9a 00 	sts	0x009A, r24
    369c:	81 e0       	ldi	r24, 0x01	; 1
    369e:	90 e0       	ldi	r25, 0x00	; 0
    36a0:	0e 94 49 1e 	call	0x3c92	; 0x3c92 <__eerd_byte_m32>
    36a4:	80 93 8f 00 	sts	0x008F, r24
    36a8:	82 e0       	ldi	r24, 0x02	; 2
    36aa:	90 e0       	ldi	r25, 0x00	; 0
    36ac:	0e 94 49 1e 	call	0x3c92	; 0x3c92 <__eerd_byte_m32>
    36b0:	80 93 9c 00 	sts	0x009C, r24
    36b4:	83 e0       	ldi	r24, 0x03	; 3
    36b6:	90 e0       	ldi	r25, 0x00	; 0
    36b8:	0e 94 49 1e 	call	0x3c92	; 0x3c92 <__eerd_byte_m32>
    36bc:	80 93 90 00 	sts	0x0090, r24
    36c0:	84 e0       	ldi	r24, 0x04	; 4
    36c2:	90 e0       	ldi	r25, 0x00	; 0
    36c4:	0e 94 49 1e 	call	0x3c92	; 0x3c92 <__eerd_byte_m32>
    36c8:	80 93 9b 00 	sts	0x009B, r24
    36cc:	85 e0       	ldi	r24, 0x05	; 5
    36ce:	90 e0       	ldi	r25, 0x00	; 0
    36d0:	0e 94 51 1e 	call	0x3ca2	; 0x3ca2 <__eerd_word_m32>
    36d4:	90 93 9e 00 	sts	0x009E, r25
    36d8:	80 93 9d 00 	sts	0x009D, r24
    36dc:	87 e0       	ldi	r24, 0x07	; 7
    36de:	90 e0       	ldi	r25, 0x00	; 0
    36e0:	0e 94 51 1e 	call	0x3ca2	; 0x3ca2 <__eerd_word_m32>
    36e4:	90 93 97 00 	sts	0x0097, r25
    36e8:	80 93 96 00 	sts	0x0096, r24
    36ec:	89 e0       	ldi	r24, 0x09	; 9
    36ee:	90 e0       	ldi	r25, 0x00	; 0
    36f0:	0e 94 49 1e 	call	0x3c92	; 0x3c92 <__eerd_byte_m32>
    36f4:	80 93 98 00 	sts	0x0098, r24
    36f8:	8a e0       	ldi	r24, 0x0A	; 10
    36fa:	90 e0       	ldi	r25, 0x00	; 0
    36fc:	0e 94 49 1e 	call	0x3c92	; 0x3c92 <__eerd_byte_m32>
    3700:	80 93 99 00 	sts	0x0099, r24
    3704:	8b e0       	ldi	r24, 0x0B	; 11
    3706:	90 e0       	ldi	r25, 0x00	; 0
    3708:	0e 94 49 1e 	call	0x3c92	; 0x3c92 <__eerd_byte_m32>
    370c:	80 93 95 00 	sts	0x0095, r24
    3710:	8c e0       	ldi	r24, 0x0C	; 12
    3712:	90 e0       	ldi	r25, 0x00	; 0
    3714:	0e 94 49 1e 	call	0x3c92	; 0x3c92 <__eerd_byte_m32>
    3718:	80 93 8e 00 	sts	0x008E, r24
    371c:	08 95       	ret

0000371e <main>:
    371e:	0e 94 48 1b 	call	0x3690	; 0x3690 <LoadValuesFromEEPROM>
    3722:	0e 94 a3 0f 	call	0x1f46	; 0x1f46 <CalculateCoefficients>
    3726:	0e 94 c2 10 	call	0x2184	; 0x2184 <init>
    372a:	0e 94 3a 11 	call	0x2274	; 0x2274 <LCD_init>
    372e:	0e 94 09 18 	call	0x3012	; 0x3012 <DS18B20_convertTemp>
    3732:	88 e8       	ldi	r24, 0x88	; 136
    3734:	93 e1       	ldi	r25, 0x13	; 19
    3736:	28 ec       	ldi	r18, 0xC8	; 200
    3738:	30 e0       	ldi	r19, 0x00	; 0
    373a:	f9 01       	movw	r30, r18
    373c:	31 97       	sbiw	r30, 0x01	; 1
    373e:	f1 f7       	brne	.-4      	; 0x373c <main+0x1e>
    3740:	01 97       	sbiw	r24, 0x01	; 1
    3742:	d9 f7       	brne	.-10     	; 0x373a <main+0x1c>
    3744:	81 e0       	ldi	r24, 0x01	; 1
    3746:	0e 94 1f 11 	call	0x223e	; 0x223e <LCD_clear>
    374a:	88 e8       	ldi	r24, 0x88	; 136
    374c:	93 e1       	ldi	r25, 0x13	; 19
    374e:	28 ec       	ldi	r18, 0xC8	; 200
    3750:	30 e0       	ldi	r19, 0x00	; 0
    3752:	f9 01       	movw	r30, r18
    3754:	31 97       	sbiw	r30, 0x01	; 1
    3756:	f1 f7       	brne	.-4      	; 0x3754 <main+0x36>
    3758:	01 97       	sbiw	r24, 0x01	; 1
    375a:	d9 f7       	brne	.-10     	; 0x3752 <main+0x34>
    375c:	80 e0       	ldi	r24, 0x00	; 0
    375e:	0e 94 1f 11 	call	0x223e	; 0x223e <LCD_clear>
    3762:	88 e8       	ldi	r24, 0x88	; 136
    3764:	93 e1       	ldi	r25, 0x13	; 19
    3766:	28 ec       	ldi	r18, 0xC8	; 200
    3768:	30 e0       	ldi	r19, 0x00	; 0
    376a:	f9 01       	movw	r30, r18
    376c:	31 97       	sbiw	r30, 0x01	; 1
    376e:	f1 f7       	brne	.-4      	; 0x376c <main+0x4e>
    3770:	01 97       	sbiw	r24, 0x01	; 1
    3772:	d9 f7       	brne	.-10     	; 0x376a <main+0x4c>
    3774:	0e 94 4c 17 	call	0x2e98	; 0x2e98 <CheckButton>
    3778:	80 91 60 00 	lds	r24, 0x0060
    377c:	81 ff       	sbrs	r24, 1
    377e:	07 c0       	rjmp	.+14     	; 0x378e <main+0x70>
    3780:	0e 94 1e 14 	call	0x283c	; 0x283c <ExecuteButton>
    3784:	80 91 60 00 	lds	r24, 0x0060
    3788:	8d 7f       	andi	r24, 0xFD	; 253
    378a:	80 93 60 00 	sts	0x0060, r24
    378e:	80 91 60 00 	lds	r24, 0x0060
    3792:	80 ff       	sbrs	r24, 0
    3794:	ef cf       	rjmp	.-34     	; 0x3774 <main+0x56>
    3796:	80 91 60 00 	lds	r24, 0x0060
    379a:	84 fd       	sbrc	r24, 4
    379c:	04 c0       	rjmp	.+8      	; 0x37a6 <main+0x88>
    379e:	80 91 60 00 	lds	r24, 0x0060
    37a2:	85 ff       	sbrs	r24, 5
    37a4:	02 c0       	rjmp	.+4      	; 0x37aa <main+0x8c>
    37a6:	c3 98       	cbi	0x18, 3	; 24
    37a8:	01 c0       	rjmp	.+2      	; 0x37ac <main+0x8e>
    37aa:	c3 9a       	sbi	0x18, 3	; 24
    37ac:	81 e0       	ldi	r24, 0x01	; 1
    37ae:	0e 94 b6 12 	call	0x256c	; 0x256c <ReadMAX6675>
    37b2:	82 e0       	ldi	r24, 0x02	; 2
    37b4:	0e 94 b6 12 	call	0x256c	; 0x256c <ReadMAX6675>
    37b8:	0e 94 17 18 	call	0x302e	; 0x302e <DS18B20_getTemp>
    37bc:	0e 94 09 18 	call	0x3012	; 0x3012 <DS18B20_convertTemp>
    37c0:	0e 94 57 19 	call	0x32ae	; 0x32ae <Work_T12_M12>
    37c4:	0e 94 b9 18 	call	0x3172	; 0x3172 <Work_T3_M3>
    37c8:	80 91 60 00 	lds	r24, 0x0060
    37cc:	83 ff       	sbrs	r24, 3
    37ce:	1c c0       	rjmp	.+56     	; 0x3808 <main+0xea>
    37d0:	80 91 64 00 	lds	r24, 0x0064
    37d4:	81 50       	subi	r24, 0x01	; 1
    37d6:	80 93 64 00 	sts	0x0064, r24
    37da:	80 91 64 00 	lds	r24, 0x0064
    37de:	88 23       	and	r24, r24
    37e0:	a9 f4       	brne	.+42     	; 0x380c <main+0xee>
    37e2:	80 91 60 00 	lds	r24, 0x0060
    37e6:	87 7f       	andi	r24, 0xF7	; 247
    37e8:	80 93 60 00 	sts	0x0060, r24
    37ec:	80 e0       	ldi	r24, 0x00	; 0
    37ee:	0e 94 1f 11 	call	0x223e	; 0x223e <LCD_clear>
    37f2:	0e 94 01 1b 	call	0x3602	; 0x3602 <UpdateValuesFromEEPROM>
    37f6:	0e 94 a3 0f 	call	0x1f46	; 0x1f46 <CalculateCoefficients>
    37fa:	80 91 9a 00 	lds	r24, 0x009A
    37fe:	88 23       	and	r24, r24
    3800:	11 f0       	breq	.+4      	; 0x3806 <main+0xe8>
    3802:	96 98       	cbi	0x12, 6	; 18
    3804:	01 c0       	rjmp	.+2      	; 0x3808 <main+0xea>
    3806:	96 9a       	sbi	0x12, 6	; 18
    3808:	0e 94 eb 16 	call	0x2dd6	; 0x2dd6 <OutInfoToLCD>
    380c:	80 91 60 00 	lds	r24, 0x0060
    3810:	84 fd       	sbrc	r24, 4
    3812:	04 c0       	rjmp	.+8      	; 0x381c <main+0xfe>
    3814:	80 91 60 00 	lds	r24, 0x0060
    3818:	85 ff       	sbrs	r24, 5
    381a:	02 c0       	rjmp	.+4      	; 0x3820 <main+0x102>
    381c:	c3 9a       	sbi	0x18, 3	; 24
    381e:	01 c0       	rjmp	.+2      	; 0x3822 <main+0x104>
    3820:	c3 98       	cbi	0x18, 3	; 24
    3822:	80 91 60 00 	lds	r24, 0x0060
    3826:	8e 7f       	andi	r24, 0xFE	; 254
    3828:	80 93 60 00 	sts	0x0060, r24
    382c:	a3 cf       	rjmp	.-186    	; 0x3774 <main+0x56>

0000382e <__subsf3>:
    382e:	50 58       	subi	r21, 0x80	; 128

00003830 <__addsf3>:
    3830:	bb 27       	eor	r27, r27
    3832:	aa 27       	eor	r26, r26
    3834:	0e d0       	rcall	.+28     	; 0x3852 <__addsf3x>
    3836:	48 c1       	rjmp	.+656    	; 0x3ac8 <__fp_round>
    3838:	39 d1       	rcall	.+626    	; 0x3aac <__fp_pscA>
    383a:	30 f0       	brcs	.+12     	; 0x3848 <__addsf3+0x18>
    383c:	3e d1       	rcall	.+636    	; 0x3aba <__fp_pscB>
    383e:	20 f0       	brcs	.+8      	; 0x3848 <__addsf3+0x18>
    3840:	31 f4       	brne	.+12     	; 0x384e <__addsf3+0x1e>
    3842:	9f 3f       	cpi	r25, 0xFF	; 255
    3844:	11 f4       	brne	.+4      	; 0x384a <__addsf3+0x1a>
    3846:	1e f4       	brtc	.+6      	; 0x384e <__addsf3+0x1e>
    3848:	2e c1       	rjmp	.+604    	; 0x3aa6 <__fp_nan>
    384a:	0e f4       	brtc	.+2      	; 0x384e <__addsf3+0x1e>
    384c:	e0 95       	com	r30
    384e:	e7 fb       	bst	r30, 7
    3850:	24 c1       	rjmp	.+584    	; 0x3a9a <__fp_inf>

00003852 <__addsf3x>:
    3852:	e9 2f       	mov	r30, r25
    3854:	4a d1       	rcall	.+660    	; 0x3aea <__fp_split3>
    3856:	80 f3       	brcs	.-32     	; 0x3838 <__addsf3+0x8>
    3858:	ba 17       	cp	r27, r26
    385a:	62 07       	cpc	r22, r18
    385c:	73 07       	cpc	r23, r19
    385e:	84 07       	cpc	r24, r20
    3860:	95 07       	cpc	r25, r21
    3862:	18 f0       	brcs	.+6      	; 0x386a <__addsf3x+0x18>
    3864:	71 f4       	brne	.+28     	; 0x3882 <__addsf3x+0x30>
    3866:	9e f5       	brtc	.+102    	; 0x38ce <__addsf3x+0x7c>
    3868:	62 c1       	rjmp	.+708    	; 0x3b2e <__fp_zero>
    386a:	0e f4       	brtc	.+2      	; 0x386e <__addsf3x+0x1c>
    386c:	e0 95       	com	r30
    386e:	0b 2e       	mov	r0, r27
    3870:	ba 2f       	mov	r27, r26
    3872:	a0 2d       	mov	r26, r0
    3874:	0b 01       	movw	r0, r22
    3876:	b9 01       	movw	r22, r18
    3878:	90 01       	movw	r18, r0
    387a:	0c 01       	movw	r0, r24
    387c:	ca 01       	movw	r24, r20
    387e:	a0 01       	movw	r20, r0
    3880:	11 24       	eor	r1, r1
    3882:	ff 27       	eor	r31, r31
    3884:	59 1b       	sub	r21, r25
    3886:	99 f0       	breq	.+38     	; 0x38ae <__addsf3x+0x5c>
    3888:	59 3f       	cpi	r21, 0xF9	; 249
    388a:	50 f4       	brcc	.+20     	; 0x38a0 <__addsf3x+0x4e>
    388c:	50 3e       	cpi	r21, 0xE0	; 224
    388e:	68 f1       	brcs	.+90     	; 0x38ea <__addsf3x+0x98>
    3890:	1a 16       	cp	r1, r26
    3892:	f0 40       	sbci	r31, 0x00	; 0
    3894:	a2 2f       	mov	r26, r18
    3896:	23 2f       	mov	r18, r19
    3898:	34 2f       	mov	r19, r20
    389a:	44 27       	eor	r20, r20
    389c:	58 5f       	subi	r21, 0xF8	; 248
    389e:	f3 cf       	rjmp	.-26     	; 0x3886 <__addsf3x+0x34>
    38a0:	46 95       	lsr	r20
    38a2:	37 95       	ror	r19
    38a4:	27 95       	ror	r18
    38a6:	a7 95       	ror	r26
    38a8:	f0 40       	sbci	r31, 0x00	; 0
    38aa:	53 95       	inc	r21
    38ac:	c9 f7       	brne	.-14     	; 0x38a0 <__addsf3x+0x4e>
    38ae:	7e f4       	brtc	.+30     	; 0x38ce <__addsf3x+0x7c>
    38b0:	1f 16       	cp	r1, r31
    38b2:	ba 0b       	sbc	r27, r26
    38b4:	62 0b       	sbc	r22, r18
    38b6:	73 0b       	sbc	r23, r19
    38b8:	84 0b       	sbc	r24, r20
    38ba:	ba f0       	brmi	.+46     	; 0x38ea <__addsf3x+0x98>
    38bc:	91 50       	subi	r25, 0x01	; 1
    38be:	a1 f0       	breq	.+40     	; 0x38e8 <__addsf3x+0x96>
    38c0:	ff 0f       	add	r31, r31
    38c2:	bb 1f       	adc	r27, r27
    38c4:	66 1f       	adc	r22, r22
    38c6:	77 1f       	adc	r23, r23
    38c8:	88 1f       	adc	r24, r24
    38ca:	c2 f7       	brpl	.-16     	; 0x38bc <__addsf3x+0x6a>
    38cc:	0e c0       	rjmp	.+28     	; 0x38ea <__addsf3x+0x98>
    38ce:	ba 0f       	add	r27, r26
    38d0:	62 1f       	adc	r22, r18
    38d2:	73 1f       	adc	r23, r19
    38d4:	84 1f       	adc	r24, r20
    38d6:	48 f4       	brcc	.+18     	; 0x38ea <__addsf3x+0x98>
    38d8:	87 95       	ror	r24
    38da:	77 95       	ror	r23
    38dc:	67 95       	ror	r22
    38de:	b7 95       	ror	r27
    38e0:	f7 95       	ror	r31
    38e2:	9e 3f       	cpi	r25, 0xFE	; 254
    38e4:	08 f0       	brcs	.+2      	; 0x38e8 <__addsf3x+0x96>
    38e6:	b3 cf       	rjmp	.-154    	; 0x384e <__addsf3+0x1e>
    38e8:	93 95       	inc	r25
    38ea:	88 0f       	add	r24, r24
    38ec:	08 f0       	brcs	.+2      	; 0x38f0 <__addsf3x+0x9e>
    38ee:	99 27       	eor	r25, r25
    38f0:	ee 0f       	add	r30, r30
    38f2:	97 95       	ror	r25
    38f4:	87 95       	ror	r24
    38f6:	08 95       	ret

000038f8 <__divsf3>:
    38f8:	0c d0       	rcall	.+24     	; 0x3912 <__divsf3x>
    38fa:	e6 c0       	rjmp	.+460    	; 0x3ac8 <__fp_round>
    38fc:	de d0       	rcall	.+444    	; 0x3aba <__fp_pscB>
    38fe:	40 f0       	brcs	.+16     	; 0x3910 <__divsf3+0x18>
    3900:	d5 d0       	rcall	.+426    	; 0x3aac <__fp_pscA>
    3902:	30 f0       	brcs	.+12     	; 0x3910 <__divsf3+0x18>
    3904:	21 f4       	brne	.+8      	; 0x390e <__divsf3+0x16>
    3906:	5f 3f       	cpi	r21, 0xFF	; 255
    3908:	19 f0       	breq	.+6      	; 0x3910 <__divsf3+0x18>
    390a:	c7 c0       	rjmp	.+398    	; 0x3a9a <__fp_inf>
    390c:	51 11       	cpse	r21, r1
    390e:	10 c1       	rjmp	.+544    	; 0x3b30 <__fp_szero>
    3910:	ca c0       	rjmp	.+404    	; 0x3aa6 <__fp_nan>

00003912 <__divsf3x>:
    3912:	eb d0       	rcall	.+470    	; 0x3aea <__fp_split3>
    3914:	98 f3       	brcs	.-26     	; 0x38fc <__divsf3+0x4>

00003916 <__divsf3_pse>:
    3916:	99 23       	and	r25, r25
    3918:	c9 f3       	breq	.-14     	; 0x390c <__divsf3+0x14>
    391a:	55 23       	and	r21, r21
    391c:	b1 f3       	breq	.-20     	; 0x390a <__divsf3+0x12>
    391e:	95 1b       	sub	r25, r21
    3920:	55 0b       	sbc	r21, r21
    3922:	bb 27       	eor	r27, r27
    3924:	aa 27       	eor	r26, r26
    3926:	62 17       	cp	r22, r18
    3928:	73 07       	cpc	r23, r19
    392a:	84 07       	cpc	r24, r20
    392c:	38 f0       	brcs	.+14     	; 0x393c <__divsf3_pse+0x26>
    392e:	9f 5f       	subi	r25, 0xFF	; 255
    3930:	5f 4f       	sbci	r21, 0xFF	; 255
    3932:	22 0f       	add	r18, r18
    3934:	33 1f       	adc	r19, r19
    3936:	44 1f       	adc	r20, r20
    3938:	aa 1f       	adc	r26, r26
    393a:	a9 f3       	breq	.-22     	; 0x3926 <__divsf3_pse+0x10>
    393c:	33 d0       	rcall	.+102    	; 0x39a4 <__divsf3_pse+0x8e>
    393e:	0e 2e       	mov	r0, r30
    3940:	3a f0       	brmi	.+14     	; 0x3950 <__divsf3_pse+0x3a>
    3942:	e0 e8       	ldi	r30, 0x80	; 128
    3944:	30 d0       	rcall	.+96     	; 0x39a6 <__divsf3_pse+0x90>
    3946:	91 50       	subi	r25, 0x01	; 1
    3948:	50 40       	sbci	r21, 0x00	; 0
    394a:	e6 95       	lsr	r30
    394c:	00 1c       	adc	r0, r0
    394e:	ca f7       	brpl	.-14     	; 0x3942 <__divsf3_pse+0x2c>
    3950:	29 d0       	rcall	.+82     	; 0x39a4 <__divsf3_pse+0x8e>
    3952:	fe 2f       	mov	r31, r30
    3954:	27 d0       	rcall	.+78     	; 0x39a4 <__divsf3_pse+0x8e>
    3956:	66 0f       	add	r22, r22
    3958:	77 1f       	adc	r23, r23
    395a:	88 1f       	adc	r24, r24
    395c:	bb 1f       	adc	r27, r27
    395e:	26 17       	cp	r18, r22
    3960:	37 07       	cpc	r19, r23
    3962:	48 07       	cpc	r20, r24
    3964:	ab 07       	cpc	r26, r27
    3966:	b0 e8       	ldi	r27, 0x80	; 128
    3968:	09 f0       	breq	.+2      	; 0x396c <__divsf3_pse+0x56>
    396a:	bb 0b       	sbc	r27, r27
    396c:	80 2d       	mov	r24, r0
    396e:	bf 01       	movw	r22, r30
    3970:	ff 27       	eor	r31, r31
    3972:	93 58       	subi	r25, 0x83	; 131
    3974:	5f 4f       	sbci	r21, 0xFF	; 255
    3976:	2a f0       	brmi	.+10     	; 0x3982 <__divsf3_pse+0x6c>
    3978:	9e 3f       	cpi	r25, 0xFE	; 254
    397a:	51 05       	cpc	r21, r1
    397c:	68 f0       	brcs	.+26     	; 0x3998 <__divsf3_pse+0x82>
    397e:	8d c0       	rjmp	.+282    	; 0x3a9a <__fp_inf>
    3980:	d7 c0       	rjmp	.+430    	; 0x3b30 <__fp_szero>
    3982:	5f 3f       	cpi	r21, 0xFF	; 255
    3984:	ec f3       	brlt	.-6      	; 0x3980 <__divsf3_pse+0x6a>
    3986:	98 3e       	cpi	r25, 0xE8	; 232
    3988:	dc f3       	brlt	.-10     	; 0x3980 <__divsf3_pse+0x6a>
    398a:	86 95       	lsr	r24
    398c:	77 95       	ror	r23
    398e:	67 95       	ror	r22
    3990:	b7 95       	ror	r27
    3992:	f7 95       	ror	r31
    3994:	9f 5f       	subi	r25, 0xFF	; 255
    3996:	c9 f7       	brne	.-14     	; 0x398a <__divsf3_pse+0x74>
    3998:	88 0f       	add	r24, r24
    399a:	91 1d       	adc	r25, r1
    399c:	96 95       	lsr	r25
    399e:	87 95       	ror	r24
    39a0:	97 f9       	bld	r25, 7
    39a2:	08 95       	ret
    39a4:	e1 e0       	ldi	r30, 0x01	; 1
    39a6:	66 0f       	add	r22, r22
    39a8:	77 1f       	adc	r23, r23
    39aa:	88 1f       	adc	r24, r24
    39ac:	bb 1f       	adc	r27, r27
    39ae:	62 17       	cp	r22, r18
    39b0:	73 07       	cpc	r23, r19
    39b2:	84 07       	cpc	r24, r20
    39b4:	ba 07       	cpc	r27, r26
    39b6:	20 f0       	brcs	.+8      	; 0x39c0 <__divsf3_pse+0xaa>
    39b8:	62 1b       	sub	r22, r18
    39ba:	73 0b       	sbc	r23, r19
    39bc:	84 0b       	sbc	r24, r20
    39be:	ba 0b       	sbc	r27, r26
    39c0:	ee 1f       	adc	r30, r30
    39c2:	88 f7       	brcc	.-30     	; 0x39a6 <__divsf3_pse+0x90>
    39c4:	e0 95       	com	r30
    39c6:	08 95       	ret

000039c8 <__fixunssfsi>:
    39c8:	98 d0       	rcall	.+304    	; 0x3afa <__fp_splitA>
    39ca:	88 f0       	brcs	.+34     	; 0x39ee <__fixunssfsi+0x26>
    39cc:	9f 57       	subi	r25, 0x7F	; 127
    39ce:	90 f0       	brcs	.+36     	; 0x39f4 <__fixunssfsi+0x2c>
    39d0:	b9 2f       	mov	r27, r25
    39d2:	99 27       	eor	r25, r25
    39d4:	b7 51       	subi	r27, 0x17	; 23
    39d6:	a0 f0       	brcs	.+40     	; 0x3a00 <__fixunssfsi+0x38>
    39d8:	d1 f0       	breq	.+52     	; 0x3a0e <__fixunssfsi+0x46>
    39da:	66 0f       	add	r22, r22
    39dc:	77 1f       	adc	r23, r23
    39de:	88 1f       	adc	r24, r24
    39e0:	99 1f       	adc	r25, r25
    39e2:	1a f0       	brmi	.+6      	; 0x39ea <__fixunssfsi+0x22>
    39e4:	ba 95       	dec	r27
    39e6:	c9 f7       	brne	.-14     	; 0x39da <__fixunssfsi+0x12>
    39e8:	12 c0       	rjmp	.+36     	; 0x3a0e <__fixunssfsi+0x46>
    39ea:	b1 30       	cpi	r27, 0x01	; 1
    39ec:	81 f0       	breq	.+32     	; 0x3a0e <__fixunssfsi+0x46>
    39ee:	9f d0       	rcall	.+318    	; 0x3b2e <__fp_zero>
    39f0:	b1 e0       	ldi	r27, 0x01	; 1
    39f2:	08 95       	ret
    39f4:	9c c0       	rjmp	.+312    	; 0x3b2e <__fp_zero>
    39f6:	67 2f       	mov	r22, r23
    39f8:	78 2f       	mov	r23, r24
    39fa:	88 27       	eor	r24, r24
    39fc:	b8 5f       	subi	r27, 0xF8	; 248
    39fe:	39 f0       	breq	.+14     	; 0x3a0e <__fixunssfsi+0x46>
    3a00:	b9 3f       	cpi	r27, 0xF9	; 249
    3a02:	cc f3       	brlt	.-14     	; 0x39f6 <__fixunssfsi+0x2e>
    3a04:	86 95       	lsr	r24
    3a06:	77 95       	ror	r23
    3a08:	67 95       	ror	r22
    3a0a:	b3 95       	inc	r27
    3a0c:	d9 f7       	brne	.-10     	; 0x3a04 <__fixunssfsi+0x3c>
    3a0e:	3e f4       	brtc	.+14     	; 0x3a1e <__fixunssfsi+0x56>
    3a10:	90 95       	com	r25
    3a12:	80 95       	com	r24
    3a14:	70 95       	com	r23
    3a16:	61 95       	neg	r22
    3a18:	7f 4f       	sbci	r23, 0xFF	; 255
    3a1a:	8f 4f       	sbci	r24, 0xFF	; 255
    3a1c:	9f 4f       	sbci	r25, 0xFF	; 255
    3a1e:	08 95       	ret

00003a20 <__floatunsisf>:
    3a20:	e8 94       	clt
    3a22:	09 c0       	rjmp	.+18     	; 0x3a36 <__floatsisf+0x12>

00003a24 <__floatsisf>:
    3a24:	97 fb       	bst	r25, 7
    3a26:	3e f4       	brtc	.+14     	; 0x3a36 <__floatsisf+0x12>
    3a28:	90 95       	com	r25
    3a2a:	80 95       	com	r24
    3a2c:	70 95       	com	r23
    3a2e:	61 95       	neg	r22
    3a30:	7f 4f       	sbci	r23, 0xFF	; 255
    3a32:	8f 4f       	sbci	r24, 0xFF	; 255
    3a34:	9f 4f       	sbci	r25, 0xFF	; 255
    3a36:	99 23       	and	r25, r25
    3a38:	a9 f0       	breq	.+42     	; 0x3a64 <__floatsisf+0x40>
    3a3a:	f9 2f       	mov	r31, r25
    3a3c:	96 e9       	ldi	r25, 0x96	; 150
    3a3e:	bb 27       	eor	r27, r27
    3a40:	93 95       	inc	r25
    3a42:	f6 95       	lsr	r31
    3a44:	87 95       	ror	r24
    3a46:	77 95       	ror	r23
    3a48:	67 95       	ror	r22
    3a4a:	b7 95       	ror	r27
    3a4c:	f1 11       	cpse	r31, r1
    3a4e:	f8 cf       	rjmp	.-16     	; 0x3a40 <__floatsisf+0x1c>
    3a50:	fa f4       	brpl	.+62     	; 0x3a90 <__floatsisf+0x6c>
    3a52:	bb 0f       	add	r27, r27
    3a54:	11 f4       	brne	.+4      	; 0x3a5a <__floatsisf+0x36>
    3a56:	60 ff       	sbrs	r22, 0
    3a58:	1b c0       	rjmp	.+54     	; 0x3a90 <__floatsisf+0x6c>
    3a5a:	6f 5f       	subi	r22, 0xFF	; 255
    3a5c:	7f 4f       	sbci	r23, 0xFF	; 255
    3a5e:	8f 4f       	sbci	r24, 0xFF	; 255
    3a60:	9f 4f       	sbci	r25, 0xFF	; 255
    3a62:	16 c0       	rjmp	.+44     	; 0x3a90 <__floatsisf+0x6c>
    3a64:	88 23       	and	r24, r24
    3a66:	11 f0       	breq	.+4      	; 0x3a6c <__floatsisf+0x48>
    3a68:	96 e9       	ldi	r25, 0x96	; 150
    3a6a:	11 c0       	rjmp	.+34     	; 0x3a8e <__floatsisf+0x6a>
    3a6c:	77 23       	and	r23, r23
    3a6e:	21 f0       	breq	.+8      	; 0x3a78 <__floatsisf+0x54>
    3a70:	9e e8       	ldi	r25, 0x8E	; 142
    3a72:	87 2f       	mov	r24, r23
    3a74:	76 2f       	mov	r23, r22
    3a76:	05 c0       	rjmp	.+10     	; 0x3a82 <__floatsisf+0x5e>
    3a78:	66 23       	and	r22, r22
    3a7a:	71 f0       	breq	.+28     	; 0x3a98 <__floatsisf+0x74>
    3a7c:	96 e8       	ldi	r25, 0x86	; 134
    3a7e:	86 2f       	mov	r24, r22
    3a80:	70 e0       	ldi	r23, 0x00	; 0
    3a82:	60 e0       	ldi	r22, 0x00	; 0
    3a84:	2a f0       	brmi	.+10     	; 0x3a90 <__floatsisf+0x6c>
    3a86:	9a 95       	dec	r25
    3a88:	66 0f       	add	r22, r22
    3a8a:	77 1f       	adc	r23, r23
    3a8c:	88 1f       	adc	r24, r24
    3a8e:	da f7       	brpl	.-10     	; 0x3a86 <__floatsisf+0x62>
    3a90:	88 0f       	add	r24, r24
    3a92:	96 95       	lsr	r25
    3a94:	87 95       	ror	r24
    3a96:	97 f9       	bld	r25, 7
    3a98:	08 95       	ret

00003a9a <__fp_inf>:
    3a9a:	97 f9       	bld	r25, 7
    3a9c:	9f 67       	ori	r25, 0x7F	; 127
    3a9e:	80 e8       	ldi	r24, 0x80	; 128
    3aa0:	70 e0       	ldi	r23, 0x00	; 0
    3aa2:	60 e0       	ldi	r22, 0x00	; 0
    3aa4:	08 95       	ret

00003aa6 <__fp_nan>:
    3aa6:	9f ef       	ldi	r25, 0xFF	; 255
    3aa8:	80 ec       	ldi	r24, 0xC0	; 192
    3aaa:	08 95       	ret

00003aac <__fp_pscA>:
    3aac:	00 24       	eor	r0, r0
    3aae:	0a 94       	dec	r0
    3ab0:	16 16       	cp	r1, r22
    3ab2:	17 06       	cpc	r1, r23
    3ab4:	18 06       	cpc	r1, r24
    3ab6:	09 06       	cpc	r0, r25
    3ab8:	08 95       	ret

00003aba <__fp_pscB>:
    3aba:	00 24       	eor	r0, r0
    3abc:	0a 94       	dec	r0
    3abe:	12 16       	cp	r1, r18
    3ac0:	13 06       	cpc	r1, r19
    3ac2:	14 06       	cpc	r1, r20
    3ac4:	05 06       	cpc	r0, r21
    3ac6:	08 95       	ret

00003ac8 <__fp_round>:
    3ac8:	09 2e       	mov	r0, r25
    3aca:	03 94       	inc	r0
    3acc:	00 0c       	add	r0, r0
    3ace:	11 f4       	brne	.+4      	; 0x3ad4 <__fp_round+0xc>
    3ad0:	88 23       	and	r24, r24
    3ad2:	52 f0       	brmi	.+20     	; 0x3ae8 <__fp_round+0x20>
    3ad4:	bb 0f       	add	r27, r27
    3ad6:	40 f4       	brcc	.+16     	; 0x3ae8 <__fp_round+0x20>
    3ad8:	bf 2b       	or	r27, r31
    3ada:	11 f4       	brne	.+4      	; 0x3ae0 <__fp_round+0x18>
    3adc:	60 ff       	sbrs	r22, 0
    3ade:	04 c0       	rjmp	.+8      	; 0x3ae8 <__fp_round+0x20>
    3ae0:	6f 5f       	subi	r22, 0xFF	; 255
    3ae2:	7f 4f       	sbci	r23, 0xFF	; 255
    3ae4:	8f 4f       	sbci	r24, 0xFF	; 255
    3ae6:	9f 4f       	sbci	r25, 0xFF	; 255
    3ae8:	08 95       	ret

00003aea <__fp_split3>:
    3aea:	57 fd       	sbrc	r21, 7
    3aec:	90 58       	subi	r25, 0x80	; 128
    3aee:	44 0f       	add	r20, r20
    3af0:	55 1f       	adc	r21, r21
    3af2:	59 f0       	breq	.+22     	; 0x3b0a <__fp_splitA+0x10>
    3af4:	5f 3f       	cpi	r21, 0xFF	; 255
    3af6:	71 f0       	breq	.+28     	; 0x3b14 <__fp_splitA+0x1a>
    3af8:	47 95       	ror	r20

00003afa <__fp_splitA>:
    3afa:	88 0f       	add	r24, r24
    3afc:	97 fb       	bst	r25, 7
    3afe:	99 1f       	adc	r25, r25
    3b00:	61 f0       	breq	.+24     	; 0x3b1a <__fp_splitA+0x20>
    3b02:	9f 3f       	cpi	r25, 0xFF	; 255
    3b04:	79 f0       	breq	.+30     	; 0x3b24 <__fp_splitA+0x2a>
    3b06:	87 95       	ror	r24
    3b08:	08 95       	ret
    3b0a:	12 16       	cp	r1, r18
    3b0c:	13 06       	cpc	r1, r19
    3b0e:	14 06       	cpc	r1, r20
    3b10:	55 1f       	adc	r21, r21
    3b12:	f2 cf       	rjmp	.-28     	; 0x3af8 <__fp_split3+0xe>
    3b14:	46 95       	lsr	r20
    3b16:	f1 df       	rcall	.-30     	; 0x3afa <__fp_splitA>
    3b18:	08 c0       	rjmp	.+16     	; 0x3b2a <__fp_splitA+0x30>
    3b1a:	16 16       	cp	r1, r22
    3b1c:	17 06       	cpc	r1, r23
    3b1e:	18 06       	cpc	r1, r24
    3b20:	99 1f       	adc	r25, r25
    3b22:	f1 cf       	rjmp	.-30     	; 0x3b06 <__fp_splitA+0xc>
    3b24:	86 95       	lsr	r24
    3b26:	71 05       	cpc	r23, r1
    3b28:	61 05       	cpc	r22, r1
    3b2a:	08 94       	sec
    3b2c:	08 95       	ret

00003b2e <__fp_zero>:
    3b2e:	e8 94       	clt

00003b30 <__fp_szero>:
    3b30:	bb 27       	eor	r27, r27
    3b32:	66 27       	eor	r22, r22
    3b34:	77 27       	eor	r23, r23
    3b36:	cb 01       	movw	r24, r22
    3b38:	97 f9       	bld	r25, 7
    3b3a:	08 95       	ret

00003b3c <__gesf2>:
    3b3c:	66 d0       	rcall	.+204    	; 0x3c0a <__fp_cmp>
    3b3e:	08 f4       	brcc	.+2      	; 0x3b42 <__gesf2+0x6>
    3b40:	8f ef       	ldi	r24, 0xFF	; 255
    3b42:	08 95       	ret

00003b44 <__mulsf3>:
    3b44:	0b d0       	rcall	.+22     	; 0x3b5c <__mulsf3x>
    3b46:	c0 cf       	rjmp	.-128    	; 0x3ac8 <__fp_round>
    3b48:	b1 df       	rcall	.-158    	; 0x3aac <__fp_pscA>
    3b4a:	28 f0       	brcs	.+10     	; 0x3b56 <__mulsf3+0x12>
    3b4c:	b6 df       	rcall	.-148    	; 0x3aba <__fp_pscB>
    3b4e:	18 f0       	brcs	.+6      	; 0x3b56 <__mulsf3+0x12>
    3b50:	95 23       	and	r25, r21
    3b52:	09 f0       	breq	.+2      	; 0x3b56 <__mulsf3+0x12>
    3b54:	a2 cf       	rjmp	.-188    	; 0x3a9a <__fp_inf>
    3b56:	a7 cf       	rjmp	.-178    	; 0x3aa6 <__fp_nan>
    3b58:	11 24       	eor	r1, r1
    3b5a:	ea cf       	rjmp	.-44     	; 0x3b30 <__fp_szero>

00003b5c <__mulsf3x>:
    3b5c:	c6 df       	rcall	.-116    	; 0x3aea <__fp_split3>
    3b5e:	a0 f3       	brcs	.-24     	; 0x3b48 <__mulsf3+0x4>

00003b60 <__mulsf3_pse>:
    3b60:	95 9f       	mul	r25, r21
    3b62:	d1 f3       	breq	.-12     	; 0x3b58 <__mulsf3+0x14>
    3b64:	95 0f       	add	r25, r21
    3b66:	50 e0       	ldi	r21, 0x00	; 0
    3b68:	55 1f       	adc	r21, r21
    3b6a:	62 9f       	mul	r22, r18
    3b6c:	f0 01       	movw	r30, r0
    3b6e:	72 9f       	mul	r23, r18
    3b70:	bb 27       	eor	r27, r27
    3b72:	f0 0d       	add	r31, r0
    3b74:	b1 1d       	adc	r27, r1
    3b76:	63 9f       	mul	r22, r19
    3b78:	aa 27       	eor	r26, r26
    3b7a:	f0 0d       	add	r31, r0
    3b7c:	b1 1d       	adc	r27, r1
    3b7e:	aa 1f       	adc	r26, r26
    3b80:	64 9f       	mul	r22, r20
    3b82:	66 27       	eor	r22, r22
    3b84:	b0 0d       	add	r27, r0
    3b86:	a1 1d       	adc	r26, r1
    3b88:	66 1f       	adc	r22, r22
    3b8a:	82 9f       	mul	r24, r18
    3b8c:	22 27       	eor	r18, r18
    3b8e:	b0 0d       	add	r27, r0
    3b90:	a1 1d       	adc	r26, r1
    3b92:	62 1f       	adc	r22, r18
    3b94:	73 9f       	mul	r23, r19
    3b96:	b0 0d       	add	r27, r0
    3b98:	a1 1d       	adc	r26, r1
    3b9a:	62 1f       	adc	r22, r18
    3b9c:	83 9f       	mul	r24, r19
    3b9e:	a0 0d       	add	r26, r0
    3ba0:	61 1d       	adc	r22, r1
    3ba2:	22 1f       	adc	r18, r18
    3ba4:	74 9f       	mul	r23, r20
    3ba6:	33 27       	eor	r19, r19
    3ba8:	a0 0d       	add	r26, r0
    3baa:	61 1d       	adc	r22, r1
    3bac:	23 1f       	adc	r18, r19
    3bae:	84 9f       	mul	r24, r20
    3bb0:	60 0d       	add	r22, r0
    3bb2:	21 1d       	adc	r18, r1
    3bb4:	82 2f       	mov	r24, r18
    3bb6:	76 2f       	mov	r23, r22
    3bb8:	6a 2f       	mov	r22, r26
    3bba:	11 24       	eor	r1, r1
    3bbc:	9f 57       	subi	r25, 0x7F	; 127
    3bbe:	50 40       	sbci	r21, 0x00	; 0
    3bc0:	8a f0       	brmi	.+34     	; 0x3be4 <__mulsf3_pse+0x84>
    3bc2:	e1 f0       	breq	.+56     	; 0x3bfc <__mulsf3_pse+0x9c>
    3bc4:	88 23       	and	r24, r24
    3bc6:	4a f0       	brmi	.+18     	; 0x3bda <__mulsf3_pse+0x7a>
    3bc8:	ee 0f       	add	r30, r30
    3bca:	ff 1f       	adc	r31, r31
    3bcc:	bb 1f       	adc	r27, r27
    3bce:	66 1f       	adc	r22, r22
    3bd0:	77 1f       	adc	r23, r23
    3bd2:	88 1f       	adc	r24, r24
    3bd4:	91 50       	subi	r25, 0x01	; 1
    3bd6:	50 40       	sbci	r21, 0x00	; 0
    3bd8:	a9 f7       	brne	.-22     	; 0x3bc4 <__mulsf3_pse+0x64>
    3bda:	9e 3f       	cpi	r25, 0xFE	; 254
    3bdc:	51 05       	cpc	r21, r1
    3bde:	70 f0       	brcs	.+28     	; 0x3bfc <__mulsf3_pse+0x9c>
    3be0:	5c cf       	rjmp	.-328    	; 0x3a9a <__fp_inf>
    3be2:	a6 cf       	rjmp	.-180    	; 0x3b30 <__fp_szero>
    3be4:	5f 3f       	cpi	r21, 0xFF	; 255
    3be6:	ec f3       	brlt	.-6      	; 0x3be2 <__mulsf3_pse+0x82>
    3be8:	98 3e       	cpi	r25, 0xE8	; 232
    3bea:	dc f3       	brlt	.-10     	; 0x3be2 <__mulsf3_pse+0x82>
    3bec:	86 95       	lsr	r24
    3bee:	77 95       	ror	r23
    3bf0:	67 95       	ror	r22
    3bf2:	b7 95       	ror	r27
    3bf4:	f7 95       	ror	r31
    3bf6:	e7 95       	ror	r30
    3bf8:	9f 5f       	subi	r25, 0xFF	; 255
    3bfa:	c1 f7       	brne	.-16     	; 0x3bec <__mulsf3_pse+0x8c>
    3bfc:	fe 2b       	or	r31, r30
    3bfe:	88 0f       	add	r24, r24
    3c00:	91 1d       	adc	r25, r1
    3c02:	96 95       	lsr	r25
    3c04:	87 95       	ror	r24
    3c06:	97 f9       	bld	r25, 7
    3c08:	08 95       	ret

00003c0a <__fp_cmp>:
    3c0a:	99 0f       	add	r25, r25
    3c0c:	00 08       	sbc	r0, r0
    3c0e:	55 0f       	add	r21, r21
    3c10:	aa 0b       	sbc	r26, r26
    3c12:	e0 e8       	ldi	r30, 0x80	; 128
    3c14:	fe ef       	ldi	r31, 0xFE	; 254
    3c16:	16 16       	cp	r1, r22
    3c18:	17 06       	cpc	r1, r23
    3c1a:	e8 07       	cpc	r30, r24
    3c1c:	f9 07       	cpc	r31, r25
    3c1e:	c0 f0       	brcs	.+48     	; 0x3c50 <__fp_cmp+0x46>
    3c20:	12 16       	cp	r1, r18
    3c22:	13 06       	cpc	r1, r19
    3c24:	e4 07       	cpc	r30, r20
    3c26:	f5 07       	cpc	r31, r21
    3c28:	98 f0       	brcs	.+38     	; 0x3c50 <__fp_cmp+0x46>
    3c2a:	62 1b       	sub	r22, r18
    3c2c:	73 0b       	sbc	r23, r19
    3c2e:	84 0b       	sbc	r24, r20
    3c30:	95 0b       	sbc	r25, r21
    3c32:	39 f4       	brne	.+14     	; 0x3c42 <__fp_cmp+0x38>
    3c34:	0a 26       	eor	r0, r26
    3c36:	61 f0       	breq	.+24     	; 0x3c50 <__fp_cmp+0x46>
    3c38:	23 2b       	or	r18, r19
    3c3a:	24 2b       	or	r18, r20
    3c3c:	25 2b       	or	r18, r21
    3c3e:	21 f4       	brne	.+8      	; 0x3c48 <__fp_cmp+0x3e>
    3c40:	08 95       	ret
    3c42:	0a 26       	eor	r0, r26
    3c44:	09 f4       	brne	.+2      	; 0x3c48 <__fp_cmp+0x3e>
    3c46:	a1 40       	sbci	r26, 0x01	; 1
    3c48:	a6 95       	lsr	r26
    3c4a:	8f ef       	ldi	r24, 0xFF	; 255
    3c4c:	81 1d       	adc	r24, r1
    3c4e:	81 1d       	adc	r24, r1
    3c50:	08 95       	ret

00003c52 <__udivmodqi4>:
    3c52:	99 1b       	sub	r25, r25
    3c54:	79 e0       	ldi	r23, 0x09	; 9
    3c56:	04 c0       	rjmp	.+8      	; 0x3c60 <__udivmodqi4_ep>

00003c58 <__udivmodqi4_loop>:
    3c58:	99 1f       	adc	r25, r25
    3c5a:	96 17       	cp	r25, r22
    3c5c:	08 f0       	brcs	.+2      	; 0x3c60 <__udivmodqi4_ep>
    3c5e:	96 1b       	sub	r25, r22

00003c60 <__udivmodqi4_ep>:
    3c60:	88 1f       	adc	r24, r24
    3c62:	7a 95       	dec	r23
    3c64:	c9 f7       	brne	.-14     	; 0x3c58 <__udivmodqi4_loop>
    3c66:	80 95       	com	r24
    3c68:	08 95       	ret

00003c6a <__udivmodhi4>:
    3c6a:	aa 1b       	sub	r26, r26
    3c6c:	bb 1b       	sub	r27, r27
    3c6e:	51 e1       	ldi	r21, 0x11	; 17
    3c70:	07 c0       	rjmp	.+14     	; 0x3c80 <__udivmodhi4_ep>

00003c72 <__udivmodhi4_loop>:
    3c72:	aa 1f       	adc	r26, r26
    3c74:	bb 1f       	adc	r27, r27
    3c76:	a6 17       	cp	r26, r22
    3c78:	b7 07       	cpc	r27, r23
    3c7a:	10 f0       	brcs	.+4      	; 0x3c80 <__udivmodhi4_ep>
    3c7c:	a6 1b       	sub	r26, r22
    3c7e:	b7 0b       	sbc	r27, r23

00003c80 <__udivmodhi4_ep>:
    3c80:	88 1f       	adc	r24, r24
    3c82:	99 1f       	adc	r25, r25
    3c84:	5a 95       	dec	r21
    3c86:	a9 f7       	brne	.-22     	; 0x3c72 <__udivmodhi4_loop>
    3c88:	80 95       	com	r24
    3c8a:	90 95       	com	r25
    3c8c:	bc 01       	movw	r22, r24
    3c8e:	cd 01       	movw	r24, r26
    3c90:	08 95       	ret

00003c92 <__eerd_byte_m32>:
    3c92:	e1 99       	sbic	0x1c, 1	; 28
    3c94:	fe cf       	rjmp	.-4      	; 0x3c92 <__eerd_byte_m32>
    3c96:	9f bb       	out	0x1f, r25	; 31
    3c98:	8e bb       	out	0x1e, r24	; 30
    3c9a:	e0 9a       	sbi	0x1c, 0	; 28
    3c9c:	99 27       	eor	r25, r25
    3c9e:	8d b3       	in	r24, 0x1d	; 29
    3ca0:	08 95       	ret

00003ca2 <__eerd_word_m32>:
    3ca2:	a8 e1       	ldi	r26, 0x18	; 24
    3ca4:	b0 e0       	ldi	r27, 0x00	; 0
    3ca6:	42 e0       	ldi	r20, 0x02	; 2
    3ca8:	50 e0       	ldi	r21, 0x00	; 0
    3caa:	0c 94 70 1e 	jmp	0x3ce0	; 0x3ce0 <__eerd_blraw_m32>

00003cae <__eeupd_byte_m32>:
    3cae:	26 2f       	mov	r18, r22

00003cb0 <__eeupd_r18_m32>:
    3cb0:	e1 99       	sbic	0x1c, 1	; 28
    3cb2:	fe cf       	rjmp	.-4      	; 0x3cb0 <__eeupd_r18_m32>
    3cb4:	9f bb       	out	0x1f, r25	; 31
    3cb6:	8e bb       	out	0x1e, r24	; 30
    3cb8:	e0 9a       	sbi	0x1c, 0	; 28
    3cba:	01 97       	sbiw	r24, 0x01	; 1
    3cbc:	0d b2       	in	r0, 0x1d	; 29
    3cbe:	02 16       	cp	r0, r18
    3cc0:	31 f0       	breq	.+12     	; 0x3cce <__eeupd_r18_m32+0x1e>
    3cc2:	2d bb       	out	0x1d, r18	; 29
    3cc4:	0f b6       	in	r0, 0x3f	; 63
    3cc6:	f8 94       	cli
    3cc8:	e2 9a       	sbi	0x1c, 2	; 28
    3cca:	e1 9a       	sbi	0x1c, 1	; 28
    3ccc:	0f be       	out	0x3f, r0	; 63
    3cce:	08 95       	ret

00003cd0 <__eeupd_word_m32>:
    3cd0:	01 96       	adiw	r24, 0x01	; 1
    3cd2:	27 2f       	mov	r18, r23
    3cd4:	0e 94 58 1e 	call	0x3cb0	; 0x3cb0 <__eeupd_r18_m32>
    3cd8:	0c 94 57 1e 	jmp	0x3cae	; 0x3cae <__eeupd_byte_m32>

00003cdc <__eerd_block_m32>:
    3cdc:	dc 01       	movw	r26, r24
    3cde:	cb 01       	movw	r24, r22

00003ce0 <__eerd_blraw_m32>:
    3ce0:	fc 01       	movw	r30, r24
    3ce2:	e1 99       	sbic	0x1c, 1	; 28
    3ce4:	fe cf       	rjmp	.-4      	; 0x3ce2 <__eerd_blraw_m32+0x2>
    3ce6:	06 c0       	rjmp	.+12     	; 0x3cf4 <__eerd_blraw_m32+0x14>
    3ce8:	ff bb       	out	0x1f, r31	; 31
    3cea:	ee bb       	out	0x1e, r30	; 30
    3cec:	e0 9a       	sbi	0x1c, 0	; 28
    3cee:	31 96       	adiw	r30, 0x01	; 1
    3cf0:	0d b2       	in	r0, 0x1d	; 29
    3cf2:	0d 92       	st	X+, r0
    3cf4:	41 50       	subi	r20, 0x01	; 1
    3cf6:	50 40       	sbci	r21, 0x00	; 0
    3cf8:	b8 f7       	brcc	.-18     	; 0x3ce8 <__eerd_blraw_m32+0x8>
    3cfa:	08 95       	ret

00003cfc <_exit>:
    3cfc:	f8 94       	cli

00003cfe <__stop_program>:
    3cfe:	ff cf       	rjmp	.-2      	; 0x3cfe <__stop_program>
