   1               		.file	"main.c"
   2               	__SREG__ = 0x3f
   3               	__SP_H__ = 0x3e
   4               	__SP_L__ = 0x3d
   5               	__CCP__  = 0x34
   6               	__tmp_reg__ = 0
   7               	__zero_reg__ = 1
   8               		.text
   9               	.global	init
  11               	init:
  12               	/* prologue: function */
  13               	/* frame size = 0 */
  14 0000 479A      		sbi 40-32,7
  15 0002 1ABA      		out 58-32,__zero_reg__
  16 0004 1BBA      		out 59-32,__zero_reg__
  17 0006 87B3      		in r24,55-32
  18 0008 8360      		ori r24,lo8(3)
  19 000a 87BB      		out 55-32,r24
  20 000c 88B3      		in r24,56-32
  21 000e 8C7F      		andi r24,lo8(-4)
  22 0010 88BB      		out 56-32,r24
  23 0012 81B3      		in r24,49-32
  24 0014 807C      		andi r24,lo8(-64)
  25 0016 81BB      		out 49-32,r24
  26 0018 82B3      		in r24,50-32
  27 001a 8A62      		ori r24,lo8(42)
  28 001c 82BB      		out 50-32,r24
  29 001e 82B3      		in r24,50-32
  30 0020 8A7E      		andi r24,lo8(-22)
  31 0022 82BB      		out 50-32,r24
  32               	/* epilogue start */
  33 0024 0895      		ret
  35               	.global	CheckBVK
  37               	CheckBVK:
  38               	/* prologue: function */
  39               	/* frame size = 0 */
  40 0026 8599      		sbic 48-32,5
  41 0028 00C0      		rjmp .L4
  42 002a 849B      		sbis 48-32,4
  43 002c 00C0      		rjmp .L7
  44 002e 00C0      		rjmp .L17
  45               	.L4:
  46 0030 8499      		sbic 48-32,4
  47 0032 00C0      		rjmp .L7
  48               	.L17:
  49 0034 1092 0000 		sts BVK_T,__zero_reg__
  50 0038 00C0      		rjmp .L6
  51               	.L7:
  52 003a 81E0      		ldi r24,lo8(1)
  53 003c 8093 0000 		sts BVK_T,r24
  54               	.L6:
  55 0040 8199      		sbic 48-32,1
  56 0042 00C0      		rjmp .L8
  57 0044 809B      		sbis 48-32,0
  58 0046 00C0      		rjmp .L11
  59 0048 00C0      		rjmp .L18
  60               	.L8:
  61 004a 8099      		sbic 48-32,0
  62 004c 00C0      		rjmp .L11
  63               	.L18:
  64 004e 1092 0000 		sts BVK_L,__zero_reg__
  65 0052 00C0      		rjmp .L10
  66               	.L11:
  67 0054 81E0      		ldi r24,lo8(1)
  68 0056 8093 0000 		sts BVK_L,r24
  69               	.L10:
  70 005a 8399      		sbic 48-32,3
  71 005c 00C0      		rjmp .L12
  72 005e 829B      		sbis 48-32,2
  73 0060 00C0      		rjmp .L15
  74 0062 00C0      		rjmp .L19
  75               	.L12:
  76 0064 8299      		sbic 48-32,2
  77 0066 00C0      		rjmp .L15
  78               	.L19:
  79 0068 1092 0000 		sts BVK_R,__zero_reg__
  80 006c 0895      		ret
  81               	.L15:
  82 006e 81E0      		ldi r24,lo8(1)
  83 0070 8093 0000 		sts BVK_R,r24
  84 0074 0895      		ret
  86               	.global	ExecuteBVK
  88               	ExecuteBVK:
  89               	/* prologue: function */
  90               	/* frame size = 0 */
  91 0076 8091 0000 		lds r24,LEFT
  92 007a 8130      		cpi r24,lo8(1)
  93 007c 01F4      		brne .L21
  94 007e 8091 0000 		lds r24,RIGTH
  95 0082 8130      		cpi r24,lo8(1)
  96 0084 01F0      		breq .L22
  97               	.L21:
  98 0086 8091 0000 		lds r24,BVK_L
  99 008a 8130      		cpi r24,lo8(1)
 100 008c 01F4      		brne .L23
 101 008e 8091 0000 		lds r24,BVK_R
 102 0092 8130      		cpi r24,lo8(1)
 103 0094 01F4      		brne .L23
 104               	.L22:
 105 0096 1092 0000 		sts LEFT,__zero_reg__
 106 009a 1092 0000 		sts RIGTH,__zero_reg__
 107 009e 1092 0000 		sts STATUS,__zero_reg__
 108 00a2 C098      		cbi 56-32,0
 109 00a4 C198      		cbi 56-32,1
 110 00a6 0895      		ret
 111               	.L23:
 112 00a8 8091 0000 		lds r24,BVK_L
 113 00ac 8823      		tst r24
 114 00ae 01F4      		brne .L25
 115 00b0 8091 0000 		lds r24,BVK_R
 116 00b4 8823      		tst r24
 117 00b6 01F4      		brne .+2
 118 00b8 00C0      		rjmp .L35
 119               	.L25:
 120 00ba 8091 0000 		lds r24,STATUS
 121 00be 8823      		tst r24
 122 00c0 01F4      		brne .L26
 123 00c2 8091 0000 		lds r24,LEFT
 124 00c6 8823      		tst r24
 125 00c8 01F0      		breq .+2
 126 00ca 00C0      		rjmp .L35
 127 00cc 8091 0000 		lds r24,RIGTH
 128 00d0 8823      		tst r24
 129 00d2 01F0      		breq .+2
 130 00d4 00C0      		rjmp .L35
 131 00d6 8091 0000 		lds r24,BVK_T
 132 00da 8130      		cpi r24,lo8(1)
 133 00dc 01F0      		breq .+2
 134 00de 00C0      		rjmp .L35
 135 00e0 8091 0000 		lds r24,BVK_L
 136 00e4 8130      		cpi r24,lo8(1)
 137 00e6 01F4      		brne .L27
 138 00e8 8093 0000 		sts RIGTH,r24
 139 00ec 8093 0000 		sts STATUS,r24
 140 00f0 C19A      		sbi 56-32,1
 141               	.L27:
 142 00f2 8091 0000 		lds r24,BVK_R
 143 00f6 8130      		cpi r24,lo8(1)
 144 00f8 01F0      		breq .+2
 145 00fa 00C0      		rjmp .L35
 146 00fc 8093 0000 		sts LEFT,r24
 147 0100 8093 0000 		sts STATUS,r24
 148 0104 C09A      		sbi 56-32,0
 149 0106 0895      		ret
 150               	.L26:
 151 0108 8091 0000 		lds r24,STATUS
 152 010c 8130      		cpi r24,lo8(1)
 153 010e 01F0      		breq .+2
 154 0110 00C0      		rjmp .L28
 155 0112 8091 0000 		lds r24,RIGTH
 156 0116 8130      		cpi r24,lo8(1)
 157 0118 01F4      		brne .L29
 158 011a 8091 0000 		lds r24,BVK_R
 159 011e 8130      		cpi r24,lo8(1)
 160 0120 01F4      		brne .L29
 161 0122 88E8      		ldi r24,lo8(5000)
 162 0124 93E1      		ldi r25,hi8(5000)
 163 0126 29E1      		ldi r18,lo8(25)
 164 0128 30E0      		ldi r19,hi8(25)
 165               	.L30:
 166 012a F901      		movw r30,r18
 167               	/* #APP */
 168               	 ;  105 "c:/winavr/lib/gcc/../../avr/include/util/delay_basic.h" 1
 169 012c 3197      		1: sbiw r30,1
 170 012e 01F4      		brne 1b
 171               	 ;  0 "" 2
 172               	/* #NOAPP */
 173 0130 0197      		sbiw r24,1
 174 0132 01F4      		brne .L30
 175 0134 82E0      		ldi r24,lo8(2)
 176 0136 8093 0000 		sts STATUS,r24
 177 013a 1092 0000 		sts RIGTH,__zero_reg__
 178 013e C198      		cbi 56-32,1
 179 0140 88E8      		ldi r24,lo8(5000)
 180 0142 93E1      		ldi r25,hi8(5000)
 181 0144 29E1      		ldi r18,lo8(25)
 182 0146 30E0      		ldi r19,hi8(25)
 183               	.L31:
 184 0148 F901      		movw r30,r18
 185               	/* #APP */
 186               	 ;  105 "c:/winavr/lib/gcc/../../avr/include/util/delay_basic.h" 1
 187 014a 3197      		1: sbiw r30,1
 188 014c 01F4      		brne 1b
 189               	 ;  0 "" 2
 190               	/* #NOAPP */
 191 014e 0197      		sbiw r24,1
 192 0150 01F4      		brne .L31
 193               	.L29:
 194 0152 8091 0000 		lds r24,LEFT
 195 0156 8130      		cpi r24,lo8(1)
 196 0158 01F4      		brne .L35
 197 015a 8091 0000 		lds r24,BVK_L
 198 015e 8130      		cpi r24,lo8(1)
 199 0160 01F4      		brne .L35
 200 0162 88E8      		ldi r24,lo8(5000)
 201 0164 93E1      		ldi r25,hi8(5000)
 202 0166 29E1      		ldi r18,lo8(25)
 203 0168 30E0      		ldi r19,hi8(25)
 204               	.L32:
 205 016a F901      		movw r30,r18
 206               	/* #APP */
 207               	 ;  105 "c:/winavr/lib/gcc/../../avr/include/util/delay_basic.h" 1
 208 016c 3197      		1: sbiw r30,1
 209 016e 01F4      		brne 1b
 210               	 ;  0 "" 2
 211               	/* #NOAPP */
 212 0170 0197      		sbiw r24,1
 213 0172 01F4      		brne .L32
 214 0174 82E0      		ldi r24,lo8(2)
 215 0176 8093 0000 		sts STATUS,r24
 216 017a 1092 0000 		sts LEFT,__zero_reg__
 217 017e C098      		cbi 56-32,0
 218 0180 88E8      		ldi r24,lo8(5000)
 219 0182 93E1      		ldi r25,hi8(5000)
 220 0184 29E1      		ldi r18,lo8(25)
 221 0186 30E0      		ldi r19,hi8(25)
 222               	.L33:
 223 0188 F901      		movw r30,r18
 224               	/* #APP */
 225               	 ;  105 "c:/winavr/lib/gcc/../../avr/include/util/delay_basic.h" 1
 226 018a 3197      		1: sbiw r30,1
 227 018c 01F4      		brne 1b
 228               	 ;  0 "" 2
 229               	/* #NOAPP */
 230 018e 0197      		sbiw r24,1
 231 0190 01F4      		brne .L33
 232 0192 0895      		ret
 233               	.L28:
 234 0194 8091 0000 		lds r24,BVK_T
 235 0198 8823      		tst r24
 236 019a 01F4      		brne .L35
 237 019c 1092 0000 		sts STATUS,__zero_reg__
 238 01a0 88E8      		ldi r24,lo8(5000)
 239 01a2 93E1      		ldi r25,hi8(5000)
 240 01a4 29E1      		ldi r18,lo8(25)
 241 01a6 30E0      		ldi r19,hi8(25)
 242               	.L34:
 243 01a8 F901      		movw r30,r18
 244               	/* #APP */
 245               	 ;  105 "c:/winavr/lib/gcc/../../avr/include/util/delay_basic.h" 1
 246 01aa 3197      		1: sbiw r30,1
 247 01ac 01F4      		brne 1b
 248               	 ;  0 "" 2
 249               	/* #NOAPP */
 250 01ae 0197      		sbiw r24,1
 251 01b0 01F4      		brne .L34
 252               	.L35:
 253 01b2 0895      		ret
 255               	.global	main
 257               	main:
 258               	/* prologue: function */
 259               	/* frame size = 0 */
 260 01b4 00D0      		rcall init
 261 01b6 88E8      		ldi r24,lo8(5000)
 262 01b8 93E1      		ldi r25,hi8(5000)
 263 01ba 29E1      		ldi r18,lo8(25)
 264 01bc 30E0      		ldi r19,hi8(25)
 265               	.L42:
 266 01be F901      		movw r30,r18
 267               	/* #APP */
 268               	 ;  105 "c:/winavr/lib/gcc/../../avr/include/util/delay_basic.h" 1
 269 01c0 3197      		1: sbiw r30,1
 270 01c2 01F4      		brne 1b
 271               	 ;  0 "" 2
 272               	/* #NOAPP */
 273 01c4 0197      		sbiw r24,1
 274 01c6 01F4      		brne .L42
 275               	.L46:
 276 01c8 00D0      		rcall CheckBVK
 277 01ca 00D0      		rcall ExecuteBVK
 278 01cc 00C0      		rjmp .L46
 280               	.global	STATUS
 281               	.global	STATUS
 282               		.section .bss
 285               	STATUS:
 286 0000 00        		.skip 1,0
 287               	.global	LEFT
 288               	.global	LEFT
 291               	LEFT:
 292 0001 00        		.skip 1,0
 293               	.global	RIGTH
 294               	.global	RIGTH
 297               	RIGTH:
 298 0002 00        		.skip 1,0
 299               	.global	BVK_T
 300               	.global	BVK_T
 303               	BVK_T:
 304 0003 00        		.skip 1,0
 305               	.global	BVK_L
 306               	.global	BVK_L
 309               	BVK_L:
 310 0004 00        		.skip 1,0
 311               	.global	BVK_R
 312               	.global	BVK_R
 315               	BVK_R:
 316 0005 00        		.skip 1,0
 317               	.global __do_clear_bss
DEFINED SYMBOLS
                            *ABS*:00000000 main.c
C:\Users\9E8E~1\AppData\Local\Temp/ccP33eKb.s:2      *ABS*:0000003f __SREG__
C:\Users\9E8E~1\AppData\Local\Temp/ccP33eKb.s:3      *ABS*:0000003e __SP_H__
C:\Users\9E8E~1\AppData\Local\Temp/ccP33eKb.s:4      *ABS*:0000003d __SP_L__
C:\Users\9E8E~1\AppData\Local\Temp/ccP33eKb.s:5      *ABS*:00000034 __CCP__
C:\Users\9E8E~1\AppData\Local\Temp/ccP33eKb.s:6      *ABS*:00000000 __tmp_reg__
C:\Users\9E8E~1\AppData\Local\Temp/ccP33eKb.s:7      *ABS*:00000001 __zero_reg__
C:\Users\9E8E~1\AppData\Local\Temp/ccP33eKb.s:11     .text:00000000 init
C:\Users\9E8E~1\AppData\Local\Temp/ccP33eKb.s:37     .text:00000026 CheckBVK
C:\Users\9E8E~1\AppData\Local\Temp/ccP33eKb.s:303    .bss:00000003 BVK_T
C:\Users\9E8E~1\AppData\Local\Temp/ccP33eKb.s:309    .bss:00000004 BVK_L
C:\Users\9E8E~1\AppData\Local\Temp/ccP33eKb.s:315    .bss:00000005 BVK_R
C:\Users\9E8E~1\AppData\Local\Temp/ccP33eKb.s:88     .text:00000076 ExecuteBVK
C:\Users\9E8E~1\AppData\Local\Temp/ccP33eKb.s:291    .bss:00000001 LEFT
C:\Users\9E8E~1\AppData\Local\Temp/ccP33eKb.s:297    .bss:00000002 RIGTH
C:\Users\9E8E~1\AppData\Local\Temp/ccP33eKb.s:285    .bss:00000000 STATUS
C:\Users\9E8E~1\AppData\Local\Temp/ccP33eKb.s:257    .text:000001b4 main

UNDEFINED SYMBOLS
__do_clear_bss
