   1               		.file	"main.c"
   2               	__SREG__ = 0x3f
   3               	__SP_H__ = 0x3e
   4               	__SP_L__ = 0x3d
   5               	__CCP__  = 0x34
   6               	__tmp_reg__ = 0
   7               	__zero_reg__ = 1
   8               		.text
   9               	.global	CalculateCoefficients
  11               	CalculateCoefficients:
  12 0000 8F92      		push r8
  13 0002 9F92      		push r9
  14 0004 AF92      		push r10
  15 0006 BF92      		push r11
  16 0008 CF92      		push r12
  17 000a DF92      		push r13
  18 000c EF92      		push r14
  19 000e FF92      		push r15
  20 0010 0F93      		push r16
  21 0012 1F93      		push r17
  22               	/* prologue: function */
  23               	/* frame size = 0 */
  24 0014 6091 0000 		lds r22,SETVAL_PWM_FAN1_START
  25 0018 70E0      		ldi r23,lo8(0)
  26 001a 8827      		clr r24
  27 001c 77FD      		sbrc r23,7
  28 001e 8095      		com r24
  29 0020 982F      		mov r25,r24
  30 0022 0E94 0000 		call __floatsisf
  31 0026 20E0      		ldi r18,lo8(0x437f0000)
  32 0028 30E0      		ldi r19,hi8(0x437f0000)
  33 002a 4FE7      		ldi r20,hlo8(0x437f0000)
  34 002c 53E4      		ldi r21,hhi8(0x437f0000)
  35 002e 0E94 0000 		call __mulsf3
  36 0032 20E0      		ldi r18,lo8(0x42c80000)
  37 0034 30E0      		ldi r19,hi8(0x42c80000)
  38 0036 48EC      		ldi r20,hlo8(0x42c80000)
  39 0038 52E4      		ldi r21,hhi8(0x42c80000)
  40 003a 0E94 0000 		call __divsf3
  41 003e 0E94 0000 		call __fixunssfsi
  42 0042 6093 0000 		sts ui8_PWM1_Start_Discret,r22
  43 0046 6091 0000 		lds r22,ui8_PWM1_Start_Discret
  44 004a E090 0000 		lds r14,SETVAL_M1_START_PERIOD
  45 004e 70E0      		ldi r23,lo8(0)
  46 0050 8827      		clr r24
  47 0052 77FD      		sbrc r23,7
  48 0054 8095      		com r24
  49 0056 982F      		mov r25,r24
  50 0058 0E94 0000 		call __floatsisf
  51 005c 9B01      		movw r18,r22
  52 005e AC01      		movw r20,r24
  53 0060 60E0      		ldi r22,lo8(0x437f0000)
  54 0062 70E0      		ldi r23,hi8(0x437f0000)
  55 0064 8FE7      		ldi r24,hlo8(0x437f0000)
  56 0066 93E4      		ldi r25,hhi8(0x437f0000)
  57 0068 0E94 0000 		call __subsf3
  58 006c 5B01      		movw r10,r22
  59 006e 6C01      		movw r12,r24
  60 0070 8CE3      		ldi r24,lo8(60)
  61 0072 982E      		mov r9,r24
  62 0074 E99C      		mul r14,r9
  63 0076 7001      		movw r14,r0
  64 0078 1124      		clr r1
  65 007a 0027      		clr r16
  66 007c F7FC      		sbrc r15,7
  67 007e 0095      		com r16
  68 0080 102F      		mov r17,r16
  69 0082 C801      		movw r24,r16
  70 0084 B701      		movw r22,r14
  71 0086 0E94 0000 		call __floatsisf
  72 008a 9B01      		movw r18,r22
  73 008c AC01      		movw r20,r24
  74 008e C601      		movw r24,r12
  75 0090 B501      		movw r22,r10
  76 0092 0E94 0000 		call __divsf3
  77 0096 6093 0000 		sts dbl_PWM1_Step_Start_Discret,r22
  78 009a 7093 0000 		sts (dbl_PWM1_Step_Start_Discret)+1,r23
  79 009e 8093 0000 		sts (dbl_PWM1_Step_Start_Discret)+2,r24
  80 00a2 9093 0000 		sts (dbl_PWM1_Step_Start_Discret)+3,r25
  81 00a6 6091 0000 		lds r22,ui8_PWM1_Start_Discret
  82 00aa E090 0000 		lds r14,SETVAL_M1_STOP_PERIOD
  83 00ae 70E0      		ldi r23,lo8(0)
  84 00b0 8827      		clr r24
  85 00b2 77FD      		sbrc r23,7
  86 00b4 8095      		com r24
  87 00b6 982F      		mov r25,r24
  88 00b8 0E94 0000 		call __floatsisf
  89 00bc 9B01      		movw r18,r22
  90 00be AC01      		movw r20,r24
  91 00c0 60E0      		ldi r22,lo8(0x437f0000)
  92 00c2 70E0      		ldi r23,hi8(0x437f0000)
  93 00c4 8FE7      		ldi r24,hlo8(0x437f0000)
  94 00c6 93E4      		ldi r25,hhi8(0x437f0000)
  95 00c8 0E94 0000 		call __subsf3
  96 00cc 5B01      		movw r10,r22
  97 00ce 6C01      		movw r12,r24
  98 00d0 E99C      		mul r14,r9
  99 00d2 7001      		movw r14,r0
 100 00d4 1124      		clr r1
 101 00d6 0027      		clr r16
 102 00d8 F7FC      		sbrc r15,7
 103 00da 0095      		com r16
 104 00dc 102F      		mov r17,r16
 105 00de C801      		movw r24,r16
 106 00e0 B701      		movw r22,r14
 107 00e2 0E94 0000 		call __floatsisf
 108 00e6 9B01      		movw r18,r22
 109 00e8 AC01      		movw r20,r24
 110 00ea C601      		movw r24,r12
 111 00ec B501      		movw r22,r10
 112 00ee 0E94 0000 		call __divsf3
 113 00f2 6093 0000 		sts dbl_PWM1_Step_Stop_Discret,r22
 114 00f6 7093 0000 		sts (dbl_PWM1_Step_Stop_Discret)+1,r23
 115 00fa 8093 0000 		sts (dbl_PWM1_Step_Stop_Discret)+2,r24
 116 00fe 9093 0000 		sts (dbl_PWM1_Step_Stop_Discret)+3,r25
 117 0102 6091 0000 		lds r22,SETVAL_PWM_FAN2_START
 118 0106 70E0      		ldi r23,lo8(0)
 119 0108 8827      		clr r24
 120 010a 77FD      		sbrc r23,7
 121 010c 8095      		com r24
 122 010e 982F      		mov r25,r24
 123 0110 0E94 0000 		call __floatsisf
 124 0114 20E0      		ldi r18,lo8(0x437f0000)
 125 0116 30E0      		ldi r19,hi8(0x437f0000)
 126 0118 4FE7      		ldi r20,hlo8(0x437f0000)
 127 011a 53E4      		ldi r21,hhi8(0x437f0000)
 128 011c 0E94 0000 		call __mulsf3
 129 0120 20E0      		ldi r18,lo8(0x42c80000)
 130 0122 30E0      		ldi r19,hi8(0x42c80000)
 131 0124 48EC      		ldi r20,hlo8(0x42c80000)
 132 0126 52E4      		ldi r21,hhi8(0x42c80000)
 133 0128 0E94 0000 		call __divsf3
 134 012c 0E94 0000 		call __fixunssfsi
 135 0130 6093 0000 		sts ui8_PWM2_Start_Discret,r22
 136 0134 6091 0000 		lds r22,ui8_PWM2_Start_Discret
 137 0138 70E0      		ldi r23,lo8(0)
 138 013a 8827      		clr r24
 139 013c 77FD      		sbrc r23,7
 140 013e 8095      		com r24
 141 0140 982F      		mov r25,r24
 142 0142 0E94 0000 		call __floatsisf
 143 0146 9B01      		movw r18,r22
 144 0148 AC01      		movw r20,r24
 145 014a 60E0      		ldi r22,lo8(0x437f0000)
 146 014c 70E0      		ldi r23,hi8(0x437f0000)
 147 014e 8FE7      		ldi r24,hlo8(0x437f0000)
 148 0150 93E4      		ldi r25,hhi8(0x437f0000)
 149 0152 0E94 0000 		call __subsf3
 150 0156 20E0      		ldi r18,lo8(0x41f00000)
 151 0158 30E0      		ldi r19,hi8(0x41f00000)
 152 015a 40EF      		ldi r20,hlo8(0x41f00000)
 153 015c 51E4      		ldi r21,hhi8(0x41f00000)
 154 015e 0E94 0000 		call __divsf3
 155 0162 6093 0000 		sts dbl_PWM2_Step_Discret,r22
 156 0166 7093 0000 		sts (dbl_PWM2_Step_Discret)+1,r23
 157 016a 8093 0000 		sts (dbl_PWM2_Step_Discret)+2,r24
 158 016e 9093 0000 		sts (dbl_PWM2_Step_Discret)+3,r25
 159 0172 6091 0000 		lds r22,SETVAL_PWM_FAN3_START
 160 0176 70E0      		ldi r23,lo8(0)
 161 0178 8827      		clr r24
 162 017a 77FD      		sbrc r23,7
 163 017c 8095      		com r24
 164 017e 982F      		mov r25,r24
 165 0180 0E94 0000 		call __floatsisf
 166 0184 20E0      		ldi r18,lo8(0x437f0000)
 167 0186 30E0      		ldi r19,hi8(0x437f0000)
 168 0188 4FE7      		ldi r20,hlo8(0x437f0000)
 169 018a 53E4      		ldi r21,hhi8(0x437f0000)
 170 018c 0E94 0000 		call __mulsf3
 171 0190 20E0      		ldi r18,lo8(0x42c80000)
 172 0192 30E0      		ldi r19,hi8(0x42c80000)
 173 0194 48EC      		ldi r20,hlo8(0x42c80000)
 174 0196 52E4      		ldi r21,hhi8(0x42c80000)
 175 0198 0E94 0000 		call __divsf3
 176 019c 0E94 0000 		call __fixunssfsi
 177 01a0 6093 0000 		sts ui8_PWM3_Start_Discret,r22
 178 01a4 6091 0000 		lds r22,ui8_PWM3_Start_Discret
 179 01a8 E090 0000 		lds r14,SETVAL_TEMP_PYROLYS_FULL
 180 01ac F090 0000 		lds r15,(SETVAL_TEMP_PYROLYS_FULL)+1
 181 01b0 8090 0000 		lds r8,SETVAL_TEMP_PYROLYS_START
 182 01b4 9090 0000 		lds r9,(SETVAL_TEMP_PYROLYS_START)+1
 183 01b8 70E0      		ldi r23,lo8(0)
 184 01ba 8827      		clr r24
 185 01bc 77FD      		sbrc r23,7
 186 01be 8095      		com r24
 187 01c0 982F      		mov r25,r24
 188 01c2 0E94 0000 		call __floatsisf
 189 01c6 9B01      		movw r18,r22
 190 01c8 AC01      		movw r20,r24
 191 01ca 60E0      		ldi r22,lo8(0x437f0000)
 192 01cc 70E0      		ldi r23,hi8(0x437f0000)
 193 01ce 8FE7      		ldi r24,hlo8(0x437f0000)
 194 01d0 93E4      		ldi r25,hhi8(0x437f0000)
 195 01d2 0E94 0000 		call __subsf3
 196 01d6 5B01      		movw r10,r22
 197 01d8 6C01      		movw r12,r24
 198 01da E818      		sub r14,r8
 199 01dc F908      		sbc r15,r9
 200 01de 00E0      		ldi r16,lo8(0)
 201 01e0 10E0      		ldi r17,hi8(0)
 202 01e2 C801      		movw r24,r16
 203 01e4 B701      		movw r22,r14
 204 01e6 0E94 0000 		call __floatunsisf
 205 01ea 9B01      		movw r18,r22
 206 01ec AC01      		movw r20,r24
 207 01ee C601      		movw r24,r12
 208 01f0 B501      		movw r22,r10
 209 01f2 0E94 0000 		call __divsf3
 210 01f6 6093 0000 		sts dbl_PWM3_Step_Discret,r22
 211 01fa 7093 0000 		sts (dbl_PWM3_Step_Discret)+1,r23
 212 01fe 8093 0000 		sts (dbl_PWM3_Step_Discret)+2,r24
 213 0202 9093 0000 		sts (dbl_PWM3_Step_Discret)+3,r25
 214               	/* epilogue start */
 215 0206 1F91      		pop r17
 216 0208 0F91      		pop r16
 217 020a FF90      		pop r15
 218 020c EF90      		pop r14
 219 020e DF90      		pop r13
 220 0210 CF90      		pop r12
 221 0212 BF90      		pop r11
 222 0214 AF90      		pop r10
 223 0216 9F90      		pop r9
 224 0218 8F90      		pop r8
 225 021a 0895      		ret
 227               	.global	__vector_7
 229               	__vector_7:
 230 021c 1F92      		push __zero_reg__
 231 021e 0F92      		push r0
 232 0220 0FB6      		in r0,__SREG__
 233 0222 0F92      		push r0
 234 0224 1124      		clr __zero_reg__
 235 0226 8F93      		push r24
 236               	/* prologue: Signal */
 237               	/* frame size = 0 */
 238 0228 1DBC      		out 77-32,__zero_reg__
 239 022a 1CBC      		out 76-32,__zero_reg__
 240 022c 8091 0000 		lds r24,STATUS
 241 0230 8160      		ori r24,lo8(1)
 242 0232 8093 0000 		sts STATUS,r24
 243               	/* epilogue start */
 244 0236 8F91      		pop r24
 245 0238 0F90      		pop r0
 246 023a 0FBE      		out __SREG__,r0
 247 023c 0F90      		pop r0
 248 023e 1F90      		pop __zero_reg__
 249 0240 1895      		reti
 251               	.global	__vector_5
 253               	__vector_5:
 254 0242 1F92      		push __zero_reg__
 255 0244 0F92      		push r0
 256 0246 0FB6      		in r0,__SREG__
 257 0248 0F92      		push r0
 258 024a 1124      		clr __zero_reg__
 259 024c 8F93      		push r24
 260               	/* prologue: Signal */
 261               	/* frame size = 0 */
 262 024e 8091 0000 		lds r24,CountMUL_BTN_WAIT
 263 0252 8150      		subi r24,lo8(-(-1))
 264 0254 8093 0000 		sts CountMUL_BTN_WAIT,r24
 265 0258 8091 0000 		lds r24,CountMUL_BTN_WAIT
 266 025c 8823      		tst r24
 267 025e 01F4      		brne .L7
 268 0260 15BC      		out 69-32,__zero_reg__
 269 0262 8091 0000 		lds r24,STATUS
 270 0266 8B7F      		andi r24,lo8(-5)
 271 0268 8093 0000 		sts STATUS,r24
 272               	.L7:
 273               	/* epilogue start */
 274 026c 8F91      		pop r24
 275 026e 0F90      		pop r0
 276 0270 0FBE      		out __SREG__,r0
 277 0272 0F90      		pop r0
 278 0274 1F90      		pop __zero_reg__
 279 0276 1895      		reti
 281               	.global	init
 283               	init:
 284               	/* prologue: function */
 285               	/* frame size = 0 */
 286 0278 479A      		sbi 40-32,7
 287 027a 8AB3      		in r24,58-32
 288 027c 8C60      		ori r24,lo8(12)
 289 027e 8ABB      		out 58-32,r24
 290 0280 D698      		cbi 58-32,6
 291 0282 8BB3      		in r24,59-32
 292 0284 837B      		andi r24,lo8(-77)
 293 0286 8BBB      		out 59-32,r24
 294 0288 BB9A      		sbi 55-32,3
 295 028a C398      		cbi 56-32,3
 296 028c 84B3      		in r24,52-32
 297 028e 806E      		ori r24,lo8(-32)
 298 0290 84BB      		out 52-32,r24
 299 0292 84B3      		in r24,52-32
 300 0294 887E      		andi r24,lo8(-24)
 301 0296 84BB      		out 52-32,r24
 302 0298 85B3      		in r24,53-32
 303 029a 8766      		ori r24,lo8(103)
 304 029c 85BB      		out 53-32,r24
 305 029e 85B3      		in r24,53-32
 306 02a0 8F76      		andi r24,lo8(111)
 307 02a2 85BB      		out 53-32,r24
 308 02a4 81B3      		in r24,49-32
 309 02a6 8F61      		ori r24,lo8(31)
 310 02a8 81BB      		out 49-32,r24
 311 02aa 82B3      		in r24,50-32
 312 02ac 8861      		ori r24,lo8(24)
 313 02ae 82BB      		out 50-32,r24
 314 02b0 82B3      		in r24,50-32
 315 02b2 887F      		andi r24,lo8(-8)
 316 02b4 82BB      		out 50-32,r24
 317 02b6 8091 0000 		lds r24,LED_LIGTH
 318 02ba 8823      		tst r24
 319 02bc 01F0      		breq .L9
 320 02be 9698      		cbi 50-32,6
 321 02c0 00C0      		rjmp .L10
 322               	.L9:
 323 02c2 969A      		sbi 50-32,6
 324               	.L10:
 325 02c4 8E9A      		sbi 49-32,6
 326 02c6 80B7      		in r24,80-32
 327 02c8 8360      		ori r24,lo8(3)
 328 02ca 80BF      		out 80-32,r24
 329 02cc 89B7      		in r24,89-32
 330 02ce 8061      		ori r24,lo8(16)
 331 02d0 89BF      		out 89-32,r24
 332 02d2 1DBC      		out 77-32,__zero_reg__
 333 02d4 1CBC      		out 76-32,__zero_reg__
 334 02d6 1FBC      		out 79-32,__zero_reg__
 335 02d8 84E0      		ldi r24,lo8(4)
 336 02da 8EBD      		out 78-32,r24
 337 02dc 8AE7      		ldi r24,lo8(122)
 338 02de 8BBD      		out 75-32,r24
 339 02e0 82E1      		ldi r24,lo8(18)
 340 02e2 8ABD      		out 74-32,r24
 341 02e4 89B7      		in r24,89-32
 342 02e6 8064      		ori r24,lo8(64)
 343 02e8 89BF      		out 89-32,r24
 344               	/* #APP */
 345               	 ;  453 "../src/main.c" 1
 346 02ea 7894      		sei
 347               	 ;  0 "" 2
 348               	/* epilogue start */
 349               	/* #NOAPP */
 350 02ec 0895      		ret
 352               	.global	LCD_sendByte
 354               	LCD_sendByte:
 355               	/* prologue: function */
 356               	/* frame size = 0 */
 357 02ee 6623      		tst r22
 358 02f0 01F4      		brne .L13
 359 02f2 9298      		cbi 50-32,2
 360 02f4 00C0      		rjmp .L14
 361               	.L13:
 362 02f6 929A      		sbi 50-32,2
 363               	.L14:
 364 02f8 9398      		cbi 50-32,3
 365 02fa 90E0      		ldi r25,lo8(0)
 366               	.L18:
 367 02fc 87FF      		sbrs r24,7
 368 02fe 00C0      		rjmp .L15
 369 0300 919A      		sbi 50-32,1
 370 0302 00C0      		rjmp .L16
 371               	.L15:
 372 0304 9198      		cbi 50-32,1
 373               	.L16:
 374 0306 909A      		sbi 50-32,0
 375 0308 9098      		cbi 50-32,0
 376 030a 9F5F      		subi r25,lo8(-(1))
 377 030c 9830      		cpi r25,lo8(8)
 378 030e 01F0      		breq .L17
 379 0310 880F      		lsl r24
 380 0312 00C0      		rjmp .L18
 381               	.L17:
 382 0314 939A      		sbi 50-32,3
 383               	/* epilogue start */
 384 0316 0895      		ret
 386               	.global	LCD_gotoXY
 388               	LCD_gotoXY:
 389 0318 1F93      		push r17
 390               	/* prologue: function */
 391               	/* frame size = 0 */
 392 031a 162F      		mov r17,r22
 393 031c 805C      		subi r24,lo8(-(64))
 394 031e 60E0      		ldi r22,lo8(0)
 395 0320 0E94 0000 		call LCD_sendByte
 396 0324 812F      		mov r24,r17
 397 0326 8058      		subi r24,lo8(-(-128))
 398 0328 60E0      		ldi r22,lo8(0)
 399 032a 0E94 0000 		call LCD_sendByte
 400               	/* epilogue start */
 401 032e 1F91      		pop r17
 402 0330 0895      		ret
 404               	.global	LCD_clear
 406               	LCD_clear:
 407 0332 1F93      		push r17
 408 0334 CF93      		push r28
 409 0336 DF93      		push r29
 410               	/* prologue: function */
 411               	/* frame size = 0 */
 412 0338 8823      		tst r24
 413 033a 01F4      		brne .L23
 414 033c 10E0      		ldi r17,lo8(0)
 415 033e 00C0      		rjmp .L24
 416               	.L23:
 417 0340 1FEF      		ldi r17,lo8(-1)
 418               	.L24:
 419 0342 80E0      		ldi r24,lo8(0)
 420 0344 60E0      		ldi r22,lo8(0)
 421 0346 0E94 0000 		call LCD_gotoXY
 422 034a C0E0      		ldi r28,lo8(0)
 423 034c D0E0      		ldi r29,hi8(0)
 424               	.L25:
 425 034e 812F      		mov r24,r17
 426 0350 61E0      		ldi r22,lo8(1)
 427 0352 0E94 0000 		call LCD_sendByte
 428 0356 2196      		adiw r28,1
 429 0358 81E0      		ldi r24,hi8(504)
 430 035a C83F      		cpi r28,lo8(504)
 431 035c D807      		cpc r29,r24
 432 035e 01F4      		brne .L25
 433               	/* epilogue start */
 434 0360 DF91      		pop r29
 435 0362 CF91      		pop r28
 436 0364 1F91      		pop r17
 437 0366 0895      		ret
 439               	.global	LCD_init
 441               	LCD_init:
 442               	/* prologue: function */
 443               	/* frame size = 0 */
 444 0368 8AE1      		ldi r24,lo8(26)
 445 036a 982F      		mov r25,r24
 446               	/* #APP */
 447               	 ;  83 "c:/winavr/lib/gcc/../../avr/include/util/delay_basic.h" 1
 448 036c 9A95      		1: dec r25
 449 036e 01F4      		brne 1b
 450               	 ;  0 "" 2
 451               	/* #NOAPP */
 452 0370 9498      		cbi 50-32,4
 453 0372 E8EC      		ldi r30,lo8(200)
 454 0374 F0E0      		ldi r31,hi8(200)
 455               	/* #APP */
 456               	 ;  105 "c:/winavr/lib/gcc/../../avr/include/util/delay_basic.h" 1
 457 0376 3197      		1: sbiw r30,1
 458 0378 01F4      		brne 1b
 459               	 ;  0 "" 2
 460               	/* #NOAPP */
 461 037a 949A      		sbi 50-32,4
 462               	/* #APP */
 463               	 ;  83 "c:/winavr/lib/gcc/../../avr/include/util/delay_basic.h" 1
 464 037c 8A95      		1: dec r24
 465 037e 01F4      		brne 1b
 466               	 ;  0 "" 2
 467               	/* #NOAPP */
 468 0380 81E2      		ldi r24,lo8(33)
 469 0382 60E0      		ldi r22,lo8(0)
 470 0384 0E94 0000 		call LCD_sendByte
 471 0388 83E1      		ldi r24,lo8(19)
 472 038a 60E0      		ldi r22,lo8(0)
 473 038c 0E94 0000 		call LCD_sendByte
 474 0390 84E0      		ldi r24,lo8(4)
 475 0392 60E0      		ldi r22,lo8(0)
 476 0394 0E94 0000 		call LCD_sendByte
 477 0398 88EB      		ldi r24,lo8(-72)
 478 039a 60E0      		ldi r22,lo8(0)
 479 039c 0E94 0000 		call LCD_sendByte
 480 03a0 80E2      		ldi r24,lo8(32)
 481 03a2 60E0      		ldi r22,lo8(0)
 482 03a4 0E94 0000 		call LCD_sendByte
 483 03a8 8CE0      		ldi r24,lo8(12)
 484 03aa 60E0      		ldi r22,lo8(0)
 485 03ac 0E94 0000 		call LCD_sendByte
 486 03b0 80E0      		ldi r24,lo8(0)
 487 03b2 0E94 0000 		call LCD_clear
 488               	/* epilogue start */
 489 03b6 0895      		ret
 491               	.global	LCD_OutChar6x8
 493               	LCD_OutChar6x8:
 494 03b8 1F93      		push r17
 495 03ba CF93      		push r28
 496 03bc DF93      		push r29
 497               	/* prologue: function */
 498               	/* frame size = 0 */
 499 03be 96E0      		ldi r25,lo8(6)
 500 03c0 899F      		mul r24,r25
 501 03c2 E001      		movw r28,r0
 502 03c4 1124      		clr r1
 503 03c6 C050      		subi r28,lo8(-(Font_6x8_Data))
 504 03c8 D040      		sbci r29,hi8(-(Font_6x8_Data))
 505 03ca 10E0      		ldi r17,lo8(0)
 506               	.L31:
 507 03cc FE01      		movw r30,r28
 508               	/* #APP */
 509               	 ;  531 "../src/main.c" 1
 510 03ce 8491      		lpm r24, Z
 511               		
 512               	 ;  0 "" 2
 513               	/* #NOAPP */
 514 03d0 61E0      		ldi r22,lo8(1)
 515 03d2 0E94 0000 		call LCD_sendByte
 516 03d6 1F5F      		subi r17,lo8(-(1))
 517 03d8 2196      		adiw r28,1
 518 03da 1630      		cpi r17,lo8(6)
 519 03dc 01F4      		brne .L31
 520               	/* epilogue start */
 521 03de DF91      		pop r29
 522 03e0 CF91      		pop r28
 523 03e2 1F91      		pop r17
 524 03e4 0895      		ret
 526               	.global	LCD_OutString6x8
 528               	LCD_OutString6x8:
 529 03e6 0F93      		push r16
 530 03e8 1F93      		push r17
 531 03ea CF93      		push r28
 532 03ec DF93      		push r29
 533               	/* prologue: function */
 534               	/* frame size = 0 */
 535 03ee EC01      		movw r28,r24
 536 03f0 FC01      		movw r30,r24
 537               	/* #APP */
 538               	 ;  535 "../src/main.c" 1
 539 03f2 0491      		lpm r16, Z
 540               		
 541               	 ;  0 "" 2
 542               	/* #NOAPP */
 543 03f4 11E0      		ldi r17,lo8(1)
 544 03f6 00C0      		rjmp .L35
 545               	.L36:
 546 03f8 FE01      		movw r30,r28
 547 03fa E10F      		add r30,r17
 548 03fc F11D      		adc r31,__zero_reg__
 549               	/* #APP */
 550               	 ;  537 "../src/main.c" 1
 551 03fe E491      		lpm r30, Z
 552               		
 553               	 ;  0 "" 2
 554               	/* #NOAPP */
 555 0400 8E2F      		mov r24,r30
 556 0402 0E94 0000 		call LCD_OutChar6x8
 557 0406 1F5F      		subi r17,lo8(-(1))
 558               	.L35:
 559 0408 0117      		cp r16,r17
 560 040a 00F4      		brsh .L36
 561               	/* epilogue start */
 562 040c DF91      		pop r29
 563 040e CF91      		pop r28
 564 0410 1F91      		pop r17
 565 0412 0F91      		pop r16
 566 0414 0895      		ret
 568               	.global	LCD_OutChar12x16
 570               	LCD_OutChar12x16:
 571 0416 DF92      		push r13
 572 0418 EF92      		push r14
 573 041a FF92      		push r15
 574 041c 0F93      		push r16
 575 041e 1F93      		push r17
 576 0420 CF93      		push r28
 577 0422 DF93      		push r29
 578               	/* prologue: function */
 579               	/* frame size = 0 */
 580 0424 182F      		mov r17,r24
 581 0426 062F      		mov r16,r22
 582 0428 D42E      		mov r13,r20
 583 042a 862F      		mov r24,r22
 584 042c 642F      		mov r22,r20
 585 042e 0E94 0000 		call LCD_gotoXY
 586 0432 88E1      		ldi r24,lo8(24)
 587 0434 189F      		mul r17,r24
 588 0436 7001      		movw r14,r0
 589 0438 1124      		clr r1
 590 043a E701      		movw r28,r14
 591 043c C050      		subi r28,lo8(-(Font_12x16_Data))
 592 043e D040      		sbci r29,hi8(-(Font_12x16_Data))
 593 0440 10E0      		ldi r17,lo8(0)
 594               	.L39:
 595 0442 FE01      		movw r30,r28
 596               	/* #APP */
 597               	 ;  543 "../src/main.c" 1
 598 0444 8491      		lpm r24, Z
 599               		
 600               	 ;  0 "" 2
 601               	/* #NOAPP */
 602 0446 61E0      		ldi r22,lo8(1)
 603 0448 0E94 0000 		call LCD_sendByte
 604 044c 1F5F      		subi r17,lo8(-(1))
 605 044e 2196      		adiw r28,1
 606 0450 1C30      		cpi r17,lo8(12)
 607 0452 01F4      		brne .L39
 608 0454 802F      		mov r24,r16
 609 0456 8F5F      		subi r24,lo8(-(1))
 610 0458 6D2D      		mov r22,r13
 611 045a 0E94 0000 		call LCD_gotoXY
 612 045e 8701      		movw r16,r14
 613 0460 0050      		subi r16,lo8(-(Font_12x16_Data+12))
 614 0462 1040      		sbci r17,hi8(-(Font_12x16_Data+12))
 615 0464 E701      		movw r28,r14
 616 0466 6896      		adiw r28,24
 617 0468 C050      		subi r28,lo8(-(Font_12x16_Data))
 618 046a D040      		sbci r29,hi8(-(Font_12x16_Data))
 619               	.L40:
 620 046c F801      		movw r30,r16
 621               	/* #APP */
 622               	 ;  545 "../src/main.c" 1
 623 046e 8491      		lpm r24, Z
 624               		
 625               	 ;  0 "" 2
 626               	/* #NOAPP */
 627 0470 61E0      		ldi r22,lo8(1)
 628 0472 0E94 0000 		call LCD_sendByte
 629 0476 0F5F      		subi r16,lo8(-(1))
 630 0478 1F4F      		sbci r17,hi8(-(1))
 631 047a 0C17      		cp r16,r28
 632 047c 1D07      		cpc r17,r29
 633 047e 01F4      		brne .L40
 634 0480 8D2D      		mov r24,r13
 635 0482 845F      		subi r24,lo8(-(12))
 636               	/* epilogue start */
 637 0484 DF91      		pop r29
 638 0486 CF91      		pop r28
 639 0488 1F91      		pop r17
 640 048a 0F91      		pop r16
 641 048c FF90      		pop r15
 642 048e EF90      		pop r14
 643 0490 DF90      		pop r13
 644 0492 0895      		ret
 646               	.global	LCD_OutString12x16
 648               	LCD_OutString12x16:
 649 0494 EF92      		push r14
 650 0496 FF92      		push r15
 651 0498 0F93      		push r16
 652 049a 1F93      		push r17
 653 049c CF93      		push r28
 654 049e DF93      		push r29
 655               	/* prologue: function */
 656               	/* frame size = 0 */
 657 04a0 EC01      		movw r28,r24
 658 04a2 E62E      		mov r14,r22
 659 04a4 042F      		mov r16,r20
 660 04a6 FC01      		movw r30,r24
 661               	/* #APP */
 662               	 ;  551 "../src/main.c" 1
 663 04a8 F490      		lpm r15, Z
 664               		
 665               	 ;  0 "" 2
 666               	/* #NOAPP */
 667 04aa 11E0      		ldi r17,lo8(1)
 668 04ac 00C0      		rjmp .L45
 669               	.L46:
 670 04ae FE01      		movw r30,r28
 671 04b0 E10F      		add r30,r17
 672 04b2 F11D      		adc r31,__zero_reg__
 673               	/* #APP */
 674               	 ;  553 "../src/main.c" 1
 675 04b4 E491      		lpm r30, Z
 676               		
 677               	 ;  0 "" 2
 678               	/* #NOAPP */
 679 04b6 8E2F      		mov r24,r30
 680 04b8 6E2D      		mov r22,r14
 681 04ba 402F      		mov r20,r16
 682 04bc 0E94 0000 		call LCD_OutChar12x16
 683 04c0 045F      		subi r16,lo8(-(12))
 684 04c2 1F5F      		subi r17,lo8(-(1))
 685               	.L45:
 686 04c4 F116      		cp r15,r17
 687 04c6 00F4      		brsh .L46
 688 04c8 802F      		mov r24,r16
 689               	/* epilogue start */
 690 04ca DF91      		pop r29
 691 04cc CF91      		pop r28
 692 04ce 1F91      		pop r17
 693 04d0 0F91      		pop r16
 694 04d2 FF90      		pop r15
 695 04d4 EF90      		pop r14
 696 04d6 0895      		ret
 698               	.global	LCD_OutNumber12x16
 700               	LCD_OutNumber12x16:
 701 04d8 FF92      		push r15
 702 04da 0F93      		push r16
 703 04dc 1F93      		push r17
 704               	/* prologue: function */
 705               	/* frame size = 0 */
 706 04de F82E      		mov r15,r24
 707 04e0 062F      		mov r16,r22
 708 04e2 142F      		mov r17,r20
 709 04e4 64E6      		ldi r22,lo8(100)
 710 04e6 0E94 0000 		call __udivmodqi4
 711 04ea 8823      		tst r24
 712 04ec 01F4      		brne .L49
 713 04ee 20E0      		ldi r18,lo8(0)
 714 04f0 00C0      		rjmp .L50
 715               	.L49:
 716 04f2 805D      		subi r24,lo8(-(48))
 717 04f4 602F      		mov r22,r16
 718 04f6 0E94 0000 		call LCD_OutChar12x16
 719 04fa 145F      		subi r17,lo8(-(12))
 720 04fc 21E0      		ldi r18,lo8(1)
 721               	.L50:
 722 04fe 8F2D      		mov r24,r15
 723 0500 64E6      		ldi r22,lo8(100)
 724 0502 0E94 0000 		call __udivmodqi4
 725 0506 F92E      		mov r15,r25
 726 0508 892F      		mov r24,r25
 727 050a 6AE0      		ldi r22,lo8(10)
 728 050c 0E94 0000 		call __udivmodqi4
 729 0510 8823      		tst r24
 730 0512 01F0      		breq .L51
 731 0514 805D      		subi r24,lo8(-(48))
 732 0516 00C0      		rjmp .L54
 733               	.L51:
 734 0518 2130      		cpi r18,lo8(1)
 735 051a 01F4      		brne .L52
 736 051c 80E3      		ldi r24,lo8(48)
 737               	.L54:
 738 051e 602F      		mov r22,r16
 739 0520 412F      		mov r20,r17
 740 0522 0E94 0000 		call LCD_OutChar12x16
 741 0526 145F      		subi r17,lo8(-(12))
 742               	.L52:
 743 0528 8F2D      		mov r24,r15
 744 052a 6AE0      		ldi r22,lo8(10)
 745 052c 0E94 0000 		call __udivmodqi4
 746 0530 892F      		mov r24,r25
 747 0532 805D      		subi r24,lo8(-(48))
 748 0534 602F      		mov r22,r16
 749 0536 412F      		mov r20,r17
 750 0538 0E94 0000 		call LCD_OutChar12x16
 751 053c 812F      		mov r24,r17
 752 053e 845F      		subi r24,lo8(-(12))
 753               	/* epilogue start */
 754 0540 1F91      		pop r17
 755 0542 0F91      		pop r16
 756 0544 FF90      		pop r15
 757 0546 0895      		ret
 759               	.global	LCD_OutBigNumber12x16
 761               	LCD_OutBigNumber12x16:
 762 0548 DF92      		push r13
 763 054a EF92      		push r14
 764 054c FF92      		push r15
 765 054e 0F93      		push r16
 766 0550 1F93      		push r17
 767 0552 CF93      		push r28
 768 0554 DF93      		push r29
 769               	/* prologue: function */
 770               	/* frame size = 0 */
 771 0556 EC01      		movw r28,r24
 772 0558 F62E      		mov r15,r22
 773 055a 142F      		mov r17,r20
 774 055c 60E1      		ldi r22,lo8(10000)
 775 055e 77E2      		ldi r23,hi8(10000)
 776 0560 0E94 0000 		call __udivmodhi4
 777 0564 CB01      		movw r24,r22
 778 0566 6115      		cp r22,__zero_reg__
 779 0568 7105      		cpc r23,__zero_reg__
 780 056a 01F4      		brne .L56
 781 056c 00E0      		ldi r16,lo8(0)
 782 056e 00C0      		rjmp .L57
 783               	.L56:
 784 0570 805D      		subi r24,lo8(-(48))
 785 0572 6F2D      		mov r22,r15
 786 0574 0E94 0000 		call LCD_OutChar12x16
 787 0578 145F      		subi r17,lo8(-(12))
 788 057a 01E0      		ldi r16,lo8(1)
 789               	.L57:
 790 057c CE01      		movw r24,r28
 791 057e 60E1      		ldi r22,lo8(10000)
 792 0580 77E2      		ldi r23,hi8(10000)
 793 0582 0E94 0000 		call __udivmodhi4
 794 0586 E82E      		mov r14,r24
 795 0588 D92E      		mov r13,r25
 796 058a 68EE      		ldi r22,lo8(1000)
 797 058c 73E0      		ldi r23,hi8(1000)
 798 058e 0E94 0000 		call __udivmodhi4
 799 0592 CB01      		movw r24,r22
 800 0594 6115      		cp r22,__zero_reg__
 801 0596 7105      		cpc r23,__zero_reg__
 802 0598 01F0      		breq .L58
 803 059a 805D      		subi r24,lo8(-(48))
 804 059c 6F2D      		mov r22,r15
 805 059e 412F      		mov r20,r17
 806 05a0 0E94 0000 		call LCD_OutChar12x16
 807 05a4 145F      		subi r17,lo8(-(12))
 808 05a6 01E0      		ldi r16,lo8(1)
 809 05a8 00C0      		rjmp .L59
 810               	.L58:
 811 05aa 0130      		cpi r16,lo8(1)
 812 05ac 01F0      		breq .L60
 813 05ae 00E0      		ldi r16,lo8(0)
 814 05b0 00C0      		rjmp .L59
 815               	.L60:
 816 05b2 80E3      		ldi r24,lo8(48)
 817 05b4 6F2D      		mov r22,r15
 818 05b6 412F      		mov r20,r17
 819 05b8 0E94 0000 		call LCD_OutChar12x16
 820 05bc 145F      		subi r17,lo8(-(12))
 821               	.L59:
 822 05be 8E2D      		mov r24,r14
 823 05c0 9D2D      		mov r25,r13
 824 05c2 68EE      		ldi r22,lo8(1000)
 825 05c4 73E0      		ldi r23,hi8(1000)
 826 05c6 0E94 0000 		call __udivmodhi4
 827 05ca E82E      		mov r14,r24
 828 05cc D92E      		mov r13,r25
 829 05ce 64E6      		ldi r22,lo8(100)
 830 05d0 70E0      		ldi r23,hi8(100)
 831 05d2 0E94 0000 		call __udivmodhi4
 832 05d6 CB01      		movw r24,r22
 833 05d8 6115      		cp r22,__zero_reg__
 834 05da 7105      		cpc r23,__zero_reg__
 835 05dc 01F0      		breq .L61
 836 05de 805D      		subi r24,lo8(-(48))
 837 05e0 6F2D      		mov r22,r15
 838 05e2 412F      		mov r20,r17
 839 05e4 0E94 0000 		call LCD_OutChar12x16
 840 05e8 145F      		subi r17,lo8(-(12))
 841 05ea 01E0      		ldi r16,lo8(1)
 842 05ec 00C0      		rjmp .L62
 843               	.L61:
 844 05ee 0130      		cpi r16,lo8(1)
 845 05f0 01F0      		breq .L63
 846 05f2 00E0      		ldi r16,lo8(0)
 847 05f4 00C0      		rjmp .L62
 848               	.L63:
 849 05f6 80E3      		ldi r24,lo8(48)
 850 05f8 6F2D      		mov r22,r15
 851 05fa 412F      		mov r20,r17
 852 05fc 0E94 0000 		call LCD_OutChar12x16
 853 0600 145F      		subi r17,lo8(-(12))
 854               	.L62:
 855 0602 8E2D      		mov r24,r14
 856 0604 9D2D      		mov r25,r13
 857 0606 64E6      		ldi r22,lo8(100)
 858 0608 70E0      		ldi r23,hi8(100)
 859 060a 0E94 0000 		call __udivmodhi4
 860 060e E82E      		mov r14,r24
 861 0610 D92E      		mov r13,r25
 862 0612 6AE0      		ldi r22,lo8(10)
 863 0614 70E0      		ldi r23,hi8(10)
 864 0616 0E94 0000 		call __udivmodhi4
 865 061a CB01      		movw r24,r22
 866 061c 6115      		cp r22,__zero_reg__
 867 061e 7105      		cpc r23,__zero_reg__
 868 0620 01F0      		breq .L64
 869 0622 805D      		subi r24,lo8(-(48))
 870 0624 00C0      		rjmp .L67
 871               	.L64:
 872 0626 0130      		cpi r16,lo8(1)
 873 0628 01F4      		brne .L65
 874 062a 80E3      		ldi r24,lo8(48)
 875               	.L67:
 876 062c 6F2D      		mov r22,r15
 877 062e 412F      		mov r20,r17
 878 0630 0E94 0000 		call LCD_OutChar12x16
 879 0634 145F      		subi r17,lo8(-(12))
 880               	.L65:
 881 0636 8E2D      		mov r24,r14
 882 0638 9D2D      		mov r25,r13
 883 063a 6AE0      		ldi r22,lo8(10)
 884 063c 70E0      		ldi r23,hi8(10)
 885 063e 0E94 0000 		call __udivmodhi4
 886 0642 805D      		subi r24,lo8(-(48))
 887 0644 6F2D      		mov r22,r15
 888 0646 412F      		mov r20,r17
 889 0648 0E94 0000 		call LCD_OutChar12x16
 890 064c 812F      		mov r24,r17
 891 064e 845F      		subi r24,lo8(-(12))
 892               	/* epilogue start */
 893 0650 DF91      		pop r29
 894 0652 CF91      		pop r28
 895 0654 1F91      		pop r17
 896 0656 0F91      		pop r16
 897 0658 FF90      		pop r15
 898 065a EF90      		pop r14
 899 065c DF90      		pop r13
 900 065e 0895      		ret
 902               	.global	ReadMAX6675
 904               	ReadMAX6675:
 905               	/* prologue: function */
 906               	/* frame size = 0 */
 907 0660 482F      		mov r20,r24
 908 0662 8150      		subi r24,lo8(-(-1))
 909 0664 8230      		cpi r24,lo8(2)
 910 0666 00F0      		brlo .L69
 911 0668 1092 0000 		sts STATUS_TC1,__zero_reg__
 912 066c 1092 0000 		sts STATUS_TC2,__zero_reg__
 913 0670 0895      		ret
 914               	.L69:
 915 0672 4130      		cpi r20,lo8(1)
 916 0674 01F4      		brne .L71
 917 0676 AE98      		cbi 53-32,6
 918 0678 00C0      		rjmp .L83
 919               	.L71:
 920 067a AD98      		cbi 53-32,5
 921               	.L83:
 922 067c 80E1      		ldi r24,lo8(16)
 923 067e 20E0      		ldi r18,lo8(0)
 924 0680 30E0      		ldi r19,hi8(0)
 925 0682 00C0      		rjmp .L82
 926               	.L74:
 927 0684 AF9A      		sbi 53-32,7
 928 0686 220F      		lsl r18
 929 0688 331F      		rol r19
 930 068a 9C99      		sbic 51-32,4
 931 068c 2160      		ori r18,lo8(1)
 932               	.L73:
 933 068e AF98      		cbi 53-32,7
 934               	.L82:
 935 0690 8150      		subi r24,1
 936 0692 00F4      		brcc .L74
 937 0694 4130      		cpi r20,lo8(1)
 938 0696 01F4      		brne .L75
 939 0698 AE9A      		sbi 53-32,6
 940 069a 00C0      		rjmp .L76
 941               	.L75:
 942 069c AD9A      		sbi 53-32,5
 943               	.L76:
 944 069e C901      		movw r24,r18
 945 06a0 8670      		andi r24,lo8(-32762)
 946 06a2 9078      		andi r25,hi8(-32762)
 947 06a4 892B      		or r24,r25
 948 06a6 01F0      		breq .L77
 949 06a8 80E0      		ldi r24,lo8(0)
 950 06aa 90E0      		ldi r25,hi8(0)
 951 06ac 22E0      		ldi r18,lo8(2)
 952 06ae 00C0      		rjmp .L78
 953               	.L77:
 954 06b0 C901      		movw r24,r18
 955 06b2 25E0      		ldi r18,5
 956 06b4 9695      	1:	lsr r25
 957 06b6 8795      		ror r24
 958 06b8 2A95      		dec r18
 959 06ba 01F4      		brne 1b
 960 06bc 23E0      		ldi r18,hi8(1000)
 961 06be 883E      		cpi r24,lo8(1000)
 962 06c0 9207      		cpc r25,r18
 963 06c2 00F0      		brlo .L79
 964 06c4 23E0      		ldi r18,lo8(3)
 965 06c6 00C0      		rjmp .L78
 966               	.L79:
 967 06c8 21E0      		ldi r18,lo8(1)
 968               	.L78:
 969 06ca 4130      		cpi r20,lo8(1)
 970 06cc 01F4      		brne .L80
 971 06ce 2093 0000 		sts STATUS_TC1,r18
 972 06d2 9093 0000 		sts (VALUE_TC1)+1,r25
 973 06d6 8093 0000 		sts VALUE_TC1,r24
 974 06da 0895      		ret
 975               	.L80:
 976 06dc 2093 0000 		sts STATUS_TC2,r18
 977 06e0 9093 0000 		sts (VALUE_TC2)+1,r25
 978 06e4 8093 0000 		sts VALUE_TC2,r24
 979 06e8 0895      		ret
 981               	.global	OutMenuToLCD
 983               	OutMenuToLCD:
 984 06ea 1F93      		push r17
 985               	/* prologue: function */
 986               	/* frame size = 0 */
 987 06ec 80E0      		ldi r24,lo8(0)
 988 06ee 0E94 0000 		call LCD_clear
 989 06f2 80E0      		ldi r24,lo8(0)
 990 06f4 6EE0      		ldi r22,lo8(14)
 991 06f6 0E94 0000 		call LCD_gotoXY
 992 06fa 80E0      		ldi r24,lo8(LabelSetting)
 993 06fc 90E0      		ldi r25,hi8(LabelSetting)
 994 06fe 0E94 0000 		call LCD_OutString6x8
 995 0702 81E0      		ldi r24,lo8(1)
 996 0704 60E0      		ldi r22,lo8(0)
 997 0706 0E94 0000 		call LCD_gotoXY
 998 070a 1EE0      		ldi r17,lo8(14)
 999 070c 00C0      		rjmp .L85
 1000               	.L86:
 1001 070e 8DE3      		ldi r24,lo8(61)
 1002 0710 0E94 0000 		call LCD_OutChar6x8
 1003               	.L85:
 1004 0714 1150      		subi r17,1
 1005 0716 00F4      		brcc .L86
 1006 0718 8091 0000 		lds r24,MENU
 1007 071c 8530      		cpi r24,lo8(5)
 1008 071e 01F4      		brne .+2
 1009 0720 00C0      		rjmp .L93
 1010 0722 8630      		cpi r24,lo8(6)
 1011 0724 00F4      		brsh .L100
 1012 0726 8230      		cpi r24,lo8(2)
 1013 0728 01F4      		brne .+2
 1014 072a 00C0      		rjmp .L90
 1015 072c 8330      		cpi r24,lo8(3)
 1016 072e 00F4      		brsh .L101
 1017 0730 8823      		tst r24
 1018 0732 01F0      		breq .L88
 1019 0734 8130      		cpi r24,lo8(1)
 1020 0736 01F0      		breq .+2
 1021 0738 00C0      		rjmp .L103
 1022 073a 00C0      		rjmp .L111
 1023               	.L101:
 1024 073c 8330      		cpi r24,lo8(3)
 1025 073e 01F4      		brne .+2
 1026 0740 00C0      		rjmp .L91
 1027 0742 8430      		cpi r24,lo8(4)
 1028 0744 01F0      		breq .+2
 1029 0746 00C0      		rjmp .L103
 1030 0748 00C0      		rjmp .L112
 1031               	.L100:
 1032 074a 8830      		cpi r24,lo8(8)
 1033 074c 01F4      		brne .+2
 1034 074e 00C0      		rjmp .L96
 1035 0750 8930      		cpi r24,lo8(9)
 1036 0752 00F4      		brsh .L102
 1037 0754 8630      		cpi r24,lo8(6)
 1038 0756 01F4      		brne .+2
 1039 0758 00C0      		rjmp .L94
 1040 075a 8730      		cpi r24,lo8(7)
 1041 075c 01F0      		breq .+2
 1042 075e 00C0      		rjmp .L103
 1043 0760 00C0      		rjmp .L113
 1044               	.L102:
 1045 0762 8A30      		cpi r24,lo8(10)
 1046 0764 01F4      		brne .+2
 1047 0766 00C0      		rjmp .L98
 1048 0768 8A30      		cpi r24,lo8(10)
 1049 076a 00F4      		brsh .+2
 1050 076c 00C0      		rjmp .L97
 1051 076e 8B30      		cpi r24,lo8(11)
 1052 0770 01F0      		breq .+2
 1053 0772 00C0      		rjmp .L103
 1054 0774 00C0      		rjmp .L114
 1055               	.L88:
 1056 0776 82E0      		ldi r24,lo8(2)
 1057 0778 69E0      		ldi r22,lo8(9)
 1058 077a 0E94 0000 		call LCD_gotoXY
 1059 077e 80E0      		ldi r24,lo8(Label_TEMP)
 1060 0780 90E0      		ldi r25,hi8(Label_TEMP)
 1061 0782 0E94 0000 		call LCD_OutString6x8
 1062 0786 83E0      		ldi r24,lo8(3)
 1063 0788 6FE0      		ldi r22,lo8(15)
 1064 078a 0E94 0000 		call LCD_gotoXY
 1065 078e 80E0      		ldi r24,lo8(Label_ROOM)
 1066 0790 90E0      		ldi r25,hi8(Label_ROOM)
 1067 0792 0E94 0000 		call LCD_OutString6x8
 1068 0796 8091 0000 		lds r24,SETVAL_TEMP_ROOM
 1069 079a 64E0      		ldi r22,lo8(4)
 1070 079c 42E1      		ldi r20,lo8(18)
 1071 079e 00C0      		rjmp .L106
 1072               	.L111:
 1073 07a0 82E0      		ldi r24,lo8(2)
 1074 07a2 60E0      		ldi r22,lo8(0)
 1075 07a4 0E94 0000 		call LCD_gotoXY
 1076 07a8 80E0      		ldi r24,lo8(Label_DELTA_TEMP)
 1077 07aa 90E0      		ldi r25,hi8(Label_DELTA_TEMP)
 1078 07ac 0E94 0000 		call LCD_OutString6x8
 1079 07b0 83E0      		ldi r24,lo8(3)
 1080 07b2 6FE0      		ldi r22,lo8(15)
 1081 07b4 0E94 0000 		call LCD_gotoXY
 1082 07b8 80E0      		ldi r24,lo8(Label_ROOM)
 1083 07ba 90E0      		ldi r25,hi8(Label_ROOM)
 1084 07bc 0E94 0000 		call LCD_OutString6x8
 1085 07c0 8091 0000 		lds r24,SETVAL_DELTA_TEMP_ROOM
 1086 07c4 00C0      		rjmp .L109
 1087               	.L90:
 1088 07c6 82E0      		ldi r24,lo8(2)
 1089 07c8 69E0      		ldi r22,lo8(9)
 1090 07ca 0E94 0000 		call LCD_gotoXY
 1091 07ce 80E0      		ldi r24,lo8(Label_TEMP)
 1092 07d0 90E0      		ldi r25,hi8(Label_TEMP)
 1093 07d2 0E94 0000 		call LCD_OutString6x8
 1094 07d6 83E0      		ldi r24,lo8(3)
 1095 07d8 63E0      		ldi r22,lo8(3)
 1096 07da 0E94 0000 		call LCD_gotoXY
 1097 07de 80E0      		ldi r24,lo8(Label_TOP_OVEN)
 1098 07e0 90E0      		ldi r25,hi8(Label_TOP_OVEN)
 1099 07e2 0E94 0000 		call LCD_OutString6x8
 1100 07e6 8091 0000 		lds r24,SETVAL_TEMP_TOP_OVEN
 1101               	.L109:
 1102 07ea 64E0      		ldi r22,lo8(4)
 1103 07ec 45E1      		ldi r20,lo8(21)
 1104 07ee 00C0      		rjmp .L106
 1105               	.L91:
 1106 07f0 82E0      		ldi r24,lo8(2)
 1107 07f2 60E0      		ldi r22,lo8(0)
 1108 07f4 0E94 0000 		call LCD_gotoXY
 1109 07f8 80E0      		ldi r24,lo8(Label_DELTA_TEMP)
 1110 07fa 90E0      		ldi r25,hi8(Label_DELTA_TEMP)
 1111 07fc 0E94 0000 		call LCD_OutString6x8
 1112 0800 83E0      		ldi r24,lo8(3)
 1113 0802 60E0      		ldi r22,lo8(0)
 1114 0804 0E94 0000 		call LCD_gotoXY
 1115 0808 80E0      		ldi r24,lo8(Label_TOP_OVEN)
 1116 080a 90E0      		ldi r25,hi8(Label_TOP_OVEN)
 1117 080c 0E94 0000 		call LCD_OutString6x8
 1118 0810 8091 0000 		lds r24,SETVAL_DELTA_TEMP_TOP_OVEN
 1119 0814 00C0      		rjmp .L109
 1120               	.L112:
 1121 0816 82E0      		ldi r24,lo8(2)
 1122 0818 60E0      		ldi r22,lo8(0)
 1123 081a 0E94 0000 		call LCD_gotoXY
 1124 081e 80E0      		ldi r24,lo8(Label_TEMP)
 1125 0820 90E0      		ldi r25,hi8(Label_TEMP)
 1126 0822 0E94 0000 		call LCD_OutString6x8
 1127 0826 83E0      		ldi r24,lo8(3)
 1128 0828 60E0      		ldi r22,lo8(0)
 1129 082a 0E94 0000 		call LCD_gotoXY
 1130 082e 80E0      		ldi r24,lo8(Label_START_PYROLYS)
 1131 0830 90E0      		ldi r25,hi8(Label_START_PYROLYS)
 1132 0832 0E94 0000 		call LCD_OutString6x8
 1133 0836 8091 0000 		lds r24,SETVAL_TEMP_PYROLYS_START
 1134 083a 9091 0000 		lds r25,(SETVAL_TEMP_PYROLYS_START)+1
 1135 083e 00C0      		rjmp .L110
 1136               	.L93:
 1137 0840 82E0      		ldi r24,lo8(2)
 1138 0842 60E0      		ldi r22,lo8(0)
 1139 0844 0E94 0000 		call LCD_gotoXY
 1140 0848 80E0      		ldi r24,lo8(Label_TEMP)
 1141 084a 90E0      		ldi r25,hi8(Label_TEMP)
 1142 084c 0E94 0000 		call LCD_OutString6x8
 1143 0850 83E0      		ldi r24,lo8(3)
 1144 0852 60E0      		ldi r22,lo8(0)
 1145 0854 0E94 0000 		call LCD_gotoXY
 1146 0858 80E0      		ldi r24,lo8(Label_FULL_PYROLYS)
 1147 085a 90E0      		ldi r25,hi8(Label_FULL_PYROLYS)
 1148 085c 0E94 0000 		call LCD_OutString6x8
 1149 0860 8091 0000 		lds r24,SETVAL_TEMP_PYROLYS_FULL
 1150 0864 9091 0000 		lds r25,(SETVAL_TEMP_PYROLYS_FULL)+1
 1151               	.L110:
 1152 0868 64E0      		ldi r22,lo8(4)
 1153 086a 4CE0      		ldi r20,lo8(12)
 1154 086c 0E94 0000 		call LCD_OutBigNumber12x16
 1155 0870 00C0      		rjmp .L107
 1156               	.L94:
 1157 0872 82E0      		ldi r24,lo8(2)
 1158 0874 60E0      		ldi r22,lo8(0)
 1159 0876 0E94 0000 		call LCD_gotoXY
 1160 087a 80E0      		ldi r24,lo8(Label_RAZN_TEMP)
 1161 087c 90E0      		ldi r25,hi8(Label_RAZN_TEMP)
 1162 087e 0E94 0000 		call LCD_OutString6x8
 1163 0882 83E0      		ldi r24,lo8(3)
 1164 0884 60E0      		ldi r22,lo8(0)
 1165 0886 0E94 0000 		call LCD_gotoXY
 1166 088a 80E0      		ldi r24,lo8(Label_SHUTDOWN)
 1167 088c 90E0      		ldi r25,hi8(Label_SHUTDOWN)
 1168 088e 0E94 0000 		call LCD_OutString6x8
 1169 0892 8091 0000 		lds r24,SETVAL_DELTA_TEMP_SHUTDOWN
 1170 0896 64E0      		ldi r22,lo8(4)
 1171 0898 4CE0      		ldi r20,lo8(12)
 1172               	.L106:
 1173 089a 0E94 0000 		call LCD_OutNumber12x16
 1174               	.L107:
 1175 089e 482F      		mov r20,r24
 1176 08a0 80E0      		ldi r24,lo8(LabelCC)
 1177 08a2 90E0      		ldi r25,hi8(LabelCC)
 1178 08a4 00C0      		rjmp .L104
 1179               	.L113:
 1180 08a6 82E0      		ldi r24,lo8(2)
 1181 08a8 60E0      		ldi r22,lo8(0)
 1182 08aa 0E94 0000 		call LCD_gotoXY
 1183 08ae 80E0      		ldi r24,lo8(Label_PWM_START)
 1184 08b0 90E0      		ldi r25,hi8(Label_PWM_START)
 1185 08b2 0E94 0000 		call LCD_OutString6x8
 1186 08b6 83E0      		ldi r24,lo8(3)
 1187 08b8 60E0      		ldi r22,lo8(0)
 1188 08ba 0E94 0000 		call LCD_gotoXY
 1189 08be 80E0      		ldi r24,lo8(Label_FAN)
 1190 08c0 90E0      		ldi r25,hi8(Label_FAN)
 1191 08c2 0E94 0000 		call LCD_OutString6x8
 1192 08c6 81E3      		ldi r24,lo8(49)
 1193 08c8 0E94 0000 		call LCD_OutChar6x8
 1194 08cc 8091 0000 		lds r24,SETVAL_PWM_FAN1_START
 1195 08d0 00C0      		rjmp .L105
 1196               	.L96:
 1197 08d2 82E0      		ldi r24,lo8(2)
 1198 08d4 60E0      		ldi r22,lo8(0)
 1199 08d6 0E94 0000 		call LCD_gotoXY
 1200 08da 80E0      		ldi r24,lo8(Label_PWM_START)
 1201 08dc 90E0      		ldi r25,hi8(Label_PWM_START)
 1202 08de 0E94 0000 		call LCD_OutString6x8
 1203 08e2 83E0      		ldi r24,lo8(3)
 1204 08e4 60E0      		ldi r22,lo8(0)
 1205 08e6 0E94 0000 		call LCD_gotoXY
 1206 08ea 80E0      		ldi r24,lo8(Label_FAN)
 1207 08ec 90E0      		ldi r25,hi8(Label_FAN)
 1208 08ee 0E94 0000 		call LCD_OutString6x8
 1209 08f2 82E3      		ldi r24,lo8(50)
 1210 08f4 0E94 0000 		call LCD_OutChar6x8
 1211 08f8 8091 0000 		lds r24,SETVAL_PWM_FAN2_START
 1212 08fc 00C0      		rjmp .L105
 1213               	.L97:
 1214 08fe 82E0      		ldi r24,lo8(2)
 1215 0900 60E0      		ldi r22,lo8(0)
 1216 0902 0E94 0000 		call LCD_gotoXY
 1217 0906 80E0      		ldi r24,lo8(Label_PWM_START)
 1218 0908 90E0      		ldi r25,hi8(Label_PWM_START)
 1219 090a 0E94 0000 		call LCD_OutString6x8
 1220 090e 83E0      		ldi r24,lo8(3)
 1221 0910 60E0      		ldi r22,lo8(0)
 1222 0912 0E94 0000 		call LCD_gotoXY
 1223 0916 80E0      		ldi r24,lo8(Label_FAN)
 1224 0918 90E0      		ldi r25,hi8(Label_FAN)
 1225 091a 0E94 0000 		call LCD_OutString6x8
 1226 091e 83E3      		ldi r24,lo8(51)
 1227 0920 0E94 0000 		call LCD_OutChar6x8
 1228 0924 8091 0000 		lds r24,SETVAL_PWM_FAN3_START
 1229               	.L105:
 1230 0928 64E0      		ldi r22,lo8(4)
 1231 092a 45E1      		ldi r20,lo8(21)
 1232 092c 0E94 0000 		call LCD_OutNumber12x16
 1233 0930 482F      		mov r20,r24
 1234 0932 85E2      		ldi r24,lo8(37)
 1235 0934 64E0      		ldi r22,lo8(4)
 1236 0936 0E94 0000 		call LCD_OutChar12x16
 1237 093a 00C0      		rjmp .L103
 1238               	.L98:
 1239 093c 82E0      		ldi r24,lo8(2)
 1240 093e 60E0      		ldi r22,lo8(0)
 1241 0940 0E94 0000 		call LCD_gotoXY
 1242 0944 80E0      		ldi r24,lo8(Label_TIME_START)
 1243 0946 90E0      		ldi r25,hi8(Label_TIME_START)
 1244 0948 0E94 0000 		call LCD_OutString6x8
 1245 094c 83E0      		ldi r24,lo8(3)
 1246 094e 60E0      		ldi r22,lo8(0)
 1247 0950 0E94 0000 		call LCD_gotoXY
 1248 0954 80E0      		ldi r24,lo8(Label_FAN)
 1249 0956 90E0      		ldi r25,hi8(Label_FAN)
 1250 0958 0E94 0000 		call LCD_OutString6x8
 1251 095c 81E3      		ldi r24,lo8(49)
 1252 095e 0E94 0000 		call LCD_OutChar6x8
 1253 0962 8091 0000 		lds r24,SETVAL_M1_START_PERIOD
 1254 0966 00C0      		rjmp .L108
 1255               	.L114:
 1256 0968 82E0      		ldi r24,lo8(2)
 1257 096a 60E0      		ldi r22,lo8(0)
 1258 096c 0E94 0000 		call LCD_gotoXY
 1259 0970 80E0      		ldi r24,lo8(Label_TIME_STOP)
 1260 0972 90E0      		ldi r25,hi8(Label_TIME_STOP)
 1261 0974 0E94 0000 		call LCD_OutString6x8
 1262 0978 83E0      		ldi r24,lo8(3)
 1263 097a 60E0      		ldi r22,lo8(0)
 1264 097c 0E94 0000 		call LCD_gotoXY
 1265 0980 80E0      		ldi r24,lo8(Label_FAN)
 1266 0982 90E0      		ldi r25,hi8(Label_FAN)
 1267 0984 0E94 0000 		call LCD_OutString6x8
 1268 0988 81E3      		ldi r24,lo8(49)
 1269 098a 0E94 0000 		call LCD_OutChar6x8
 1270 098e 8091 0000 		lds r24,SETVAL_M1_STOP_PERIOD
 1271               	.L108:
 1272 0992 64E0      		ldi r22,lo8(4)
 1273 0994 45E1      		ldi r20,lo8(21)
 1274 0996 0E94 0000 		call LCD_OutNumber12x16
 1275 099a 482F      		mov r20,r24
 1276 099c 80E0      		ldi r24,lo8(Label_MIN)
 1277 099e 90E0      		ldi r25,hi8(Label_MIN)
 1278               	.L104:
 1279 09a0 64E0      		ldi r22,lo8(4)
 1280 09a2 0E94 0000 		call LCD_OutString12x16
 1281               	.L103:
 1282               	/* epilogue start */
 1283 09a6 1F91      		pop r17
 1284 09a8 0895      		ret
 1286               	.global	ExecuteButton
 1288               	ExecuteButton:
 1289               	/* prologue: function */
 1290               	/* frame size = 0 */
 1291 09aa 8091 0000 		lds r24,STATUS
 1292 09ae 83FF      		sbrs r24,3
 1293 09b0 00C0      		rjmp .L116
 1294 09b2 8AE0      		ldi r24,lo8(10)
 1295 09b4 8093 0000 		sts CountMUL_MENU_WAIT,r24
 1296               	.L116:
 1297 09b8 8091 0000 		lds r24,BUTTON
 1298 09bc 80FF      		sbrs r24,0
 1299 09be 00C0      		rjmp .L117
 1300 09c0 8091 0000 		lds r24,STATUS
 1301 09c4 83FD      		sbrc r24,3
 1302 09c6 00C0      		rjmp .L118
 1303 09c8 8091 0000 		lds r24,STATUS
 1304 09cc 8860      		ori r24,lo8(8)
 1305 09ce 8093 0000 		sts STATUS,r24
 1306 09d2 1092 0000 		sts MENU,__zero_reg__
 1307 09d6 9698      		cbi 50-32,6
 1308 09d8 8AE0      		ldi r24,lo8(10)
 1309 09da 8093 0000 		sts CountMUL_MENU_WAIT,r24
 1310 09de 00C0      		rjmp .L120
 1311               	.L118:
 1312 09e0 8091 0000 		lds r24,MENU
 1313 09e4 8F5F      		subi r24,lo8(-(1))
 1314 09e6 8093 0000 		sts MENU,r24
 1315 09ea 8091 0000 		lds r24,MENU
 1316 09ee 8C30      		cpi r24,lo8(12)
 1317 09f0 01F4      		brne .L120
 1318 09f2 1092 0000 		sts MENU,__zero_reg__
 1319               	.L120:
 1320 09f6 0E94 0000 		call OutMenuToLCD
 1321 09fa 8091 0000 		lds r24,BUTTON
 1322 09fe 8E7F      		andi r24,lo8(-2)
 1323 0a00 8093 0000 		sts BUTTON,r24
 1324               	.L117:
 1325 0a04 8091 0000 		lds r24,BUTTON
 1326 0a08 81FF      		sbrs r24,1
 1327 0a0a 00C0      		rjmp .L121
 1328 0a0c 8091 0000 		lds r24,STATUS
 1329 0a10 83FD      		sbrc r24,3
 1330 0a12 00C0      		rjmp .L122
 1331 0a14 81E0      		ldi r24,lo8(1)
 1332 0a16 8093 0000 		sts LED_LIGTH,r24
 1333 0a1a 9698      		cbi 50-32,6
 1334 0a1c 00C0      		rjmp .L123
 1335               	.L122:
 1336 0a1e 8091 0000 		lds r24,MENU
 1337 0a22 8530      		cpi r24,lo8(5)
 1338 0a24 01F4      		brne .+2
 1339 0a26 00C0      		rjmp .L130
 1340 0a28 8630      		cpi r24,lo8(6)
 1341 0a2a 00F4      		brsh .L137
 1342 0a2c 8230      		cpi r24,lo8(2)
 1343 0a2e 01F0      		breq .L127
 1344 0a30 8330      		cpi r24,lo8(3)
 1345 0a32 00F4      		brsh .L138
 1346 0a34 8823      		tst r24
 1347 0a36 01F0      		breq .L125
 1348 0a38 8130      		cpi r24,lo8(1)
 1349 0a3a 01F0      		breq .+2
 1350 0a3c 00C0      		rjmp .L124
 1351 0a3e 00C0      		rjmp .L164
 1352               	.L138:
 1353 0a40 8330      		cpi r24,lo8(3)
 1354 0a42 01F0      		breq .L128
 1355 0a44 8430      		cpi r24,lo8(4)
 1356 0a46 01F0      		breq .+2
 1357 0a48 00C0      		rjmp .L124
 1358 0a4a 00C0      		rjmp .L165
 1359               	.L137:
 1360 0a4c 8830      		cpi r24,lo8(8)
 1361 0a4e 01F4      		brne .+2
 1362 0a50 00C0      		rjmp .L133
 1363 0a52 8930      		cpi r24,lo8(9)
 1364 0a54 00F4      		brsh .L139
 1365 0a56 8630      		cpi r24,lo8(6)
 1366 0a58 01F4      		brne .+2
 1367 0a5a 00C0      		rjmp .L131
 1368 0a5c 8730      		cpi r24,lo8(7)
 1369 0a5e 01F0      		breq .+2
 1370 0a60 00C0      		rjmp .L124
 1371 0a62 00C0      		rjmp .L166
 1372               	.L139:
 1373 0a64 8A30      		cpi r24,lo8(10)
 1374 0a66 01F4      		brne .+2
 1375 0a68 00C0      		rjmp .L135
 1376 0a6a 8A30      		cpi r24,lo8(10)
 1377 0a6c 00F4      		brsh .+2
 1378 0a6e 00C0      		rjmp .L134
 1379 0a70 8B30      		cpi r24,lo8(11)
 1380 0a72 01F0      		breq .+2
 1381 0a74 00C0      		rjmp .L124
 1382 0a76 00C0      		rjmp .L167
 1383               	.L125:
 1384 0a78 8091 0000 		lds r24,SETVAL_TEMP_ROOM
 1385 0a7c 8E31      		cpi r24,lo8(30)
 1386 0a7e 01F4      		brne .+2
 1387 0a80 00C0      		rjmp .L124
 1388 0a82 8091 0000 		lds r24,SETVAL_TEMP_ROOM
 1389 0a86 8F5F      		subi r24,lo8(-(1))
 1390 0a88 8093 0000 		sts SETVAL_TEMP_ROOM,r24
 1391 0a8c 00C0      		rjmp .L124
 1392               	.L164:
 1393 0a8e 8091 0000 		lds r24,SETVAL_DELTA_TEMP_ROOM
 1394 0a92 8530      		cpi r24,lo8(5)
 1395 0a94 01F4      		brne .+2
 1396 0a96 00C0      		rjmp .L124
 1397 0a98 8091 0000 		lds r24,SETVAL_DELTA_TEMP_ROOM
 1398 0a9c 8F5F      		subi r24,lo8(-(1))
 1399 0a9e 8093 0000 		sts SETVAL_DELTA_TEMP_ROOM,r24
 1400 0aa2 00C0      		rjmp .L124
 1401               	.L127:
 1402 0aa4 8091 0000 		lds r24,SETVAL_TEMP_TOP_OVEN
 1403 0aa8 8C38      		cpi r24,lo8(-116)
 1404 0aaa 01F4      		brne .+2
 1405 0aac 00C0      		rjmp .L124
 1406 0aae 8091 0000 		lds r24,SETVAL_TEMP_TOP_OVEN
 1407 0ab2 8F5F      		subi r24,lo8(-(1))
 1408 0ab4 8093 0000 		sts SETVAL_TEMP_TOP_OVEN,r24
 1409 0ab8 00C0      		rjmp .L124
 1410               	.L128:
 1411 0aba 8091 0000 		lds r24,SETVAL_DELTA_TEMP_TOP_OVEN
 1412 0abe 8431      		cpi r24,lo8(20)
 1413 0ac0 01F4      		brne .+2
 1414 0ac2 00C0      		rjmp .L124
 1415 0ac4 8091 0000 		lds r24,SETVAL_DELTA_TEMP_TOP_OVEN
 1416 0ac8 8F5F      		subi r24,lo8(-(1))
 1417 0aca 8093 0000 		sts SETVAL_DELTA_TEMP_TOP_OVEN,r24
 1418 0ace 00C0      		rjmp .L124
 1419               	.L165:
 1420 0ad0 8091 0000 		lds r24,SETVAL_TEMP_PYROLYS_START
 1421 0ad4 9091 0000 		lds r25,(SETVAL_TEMP_PYROLYS_START)+1
 1422 0ad8 8855      		subi r24,lo8(600)
 1423 0ada 9240      		sbci r25,hi8(600)
 1424 0adc 01F4      		brne .+2
 1425 0ade 00C0      		rjmp .L124
 1426 0ae0 8091 0000 		lds r24,SETVAL_TEMP_PYROLYS_START
 1427 0ae4 9091 0000 		lds r25,(SETVAL_TEMP_PYROLYS_START)+1
 1428 0ae8 0A96      		adiw r24,10
 1429 0aea 9093 0000 		sts (SETVAL_TEMP_PYROLYS_START)+1,r25
 1430 0aee 8093 0000 		sts SETVAL_TEMP_PYROLYS_START,r24
 1431 0af2 2091 0000 		lds r18,SETVAL_TEMP_PYROLYS_FULL
 1432 0af6 3091 0000 		lds r19,(SETVAL_TEMP_PYROLYS_FULL)+1
 1433 0afa 8091 0000 		lds r24,SETVAL_TEMP_PYROLYS_START
 1434 0afe 9091 0000 		lds r25,(SETVAL_TEMP_PYROLYS_START)+1
 1435 0b02 8C59      		subi r24,lo8(-(100))
 1436 0b04 9F4F      		sbci r25,hi8(-(100))
 1437 0b06 2817      		cp r18,r24
 1438 0b08 3907      		cpc r19,r25
 1439 0b0a 00F0      		brlo .+2
 1440 0b0c 00C0      		rjmp .L124
 1441 0b0e 8091 0000 		lds r24,SETVAL_TEMP_PYROLYS_START
 1442 0b12 9091 0000 		lds r25,(SETVAL_TEMP_PYROLYS_START)+1
 1443 0b16 8C59      		subi r24,lo8(-(100))
 1444 0b18 9F4F      		sbci r25,hi8(-(100))
 1445 0b1a 00C0      		rjmp .L162
 1446               	.L130:
 1447 0b1c 2091 0000 		lds r18,SETVAL_TEMP_PYROLYS_FULL
 1448 0b20 3091 0000 		lds r19,(SETVAL_TEMP_PYROLYS_FULL)+1
 1449 0b24 8091 0000 		lds r24,SETVAL_TEMP_PYROLYS_START
 1450 0b28 9091 0000 		lds r25,(SETVAL_TEMP_PYROLYS_START)+1
 1451 0b2c 8C59      		subi r24,lo8(-(100))
 1452 0b2e 9F4F      		sbci r25,hi8(-(100))
 1453 0b30 2817      		cp r18,r24
 1454 0b32 3907      		cpc r19,r25
 1455 0b34 00F4      		brsh .L140
 1456 0b36 8091 0000 		lds r24,SETVAL_TEMP_PYROLYS_START
 1457 0b3a 9091 0000 		lds r25,(SETVAL_TEMP_PYROLYS_START)+1
 1458 0b3e 8C59      		subi r24,lo8(-(100))
 1459 0b40 9F4F      		sbci r25,hi8(-(100))
 1460 0b42 9093 0000 		sts (SETVAL_TEMP_PYROLYS_FULL)+1,r25
 1461 0b46 8093 0000 		sts SETVAL_TEMP_PYROLYS_FULL,r24
 1462               	.L140:
 1463 0b4a 8091 0000 		lds r24,SETVAL_TEMP_PYROLYS_FULL
 1464 0b4e 9091 0000 		lds r25,(SETVAL_TEMP_PYROLYS_FULL)+1
 1465 0b52 8E5D      		subi r24,lo8(990)
 1466 0b54 9340      		sbci r25,hi8(990)
 1467 0b56 01F4      		brne .+2
 1468 0b58 00C0      		rjmp .L124
 1469 0b5a 8091 0000 		lds r24,SETVAL_TEMP_PYROLYS_FULL
 1470 0b5e 9091 0000 		lds r25,(SETVAL_TEMP_PYROLYS_FULL)+1
 1471 0b62 0A96      		adiw r24,10
 1472               	.L162:
 1473 0b64 9093 0000 		sts (SETVAL_TEMP_PYROLYS_FULL)+1,r25
 1474 0b68 8093 0000 		sts SETVAL_TEMP_PYROLYS_FULL,r24
 1475 0b6c 00C0      		rjmp .L124
 1476               	.L131:
 1477 0b6e 8091 0000 		lds r24,SETVAL_DELTA_TEMP_SHUTDOWN
 1478 0b72 8431      		cpi r24,lo8(20)
 1479 0b74 01F0      		breq .L124
 1480 0b76 8091 0000 		lds r24,SETVAL_DELTA_TEMP_SHUTDOWN
 1481 0b7a 8F5F      		subi r24,lo8(-(1))
 1482 0b7c 8093 0000 		sts SETVAL_DELTA_TEMP_SHUTDOWN,r24
 1483 0b80 00C0      		rjmp .L124
 1484               	.L166:
 1485 0b82 8091 0000 		lds r24,SETVAL_PWM_FAN1_START
 1486 0b86 8431      		cpi r24,lo8(20)
 1487 0b88 01F0      		breq .L124
 1488 0b8a 8091 0000 		lds r24,SETVAL_PWM_FAN1_START
 1489 0b8e 8F5F      		subi r24,lo8(-(1))
 1490 0b90 8093 0000 		sts SETVAL_PWM_FAN1_START,r24
 1491 0b94 00C0      		rjmp .L124
 1492               	.L133:
 1493 0b96 8091 0000 		lds r24,SETVAL_PWM_FAN2_START
 1494 0b9a 8431      		cpi r24,lo8(20)
 1495 0b9c 01F0      		breq .L124
 1496 0b9e 8091 0000 		lds r24,SETVAL_PWM_FAN2_START
 1497 0ba2 8F5F      		subi r24,lo8(-(1))
 1498 0ba4 8093 0000 		sts SETVAL_PWM_FAN2_START,r24
 1499 0ba8 00C0      		rjmp .L124
 1500               	.L134:
 1501 0baa 8091 0000 		lds r24,SETVAL_PWM_FAN3_START
 1502 0bae 8431      		cpi r24,lo8(20)
 1503 0bb0 01F0      		breq .L124
 1504 0bb2 8091 0000 		lds r24,SETVAL_PWM_FAN3_START
 1505 0bb6 8F5F      		subi r24,lo8(-(1))
 1506 0bb8 8093 0000 		sts SETVAL_PWM_FAN3_START,r24
 1507 0bbc 00C0      		rjmp .L124
 1508               	.L135:
 1509 0bbe 8091 0000 		lds r24,SETVAL_M1_START_PERIOD
 1510 0bc2 8C33      		cpi r24,lo8(60)
 1511 0bc4 01F0      		breq .L124
 1512 0bc6 8091 0000 		lds r24,SETVAL_M1_START_PERIOD
 1513 0bca 8F5F      		subi r24,lo8(-(1))
 1514 0bcc 8093 0000 		sts SETVAL_M1_START_PERIOD,r24
 1515 0bd0 00C0      		rjmp .L124
 1516               	.L167:
 1517 0bd2 8091 0000 		lds r24,SETVAL_M1_STOP_PERIOD
 1518 0bd6 8C33      		cpi r24,lo8(60)
 1519 0bd8 01F0      		breq .L124
 1520 0bda 8091 0000 		lds r24,SETVAL_M1_STOP_PERIOD
 1521 0bde 8F5F      		subi r24,lo8(-(1))
 1522 0be0 8093 0000 		sts SETVAL_M1_STOP_PERIOD,r24
 1523               	.L124:
 1524 0be4 0E94 0000 		call OutMenuToLCD
 1525               	.L123:
 1526 0be8 8091 0000 		lds r24,BUTTON
 1527 0bec 8D7F      		andi r24,lo8(-3)
 1528 0bee 8093 0000 		sts BUTTON,r24
 1529               	.L121:
 1530 0bf2 8091 0000 		lds r24,BUTTON
 1531 0bf6 82FF      		sbrs r24,2
 1532 0bf8 00C0      		rjmp .L161
 1533 0bfa 8091 0000 		lds r24,STATUS
 1534 0bfe 83FD      		sbrc r24,3
 1535 0c00 00C0      		rjmp .L142
 1536 0c02 1092 0000 		sts LED_LIGTH,__zero_reg__
 1537 0c06 969A      		sbi 50-32,6
 1538 0c08 00C0      		rjmp .L143
 1539               	.L142:
 1540 0c0a 8091 0000 		lds r24,MENU
 1541 0c0e 8530      		cpi r24,lo8(5)
 1542 0c10 01F4      		brne .+2
 1543 0c12 00C0      		rjmp .L150
 1544 0c14 8630      		cpi r24,lo8(6)
 1545 0c16 00F4      		brsh .L157
 1546 0c18 8230      		cpi r24,lo8(2)
 1547 0c1a 01F0      		breq .L147
 1548 0c1c 8330      		cpi r24,lo8(3)
 1549 0c1e 00F4      		brsh .L158
 1550 0c20 8823      		tst r24
 1551 0c22 01F0      		breq .L145
 1552 0c24 8130      		cpi r24,lo8(1)
 1553 0c26 01F0      		breq .+2
 1554 0c28 00C0      		rjmp .L144
 1555 0c2a 00C0      		rjmp .L168
 1556               	.L158:
 1557 0c2c 8330      		cpi r24,lo8(3)
 1558 0c2e 01F0      		breq .L148
 1559 0c30 8430      		cpi r24,lo8(4)
 1560 0c32 01F0      		breq .+2
 1561 0c34 00C0      		rjmp .L144
 1562 0c36 00C0      		rjmp .L169
 1563               	.L157:
 1564 0c38 8830      		cpi r24,lo8(8)
 1565 0c3a 01F4      		brne .+2
 1566 0c3c 00C0      		rjmp .L153
 1567 0c3e 8930      		cpi r24,lo8(9)
 1568 0c40 00F4      		brsh .L159
 1569 0c42 8630      		cpi r24,lo8(6)
 1570 0c44 01F4      		brne .+2
 1571 0c46 00C0      		rjmp .L151
 1572 0c48 8730      		cpi r24,lo8(7)
 1573 0c4a 01F0      		breq .+2
 1574 0c4c 00C0      		rjmp .L144
 1575 0c4e 00C0      		rjmp .L170
 1576               	.L159:
 1577 0c50 8A30      		cpi r24,lo8(10)
 1578 0c52 01F4      		brne .+2
 1579 0c54 00C0      		rjmp .L155
 1580 0c56 8A30      		cpi r24,lo8(10)
 1581 0c58 00F4      		brsh .+2
 1582 0c5a 00C0      		rjmp .L154
 1583 0c5c 8B30      		cpi r24,lo8(11)
 1584 0c5e 01F0      		breq .+2
 1585 0c60 00C0      		rjmp .L144
 1586 0c62 00C0      		rjmp .L171
 1587               	.L145:
 1588 0c64 8091 0000 		lds r24,SETVAL_TEMP_ROOM
 1589 0c68 8A30      		cpi r24,lo8(10)
 1590 0c6a 01F4      		brne .+2
 1591 0c6c 00C0      		rjmp .L144
 1592 0c6e 8091 0000 		lds r24,SETVAL_TEMP_ROOM
 1593 0c72 8150      		subi r24,lo8(-(-1))
 1594 0c74 8093 0000 		sts SETVAL_TEMP_ROOM,r24
 1595 0c78 00C0      		rjmp .L144
 1596               	.L168:
 1597 0c7a 8091 0000 		lds r24,SETVAL_DELTA_TEMP_ROOM
 1598 0c7e 8130      		cpi r24,lo8(1)
 1599 0c80 01F4      		brne .+2
 1600 0c82 00C0      		rjmp .L144
 1601 0c84 8091 0000 		lds r24,SETVAL_DELTA_TEMP_ROOM
 1602 0c88 8150      		subi r24,lo8(-(-1))
 1603 0c8a 8093 0000 		sts SETVAL_DELTA_TEMP_ROOM,r24
 1604 0c8e 00C0      		rjmp .L144
 1605               	.L147:
 1606 0c90 8091 0000 		lds r24,SETVAL_TEMP_TOP_OVEN
 1607 0c94 8733      		cpi r24,lo8(55)
 1608 0c96 01F4      		brne .+2
 1609 0c98 00C0      		rjmp .L144
 1610 0c9a 8091 0000 		lds r24,SETVAL_TEMP_TOP_OVEN
 1611 0c9e 8150      		subi r24,lo8(-(-1))
 1612 0ca0 8093 0000 		sts SETVAL_TEMP_TOP_OVEN,r24
 1613 0ca4 00C0      		rjmp .L144
 1614               	.L148:
 1615 0ca6 8091 0000 		lds r24,SETVAL_DELTA_TEMP_TOP_OVEN
 1616 0caa 8130      		cpi r24,lo8(1)
 1617 0cac 01F4      		brne .+2
 1618 0cae 00C0      		rjmp .L144
 1619 0cb0 8091 0000 		lds r24,SETVAL_DELTA_TEMP_TOP_OVEN
 1620 0cb4 8150      		subi r24,lo8(-(-1))
 1621 0cb6 8093 0000 		sts SETVAL_DELTA_TEMP_TOP_OVEN,r24
 1622 0cba 00C0      		rjmp .L144
 1623               	.L169:
 1624 0cbc 8091 0000 		lds r24,SETVAL_TEMP_PYROLYS_START
 1625 0cc0 9091 0000 		lds r25,(SETVAL_TEMP_PYROLYS_START)+1
 1626 0cc4 883C      		cpi r24,200
 1627 0cc6 9105      		cpc r25,__zero_reg__
 1628 0cc8 01F4      		brne .+2
 1629 0cca 00C0      		rjmp .L144
 1630 0ccc 8091 0000 		lds r24,SETVAL_TEMP_PYROLYS_START
 1631 0cd0 9091 0000 		lds r25,(SETVAL_TEMP_PYROLYS_START)+1
 1632 0cd4 0A97      		sbiw r24,10
 1633 0cd6 9093 0000 		sts (SETVAL_TEMP_PYROLYS_START)+1,r25
 1634 0cda 8093 0000 		sts SETVAL_TEMP_PYROLYS_START,r24
 1635 0cde 00C0      		rjmp .L144
 1636               	.L150:
 1637 0ce0 2091 0000 		lds r18,SETVAL_TEMP_PYROLYS_FULL
 1638 0ce4 3091 0000 		lds r19,(SETVAL_TEMP_PYROLYS_FULL)+1
 1639 0ce8 8091 0000 		lds r24,SETVAL_TEMP_PYROLYS_START
 1640 0cec 9091 0000 		lds r25,(SETVAL_TEMP_PYROLYS_START)+1
 1641 0cf0 8C59      		subi r24,lo8(-(100))
 1642 0cf2 9F4F      		sbci r25,hi8(-(100))
 1643 0cf4 8217      		cp r24,r18
 1644 0cf6 9307      		cpc r25,r19
 1645 0cf8 00F0      		brlo .L160
 1646 0cfa 8091 0000 		lds r24,SETVAL_TEMP_PYROLYS_START
 1647 0cfe 9091 0000 		lds r25,(SETVAL_TEMP_PYROLYS_START)+1
 1648 0d02 8C59      		subi r24,lo8(-(100))
 1649 0d04 9F4F      		sbci r25,hi8(-(100))
 1650 0d06 00C0      		rjmp .L163
 1651               	.L160:
 1652 0d08 8091 0000 		lds r24,SETVAL_TEMP_PYROLYS_FULL
 1653 0d0c 9091 0000 		lds r25,(SETVAL_TEMP_PYROLYS_FULL)+1
 1654 0d10 0A97      		sbiw r24,10
 1655               	.L163:
 1656 0d12 9093 0000 		sts (SETVAL_TEMP_PYROLYS_FULL)+1,r25
 1657 0d16 8093 0000 		sts SETVAL_TEMP_PYROLYS_FULL,r24
 1658 0d1a 00C0      		rjmp .L144
 1659               	.L151:
 1660 0d1c 8091 0000 		lds r24,SETVAL_DELTA_TEMP_SHUTDOWN
 1661 0d20 8530      		cpi r24,lo8(5)
 1662 0d22 01F0      		breq .L144
 1663 0d24 8091 0000 		lds r24,SETVAL_DELTA_TEMP_SHUTDOWN
 1664 0d28 8150      		subi r24,lo8(-(-1))
 1665 0d2a 8093 0000 		sts SETVAL_DELTA_TEMP_SHUTDOWN,r24
 1666 0d2e 00C0      		rjmp .L144
 1667               	.L170:
 1668 0d30 8091 0000 		lds r24,SETVAL_PWM_FAN1_START
 1669 0d34 8823      		tst r24
 1670 0d36 01F0      		breq .L144
 1671 0d38 8091 0000 		lds r24,SETVAL_PWM_FAN1_START
 1672 0d3c 8150      		subi r24,lo8(-(-1))
 1673 0d3e 8093 0000 		sts SETVAL_PWM_FAN1_START,r24
 1674 0d42 00C0      		rjmp .L144
 1675               	.L153:
 1676 0d44 8091 0000 		lds r24,SETVAL_PWM_FAN2_START
 1677 0d48 8823      		tst r24
 1678 0d4a 01F0      		breq .L144
 1679 0d4c 8091 0000 		lds r24,SETVAL_PWM_FAN2_START
 1680 0d50 8150      		subi r24,lo8(-(-1))
 1681 0d52 8093 0000 		sts SETVAL_PWM_FAN2_START,r24
 1682 0d56 00C0      		rjmp .L144
 1683               	.L154:
 1684 0d58 8091 0000 		lds r24,SETVAL_PWM_FAN3_START
 1685 0d5c 8823      		tst r24
 1686 0d5e 01F0      		breq .L144
 1687 0d60 8091 0000 		lds r24,SETVAL_PWM_FAN3_START
 1688 0d64 8150      		subi r24,lo8(-(-1))
 1689 0d66 8093 0000 		sts SETVAL_PWM_FAN3_START,r24
 1690 0d6a 00C0      		rjmp .L144
 1691               	.L155:
 1692 0d6c 8091 0000 		lds r24,SETVAL_M1_START_PERIOD
 1693 0d70 8823      		tst r24
 1694 0d72 01F0      		breq .L144
 1695 0d74 8091 0000 		lds r24,SETVAL_M1_START_PERIOD
 1696 0d78 8150      		subi r24,lo8(-(-1))
 1697 0d7a 8093 0000 		sts SETVAL_M1_START_PERIOD,r24
 1698 0d7e 00C0      		rjmp .L144
 1699               	.L171:
 1700 0d80 8091 0000 		lds r24,SETVAL_M1_STOP_PERIOD
 1701 0d84 8823      		tst r24
 1702 0d86 01F0      		breq .L144
 1703 0d88 8091 0000 		lds r24,SETVAL_M1_STOP_PERIOD
 1704 0d8c 8150      		subi r24,lo8(-(-1))
 1705 0d8e 8093 0000 		sts SETVAL_M1_STOP_PERIOD,r24
 1706               	.L144:
 1707 0d92 0E94 0000 		call OutMenuToLCD
 1708               	.L143:
 1709 0d96 8091 0000 		lds r24,BUTTON
 1710 0d9a 8B7F      		andi r24,lo8(-5)
 1711 0d9c 8093 0000 		sts BUTTON,r24
 1712               	.L161:
 1713 0da0 0895      		ret
 1715               	.global	CalculatePercent
 1717               	CalculatePercent:
 1718               	/* prologue: function */
 1719               	/* frame size = 0 */
 1720 0da2 90E0      		ldi r25,lo8(0)
 1721 0da4 AA27      		clr r26
 1722 0da6 97FD      		sbrc r25,7
 1723 0da8 A095      		com r26
 1724 0daa BA2F      		mov r27,r26
 1725 0dac BC01      		movw r22,r24
 1726 0dae CD01      		movw r24,r26
 1727 0db0 0E94 0000 		call __floatsisf
 1728 0db4 20E0      		ldi r18,lo8(0x42c80000)
 1729 0db6 30E0      		ldi r19,hi8(0x42c80000)
 1730 0db8 48EC      		ldi r20,hlo8(0x42c80000)
 1731 0dba 52E4      		ldi r21,hhi8(0x42c80000)
 1732 0dbc 0E94 0000 		call __mulsf3
 1733 0dc0 20E0      		ldi r18,lo8(0x437f0000)
 1734 0dc2 30E0      		ldi r19,hi8(0x437f0000)
 1735 0dc4 4FE7      		ldi r20,hlo8(0x437f0000)
 1736 0dc6 53E4      		ldi r21,hhi8(0x437f0000)
 1737 0dc8 0E94 0000 		call __divsf3
 1738 0dcc 0E94 0000 		call __fixunssfsi
 1739 0dd0 DC01      		movw r26,r24
 1740 0dd2 CB01      		movw r24,r22
 1741               	/* epilogue start */
 1742 0dd4 0895      		ret
 1744               	.global	OutTemperatureTC
 1746               	OutTemperatureTC:
 1747 0dd6 0F93      		push r16
 1748 0dd8 1F93      		push r17
 1749 0dda CF93      		push r28
 1750 0ddc DF93      		push r29
 1751               	/* prologue: function */
 1752               	/* frame size = 0 */
 1753 0dde EB01      		movw r28,r22
 1754 0de0 8130      		cpi r24,lo8(1)
 1755 0de2 01F0      		breq .L177
 1756 0de4 8130      		cpi r24,lo8(1)
 1757 0de6 00F0      		brlo .L176
 1758 0de8 8230      		cpi r24,lo8(2)
 1759 0dea 01F0      		breq .L178
 1760 0dec 8330      		cpi r24,lo8(3)
 1761 0dee 01F4      		brne .L186
 1762 0df0 00C0      		rjmp .L189
 1763               	.L176:
 1764 0df2 80E0      		ldi r24,lo8(LabelUNC)
 1765 0df4 90E0      		ldi r25,hi8(LabelUNC)
 1766 0df6 00C0      		rjmp .L188
 1767               	.L177:
 1768 0df8 CB01      		movw r24,r22
 1769 0dfa 64E6      		ldi r22,lo8(100)
 1770 0dfc 70E0      		ldi r23,hi8(100)
 1771 0dfe 0E94 0000 		call __udivmodhi4
 1772 0e02 6623      		tst r22
 1773 0e04 01F4      		brne .L181
 1774 0e06 20E0      		ldi r18,lo8(0)
 1775 0e08 00C0      		rjmp .L182
 1776               	.L181:
 1777 0e0a 862F      		mov r24,r22
 1778 0e0c 805D      		subi r24,lo8(-(48))
 1779 0e0e 0E94 0000 		call LCD_OutChar6x8
 1780 0e12 21E0      		ldi r18,lo8(1)
 1781               	.L182:
 1782 0e14 CE01      		movw r24,r28
 1783 0e16 64E6      		ldi r22,lo8(100)
 1784 0e18 70E0      		ldi r23,hi8(100)
 1785 0e1a 0E94 0000 		call __udivmodhi4
 1786 0e1e 182F      		mov r17,r24
 1787 0e20 092F      		mov r16,r25
 1788 0e22 6AE0      		ldi r22,lo8(10)
 1789 0e24 70E0      		ldi r23,hi8(10)
 1790 0e26 0E94 0000 		call __udivmodhi4
 1791 0e2a 6623      		tst r22
 1792 0e2c 01F0      		breq .L183
 1793 0e2e 862F      		mov r24,r22
 1794 0e30 805D      		subi r24,lo8(-(48))
 1795 0e32 00C0      		rjmp .L187
 1796               	.L183:
 1797 0e34 2130      		cpi r18,lo8(1)
 1798 0e36 01F4      		brne .L184
 1799 0e38 80E3      		ldi r24,lo8(48)
 1800               	.L187:
 1801 0e3a 0E94 0000 		call LCD_OutChar6x8
 1802               	.L184:
 1803 0e3e 812F      		mov r24,r17
 1804 0e40 902F      		mov r25,r16
 1805 0e42 6AE0      		ldi r22,lo8(10)
 1806 0e44 70E0      		ldi r23,hi8(10)
 1807 0e46 0E94 0000 		call __udivmodhi4
 1808 0e4a 805D      		subi r24,lo8(-(48))
 1809 0e4c 0E94 0000 		call LCD_OutChar6x8
 1810 0e50 80E0      		ldi r24,lo8(LabelCC)
 1811 0e52 90E0      		ldi r25,hi8(LabelCC)
 1812 0e54 00C0      		rjmp .L188
 1813               	.L178:
 1814 0e56 80E0      		ldi r24,lo8(LabelBRK)
 1815 0e58 90E0      		ldi r25,hi8(LabelBRK)
 1816 0e5a 00C0      		rjmp .L188
 1817               	.L189:
 1818 0e5c 80E0      		ldi r24,lo8(LabelOVR)
 1819 0e5e 90E0      		ldi r25,hi8(LabelOVR)
 1820 0e60 00C0      		rjmp .L188
 1821               	.L186:
 1822 0e62 80E0      		ldi r24,lo8(LabelERR)
 1823 0e64 90E0      		ldi r25,hi8(LabelERR)
 1824               	.L188:
 1825 0e66 0E94 0000 		call LCD_OutString6x8
 1826               	/* epilogue start */
 1827 0e6a DF91      		pop r29
 1828 0e6c CF91      		pop r28
 1829 0e6e 1F91      		pop r17
 1830 0e70 0F91      		pop r16
 1831 0e72 0895      		ret
 1833               	.global	OutTemperatureDS
 1835               	OutTemperatureDS:
 1836 0e74 CF92      		push r12
 1837 0e76 DF92      		push r13
 1838 0e78 EF92      		push r14
 1839 0e7a FF92      		push r15
 1840 0e7c 1F93      		push r17
 1841               	/* prologue: function */
 1842               	/* frame size = 0 */
 1843 0e7e 2091 0000 		lds r18,DS_Temp
 1844 0e82 3091 0000 		lds r19,(DS_Temp)+1
 1845 0e86 4091 0000 		lds r20,(DS_Temp)+2
 1846 0e8a 5091 0000 		lds r21,(DS_Temp)+3
 1847 0e8e C090 0000 		lds r12,DS_Temp
 1848 0e92 D090 0000 		lds r13,(DS_Temp)+1
 1849 0e96 E090 0000 		lds r14,(DS_Temp)+2
 1850 0e9a F090 0000 		lds r15,(DS_Temp)+3
 1851 0e9e 8091 0000 		lds r24,STATUS_DS
 1852 0ea2 8130      		cpi r24,lo8(1)
 1853 0ea4 01F0      		breq .+2
 1854 0ea6 00C0      		rjmp .L191
 1855 0ea8 CA01      		movw r24,r20
 1856 0eaa B901      		movw r22,r18
 1857 0eac 0E94 0000 		call __fixunssfsi
 1858 0eb0 DC01      		movw r26,r24
 1859 0eb2 CB01      		movw r24,r22
 1860 0eb4 182F      		mov r17,r24
 1861 0eb6 64E6      		ldi r22,lo8(100)
 1862 0eb8 0E94 0000 		call __udivmodqi4
 1863 0ebc 8823      		tst r24
 1864 0ebe 01F4      		brne .L192
 1865 0ec0 20E0      		ldi r18,lo8(0)
 1866 0ec2 00C0      		rjmp .L193
 1867               	.L192:
 1868 0ec4 805D      		subi r24,lo8(-(48))
 1869 0ec6 0E94 0000 		call LCD_OutChar6x8
 1870 0eca 21E0      		ldi r18,lo8(1)
 1871               	.L193:
 1872 0ecc 812F      		mov r24,r17
 1873 0ece 64E6      		ldi r22,lo8(100)
 1874 0ed0 0E94 0000 		call __udivmodqi4
 1875 0ed4 192F      		mov r17,r25
 1876 0ed6 892F      		mov r24,r25
 1877 0ed8 6AE0      		ldi r22,lo8(10)
 1878 0eda 0E94 0000 		call __udivmodqi4
 1879 0ede 8823      		tst r24
 1880 0ee0 01F0      		breq .L194
 1881 0ee2 805D      		subi r24,lo8(-(48))
 1882 0ee4 00C0      		rjmp .L198
 1883               	.L194:
 1884 0ee6 2130      		cpi r18,lo8(1)
 1885 0ee8 01F4      		brne .L195
 1886 0eea 80E3      		ldi r24,lo8(48)
 1887               	.L198:
 1888 0eec 0E94 0000 		call LCD_OutChar6x8
 1889               	.L195:
 1890 0ef0 812F      		mov r24,r17
 1891 0ef2 6AE0      		ldi r22,lo8(10)
 1892 0ef4 0E94 0000 		call __udivmodqi4
 1893 0ef8 892F      		mov r24,r25
 1894 0efa 805D      		subi r24,lo8(-(48))
 1895 0efc 0E94 0000 		call LCD_OutChar6x8
 1896 0f00 8EE2      		ldi r24,lo8(46)
 1897 0f02 0E94 0000 		call LCD_OutChar6x8
 1898 0f06 6091 0000 		lds r22,DS_Temp
 1899 0f0a 7091 0000 		lds r23,(DS_Temp)+1
 1900 0f0e 8091 0000 		lds r24,(DS_Temp)+2
 1901 0f12 9091 0000 		lds r25,(DS_Temp)+3
 1902 0f16 0E94 0000 		call __fixunssfsi
 1903 0f1a 70E0      		ldi r23,lo8(0)
 1904 0f1c 8827      		clr r24
 1905 0f1e 77FD      		sbrc r23,7
 1906 0f20 8095      		com r24
 1907 0f22 982F      		mov r25,r24
 1908 0f24 0E94 0000 		call __floatsisf
 1909 0f28 9B01      		movw r18,r22
 1910 0f2a AC01      		movw r20,r24
 1911 0f2c C701      		movw r24,r14
 1912 0f2e B601      		movw r22,r12
 1913 0f30 0E94 0000 		call __subsf3
 1914 0f34 20E0      		ldi r18,lo8(0x41200000)
 1915 0f36 30E0      		ldi r19,hi8(0x41200000)
 1916 0f38 40E2      		ldi r20,hlo8(0x41200000)
 1917 0f3a 51E4      		ldi r21,hhi8(0x41200000)
 1918 0f3c 0E94 0000 		call __mulsf3
 1919 0f40 0E94 0000 		call __fixunssfsi
 1920 0f44 DC01      		movw r26,r24
 1921 0f46 CB01      		movw r24,r22
 1922 0f48 805D      		subi r24,lo8(-(48))
 1923 0f4a 0E94 0000 		call LCD_OutChar6x8
 1924 0f4e 80E0      		ldi r24,lo8(LabelCC)
 1925 0f50 90E0      		ldi r25,hi8(LabelCC)
 1926 0f52 00C0      		rjmp .L199
 1927               	.L191:
 1928 0f54 80E0      		ldi r24,lo8(LabelBRK)
 1929 0f56 90E0      		ldi r25,hi8(LabelBRK)
 1930               	.L199:
 1931 0f58 0E94 0000 		call LCD_OutString6x8
 1932               	/* epilogue start */
 1933 0f5c 1F91      		pop r17
 1934 0f5e FF90      		pop r15
 1935 0f60 EF90      		pop r14
 1936 0f62 DF90      		pop r13
 1937 0f64 CF90      		pop r12
 1938 0f66 0895      		ret
 1940               	.global	OutUI8_6x8
 1942               	OutUI8_6x8:
 1943 0f68 1F93      		push r17
 1944               	/* prologue: function */
 1945               	/* frame size = 0 */
 1946 0f6a 182F      		mov r17,r24
 1947 0f6c 64E6      		ldi r22,lo8(100)
 1948 0f6e 0E94 0000 		call __udivmodqi4
 1949 0f72 8823      		tst r24
 1950 0f74 01F4      		brne .L201
 1951 0f76 20E0      		ldi r18,lo8(0)
 1952 0f78 00C0      		rjmp .L202
 1953               	.L201:
 1954 0f7a 805D      		subi r24,lo8(-(48))
 1955 0f7c 0E94 0000 		call LCD_OutChar6x8
 1956 0f80 21E0      		ldi r18,lo8(1)
 1957               	.L202:
 1958 0f82 812F      		mov r24,r17
 1959 0f84 64E6      		ldi r22,lo8(100)
 1960 0f86 0E94 0000 		call __udivmodqi4
 1961 0f8a 192F      		mov r17,r25
 1962 0f8c 892F      		mov r24,r25
 1963 0f8e 6AE0      		ldi r22,lo8(10)
 1964 0f90 0E94 0000 		call __udivmodqi4
 1965 0f94 8823      		tst r24
 1966 0f96 01F0      		breq .L203
 1967 0f98 805D      		subi r24,lo8(-(48))
 1968 0f9a 00C0      		rjmp .L206
 1969               	.L203:
 1970 0f9c 2130      		cpi r18,lo8(1)
 1971 0f9e 01F4      		brne .L204
 1972 0fa0 80E3      		ldi r24,lo8(48)
 1973               	.L206:
 1974 0fa2 0E94 0000 		call LCD_OutChar6x8
 1975               	.L204:
 1976 0fa6 812F      		mov r24,r17
 1977 0fa8 6AE0      		ldi r22,lo8(10)
 1978 0faa 0E94 0000 		call __udivmodqi4
 1979 0fae 892F      		mov r24,r25
 1980 0fb0 805D      		subi r24,lo8(-(48))
 1981 0fb2 0E94 0000 		call LCD_OutChar6x8
 1982               	/* epilogue start */
 1983 0fb6 1F91      		pop r17
 1984 0fb8 0895      		ret
 1986               	.global	OutInfoToLCD
 1988               	OutInfoToLCD:
 1989               	/* prologue: function */
 1990               	/* frame size = 0 */
 1991 0fba 80E0      		ldi r24,lo8(0)
 1992 0fbc 0E94 0000 		call LCD_clear
 1993 0fc0 80E0      		ldi r24,lo8(0)
 1994 0fc2 60E0      		ldi r22,lo8(0)
 1995 0fc4 0E94 0000 		call LCD_gotoXY
 1996 0fc8 80E0      		ldi r24,lo8(LabelT1)
 1997 0fca 90E0      		ldi r25,hi8(LabelT1)
 1998 0fcc 0E94 0000 		call LCD_OutString6x8
 1999 0fd0 0E94 0000 		call OutTemperatureDS
 2000 0fd4 81E0      		ldi r24,lo8(1)
 2001 0fd6 60E0      		ldi r22,lo8(0)
 2002 0fd8 0E94 0000 		call LCD_gotoXY
 2003 0fdc 80E0      		ldi r24,lo8(LabelT2)
 2004 0fde 90E0      		ldi r25,hi8(LabelT2)
 2005 0fe0 0E94 0000 		call LCD_OutString6x8
 2006 0fe4 8091 0000 		lds r24,STATUS_TC1
 2007 0fe8 6091 0000 		lds r22,VALUE_TC1
 2008 0fec 7091 0000 		lds r23,(VALUE_TC1)+1
 2009 0ff0 0E94 0000 		call OutTemperatureTC
 2010 0ff4 82E0      		ldi r24,lo8(2)
 2011 0ff6 60E0      		ldi r22,lo8(0)
 2012 0ff8 0E94 0000 		call LCD_gotoXY
 2013 0ffc 80E0      		ldi r24,lo8(LabelT3)
 2014 0ffe 90E0      		ldi r25,hi8(LabelT3)
 2015 1000 0E94 0000 		call LCD_OutString6x8
 2016 1004 8091 0000 		lds r24,STATUS_TC2
 2017 1008 6091 0000 		lds r22,VALUE_TC2
 2018 100c 7091 0000 		lds r23,(VALUE_TC2)+1
 2019 1010 0E94 0000 		call OutTemperatureTC
 2020 1014 83E0      		ldi r24,lo8(3)
 2021 1016 60E0      		ldi r22,lo8(0)
 2022 1018 0E94 0000 		call LCD_gotoXY
 2023 101c 80E0      		ldi r24,lo8(LabelM1)
 2024 101e 90E0      		ldi r25,hi8(LabelM1)
 2025 1020 0E94 0000 		call LCD_OutString6x8
 2026 1024 8091 0000 		lds r24,ui8_PWM1_LEVEL
 2027 1028 0E94 0000 		call CalculatePercent
 2028 102c 0E94 0000 		call OutUI8_6x8
 2029 1030 85E2      		ldi r24,lo8(37)
 2030 1032 0E94 0000 		call LCD_OutChar6x8
 2031 1036 84E0      		ldi r24,lo8(4)
 2032 1038 60E0      		ldi r22,lo8(0)
 2033 103a 0E94 0000 		call LCD_gotoXY
 2034 103e 80E0      		ldi r24,lo8(LabelM2)
 2035 1040 90E0      		ldi r25,hi8(LabelM2)
 2036 1042 0E94 0000 		call LCD_OutString6x8
 2037 1046 8091 0000 		lds r24,ui8_PWM2_LEVEL
 2038 104a 0E94 0000 		call CalculatePercent
 2039 104e 0E94 0000 		call OutUI8_6x8
 2040 1052 85E2      		ldi r24,lo8(37)
 2041 1054 0E94 0000 		call LCD_OutChar6x8
 2042 1058 85E0      		ldi r24,lo8(5)
 2043 105a 60E0      		ldi r22,lo8(0)
 2044 105c 0E94 0000 		call LCD_gotoXY
 2045 1060 80E0      		ldi r24,lo8(LabelM3)
 2046 1062 90E0      		ldi r25,hi8(LabelM3)
 2047 1064 0E94 0000 		call LCD_OutString6x8
 2048 1068 8091 0000 		lds r24,ui8_PWM3_LEVEL
 2049 106c 0E94 0000 		call CalculatePercent
 2050 1070 0E94 0000 		call OutUI8_6x8
 2051 1074 85E2      		ldi r24,lo8(37)
 2052 1076 0E94 0000 		call LCD_OutChar6x8
 2053               	/* epilogue start */
 2054 107a 0895      		ret
 2056               	.global	CheckButton
 2058               	CheckButton:
 2059               	/* prologue: function */
 2060               	/* frame size = 0 */
 2061 107c 8091 0000 		lds r24,STATUS
 2062 1080 82FD      		sbrc r24,2
 2063 1082 00C0      		rjmp .L214
 2064 1084 9899      		sbic 51-32,0
 2065 1086 00C0      		rjmp .L211
 2066 1088 8091 0000 		lds r24,BUTTON
 2067 108c 8160      		ori r24,lo8(1)
 2068 108e 8093 0000 		sts BUTTON,r24
 2069 1092 8091 0000 		lds r24,STATUS
 2070 1096 8260      		ori r24,lo8(2)
 2071 1098 8093 0000 		sts STATUS,r24
 2072               	.L211:
 2073 109c 9999      		sbic 51-32,1
 2074 109e 00C0      		rjmp .L212
 2075 10a0 8091 0000 		lds r24,BUTTON
 2076 10a4 8260      		ori r24,lo8(2)
 2077 10a6 8093 0000 		sts BUTTON,r24
 2078 10aa 8091 0000 		lds r24,STATUS
 2079 10ae 8260      		ori r24,lo8(2)
 2080 10b0 8093 0000 		sts STATUS,r24
 2081               	.L212:
 2082 10b4 9A99      		sbic 51-32,2
 2083 10b6 00C0      		rjmp .L213
 2084 10b8 8091 0000 		lds r24,BUTTON
 2085 10bc 8460      		ori r24,lo8(4)
 2086 10be 8093 0000 		sts BUTTON,r24
 2087 10c2 8091 0000 		lds r24,STATUS
 2088 10c6 8260      		ori r24,lo8(2)
 2089 10c8 8093 0000 		sts STATUS,r24
 2090               	.L213:
 2091 10cc 86E0      		ldi r24,lo8(6)
 2092 10ce 8093 0000 		sts CountMUL_BTN_WAIT,r24
 2093 10d2 14BC      		out 68-32,__zero_reg__
 2094 10d4 85B5      		in r24,69-32
 2095 10d6 8760      		ori r24,lo8(7)
 2096 10d8 85BD      		out 69-32,r24
 2097 10da 8091 0000 		lds r24,STATUS
 2098 10de 8460      		ori r24,lo8(4)
 2099 10e0 8093 0000 		sts STATUS,r24
 2100               	.L214:
 2101 10e4 0895      		ret
 2103               	.global	DS18B20_init
 2105               	DS18B20_init:
 2106               	/* prologue: function */
 2107               	/* frame size = 0 */
 2108 10e6 DE98      		cbi 59-32,6
 2109 10e8 D698      		cbi 58-32,6
 2110 10ea CE9B      		sbis 57-32,6
 2111 10ec 00C0      		rjmp .L216
 2112 10ee D69A      		sbi 58-32,6
 2113 10f0 88EE      		ldi r24,lo8(1000)
 2114 10f2 93E0      		ldi r25,hi8(1000)
 2115               	/* #APP */
 2116               	 ;  105 "c:/winavr/lib/gcc/../../avr/include/util/delay_basic.h" 1
 2117 10f4 0197      		1: sbiw r24,1
 2118 10f6 01F4      		brne 1b
 2119               	 ;  0 "" 2
 2120               	/* #NOAPP */
 2121 10f8 D698      		cbi 58-32,6
 2122 10fa 80EA      		ldi r24,lo8(-96)
 2123               	/* #APP */
 2124               	 ;  83 "c:/winavr/lib/gcc/../../avr/include/util/delay_basic.h" 1
 2125 10fc 8A95      		1: dec r24
 2126 10fe 01F4      		brne 1b
 2127               	 ;  0 "" 2
 2128               	/* #NOAPP */
 2129 1100 90EF      		ldi r25,lo8(-16)
 2130 1102 22E0      		ldi r18,lo8(2)
 2131 1104 00C0      		rjmp .L217
 2132               	.L219:
 2133 1106 822F      		mov r24,r18
 2134               	/* #APP */
 2135               	 ;  83 "c:/winavr/lib/gcc/../../avr/include/util/delay_basic.h" 1
 2136 1108 8A95      		1: dec r24
 2137 110a 01F4      		brne 1b
 2138               	 ;  0 "" 2
 2139               	/* #NOAPP */
 2140 110c CE9B      		sbis 57-32,6
 2141 110e 00C0      		rjmp .L218
 2142               	.L217:
 2143 1110 9150      		subi r25,1
 2144 1112 00F4      		brcc .L219
 2145 1114 00C0      		rjmp .L216
 2146               	.L218:
 2147 1116 80EC      		ldi r24,lo8(960)
 2148 1118 93E0      		ldi r25,hi8(960)
 2149               	/* #APP */
 2150               	 ;  105 "c:/winavr/lib/gcc/../../avr/include/util/delay_basic.h" 1
 2151 111a 0197      		1: sbiw r24,1
 2152 111c 01F4      		brne 1b
 2153               	 ;  0 "" 2
 2154               	/* #NOAPP */
 2155 111e 80E0      		ldi r24,lo8(0)
 2156 1120 0895      		ret
 2157               	.L216:
 2158 1122 81E0      		ldi r24,lo8(1)
 2159 1124 0895      		ret
 2161               	.global	DS18B20_send
 2163               	DS18B20_send:
 2164               	/* prologue: function */
 2165               	/* frame size = 0 */
 2166 1126 382F      		mov r19,r24
 2167 1128 28E0      		ldi r18,lo8(8)
 2168 112a 80E0      		ldi r24,lo8(0)
 2169 112c 62E0      		ldi r22,lo8(2)
 2170 112e 5AE1      		ldi r21,lo8(26)
 2171 1130 40EF      		ldi r20,lo8(-16)
 2172 1132 00C0      		rjmp .L223
 2173               	.L226:
 2174 1134 D69A      		sbi 58-32,6
 2175 1136 962F      		mov r25,r22
 2176               	/* #APP */
 2177               	 ;  83 "c:/winavr/lib/gcc/../../avr/include/util/delay_basic.h" 1
 2178 1138 9A95      		1: dec r25
 2179 113a 01F4      		brne 1b
 2180               	 ;  0 "" 2
 2181               	/* #NOAPP */
 2182 113c 30FD      		sbrc r19,0
 2183 113e D698      		cbi 58-32,6
 2184               	.L224:
 2185 1140 952F      		mov r25,r21
 2186               	/* #APP */
 2187               	 ;  83 "c:/winavr/lib/gcc/../../avr/include/util/delay_basic.h" 1
 2188 1142 9A95      		1: dec r25
 2189 1144 01F4      		brne 1b
 2190               	 ;  0 "" 2
 2191               	/* #NOAPP */
 2192 1146 8695      		lsr r24
 2193 1148 CE99      		sbic 57-32,6
 2194 114a 8068      		ori r24,lo8(-128)
 2195               	.L225:
 2196 114c 3695      		lsr r19
 2197 114e 942F      		mov r25,r20
 2198               	/* #APP */
 2199               	 ;  83 "c:/winavr/lib/gcc/../../avr/include/util/delay_basic.h" 1
 2200 1150 9A95      		1: dec r25
 2201 1152 01F4      		brne 1b
 2202               	 ;  0 "" 2
 2203               	/* #NOAPP */
 2204 1154 D698      		cbi 58-32,6
 2205               	.L223:
 2206 1156 2150      		subi r18,1
 2207 1158 00F4      		brcc .L226
 2208               	/* epilogue start */
 2209 115a 0895      		ret
 2211               	.global	DS_calcCRC8
 2213               	DS_calcCRC8:
 2214               	/* prologue: function */
 2215               	/* frame size = 0 */
 2216 115c 282F      		mov r18,r24
 2217 115e 98E0      		ldi r25,lo8(8)
 2218 1160 48E1      		ldi r20,lo8(24)
 2219 1162 00C0      		rjmp .L229
 2220               	.L232:
 2221 1164 862F      		mov r24,r22
 2222 1166 8227      		eor r24,r18
 2223 1168 382F      		mov r19,r24
 2224 116a 3170      		andi r19,lo8(1)
 2225 116c 80FD      		sbrc r24,0
 2226 116e 6427      		eor r22,r20
 2227               	.L230:
 2228 1170 6695      		lsr r22
 2229 1172 3130      		cpi r19,lo8(1)
 2230 1174 01F4      		brne .L231
 2231 1176 6068      		ori r22,lo8(-128)
 2232               	.L231:
 2233 1178 2695      		lsr r18
 2234               	.L229:
 2235 117a 9150      		subi r25,1
 2236 117c 00F4      		brcc .L232
 2237 117e 862F      		mov r24,r22
 2238               	/* epilogue start */
 2239 1180 0895      		ret
 2241               	.global	DS18B20_read
 2243               	DS18B20_read:
 2244 1182 1F93      		push r17
 2245 1184 CF93      		push r28
 2246 1186 DF93      		push r29
 2247               	/* prologue: function */
 2248               	/* frame size = 0 */
 2249 1188 10E0      		ldi r17,lo8(0)
 2250 118a C0E0      		ldi r28,lo8(0)
 2251 118c D0E0      		ldi r29,hi8(0)
 2252               	.L235:
 2253 118e 8FEF      		ldi r24,lo8(-1)
 2254 1190 0E94 0000 		call DS18B20_send
 2255 1194 FE01      		movw r30,r28
 2256 1196 E050      		subi r30,lo8(-(DS_TempData))
 2257 1198 F040      		sbci r31,hi8(-(DS_TempData))
 2258 119a 8083      		st Z,r24
 2259 119c 612F      		mov r22,r17
 2260 119e 0E94 0000 		call DS_calcCRC8
 2261 11a2 182F      		mov r17,r24
 2262 11a4 2196      		adiw r28,1
 2263 11a6 C930      		cpi r28,9
 2264 11a8 D105      		cpc r29,__zero_reg__
 2265 11aa 01F4      		brne .L235
 2266 11ac 682F      		mov r22,r24
 2267 11ae 8111      		cpse r24,__zero_reg__
 2268 11b0 61E0      		ldi r22,lo8(1)
 2269               	.L236:
 2270 11b2 862F      		mov r24,r22
 2271               	/* epilogue start */
 2272 11b4 DF91      		pop r29
 2273 11b6 CF91      		pop r28
 2274 11b8 1F91      		pop r17
 2275 11ba 0895      		ret
 2277               	.global	DS18B20_SetResolution
 2279               	DS18B20_SetResolution:
 2280 11bc 1F93      		push r17
 2281               	/* prologue: function */
 2282               	/* frame size = 0 */
 2283 11be 182F      		mov r17,r24
 2284 11c0 0E94 0000 		call DS18B20_init
 2285 11c4 8CEC      		ldi r24,lo8(-52)
 2286 11c6 0E94 0000 		call DS18B20_send
 2287 11ca 8EE4      		ldi r24,lo8(78)
 2288 11cc 0E94 0000 		call DS18B20_send
 2289 11d0 8FEF      		ldi r24,lo8(-1)
 2290 11d2 0E94 0000 		call DS18B20_send
 2291 11d6 8FEF      		ldi r24,lo8(-1)
 2292 11d8 0E94 0000 		call DS18B20_send
 2293 11dc 812F      		mov r24,r17
 2294 11de 0E94 0000 		call DS18B20_send
 2295 11e2 0E94 0000 		call DS18B20_init
 2296 11e6 8CEC      		ldi r24,lo8(-52)
 2297 11e8 0E94 0000 		call DS18B20_send
 2298 11ec 88E4      		ldi r24,lo8(72)
 2299 11ee 0E94 0000 		call DS18B20_send
 2300               	/* epilogue start */
 2301 11f2 1F91      		pop r17
 2302 11f4 0895      		ret
 2304               	.global	DS18B20_convertTemp
 2306               	DS18B20_convertTemp:
 2307               	/* prologue: function */
 2308               	/* frame size = 0 */
 2309 11f6 0E94 0000 		call DS18B20_init
 2310 11fa 8823      		tst r24
 2311 11fc 01F0      		breq .L242
 2312 11fe 1092 0000 		sts STATUS_DS,__zero_reg__
 2313 1202 0895      		ret
 2314               	.L242:
 2315 1204 8CEC      		ldi r24,lo8(-52)
 2316 1206 0E94 0000 		call DS18B20_send
 2317 120a 84E4      		ldi r24,lo8(68)
 2318 120c 0E94 0000 		call DS18B20_send
 2319 1210 0895      		ret
 2321               	.global	DS18B20_getTemp
 2323               	DS18B20_getTemp:
 2324 1212 CF92      		push r12
 2325 1214 DF92      		push r13
 2326 1216 EF92      		push r14
 2327 1218 FF92      		push r15
 2328 121a 0F93      		push r16
 2329 121c 1F93      		push r17
 2330               	/* prologue: function */
 2331               	/* frame size = 0 */
 2332 121e 0E94 0000 		call DS18B20_init
 2333 1222 8823      		tst r24
 2334 1224 01F4      		brne .L251
 2335               	.L246:
 2336 1226 8CEC      		ldi r24,lo8(-52)
 2337 1228 0E94 0000 		call DS18B20_send
 2338 122c 8EEB      		ldi r24,lo8(-66)
 2339 122e 0E94 0000 		call DS18B20_send
 2340 1232 0E94 0000 		call DS18B20_read
 2341 1236 8823      		tst r24
 2342 1238 01F0      		breq .L248
 2343               	.L251:
 2344 123a 1092 0000 		sts STATUS_DS,__zero_reg__
 2345 123e 00C0      		rjmp .L250
 2346               	.L248:
 2347 1240 8091 0000 		lds r24,DS_TempData+1
 2348 1244 9091 0000 		lds r25,DS_TempData
 2349 1248 182F      		mov r17,r24
 2350 124a 00E0      		ldi r16,lo8(0)
 2351 124c 090F      		add r16,r25
 2352 124e 111D      		adc r17,__zero_reg__
 2353 1250 B801      		movw r22,r16
 2354 1252 7770      		andi r23,hi8(2047)
 2355 1254 E4E0      		ldi r30,4
 2356 1256 7695      	1:	lsr r23
 2357 1258 6795      		ror r22
 2358 125a EA95      		dec r30
 2359 125c 01F4      		brne 1b
 2360 125e 80E0      		ldi r24,lo8(0)
 2361 1260 90E0      		ldi r25,hi8(0)
 2362 1262 0E94 0000 		call __floatunsisf
 2363 1266 6093 0000 		sts DS_Temp,r22
 2364 126a 7093 0000 		sts (DS_Temp)+1,r23
 2365 126e 8093 0000 		sts (DS_Temp)+2,r24
 2366 1272 9093 0000 		sts (DS_Temp)+3,r25
 2367 1276 C090 0000 		lds r12,DS_Temp
 2368 127a D090 0000 		lds r13,(DS_Temp)+1
 2369 127e E090 0000 		lds r14,(DS_Temp)+2
 2370 1282 F090 0000 		lds r15,(DS_Temp)+3
 2371 1286 B801      		movw r22,r16
 2372 1288 6F70      		andi r22,lo8(15)
 2373 128a 7070      		andi r23,hi8(15)
 2374 128c 80E0      		ldi r24,lo8(0)
 2375 128e 90E0      		ldi r25,hi8(0)
 2376 1290 0E94 0000 		call __floatunsisf
 2377 1294 20E0      		ldi r18,lo8(0x3d800000)
 2378 1296 30E0      		ldi r19,hi8(0x3d800000)
 2379 1298 40E8      		ldi r20,hlo8(0x3d800000)
 2380 129a 5DE3      		ldi r21,hhi8(0x3d800000)
 2381 129c 0E94 0000 		call __mulsf3
 2382 12a0 9B01      		movw r18,r22
 2383 12a2 AC01      		movw r20,r24
 2384 12a4 C701      		movw r24,r14
 2385 12a6 B601      		movw r22,r12
 2386 12a8 0E94 0000 		call __addsf3
 2387 12ac 6093 0000 		sts DS_Temp,r22
 2388 12b0 7093 0000 		sts (DS_Temp)+1,r23
 2389 12b4 8093 0000 		sts (DS_Temp)+2,r24
 2390 12b8 9093 0000 		sts (DS_Temp)+3,r25
 2391 12bc 17FF      		sbrs r17,7
 2392 12be 00C0      		rjmp .L249
 2393 12c0 8091 0000 		lds r24,DS_Temp
 2394 12c4 9091 0000 		lds r25,(DS_Temp)+1
 2395 12c8 A091 0000 		lds r26,(DS_Temp)+2
 2396 12cc B091 0000 		lds r27,(DS_Temp)+3
 2397 12d0 B058      		subi r27,0x80
 2398 12d2 8093 0000 		sts DS_Temp,r24
 2399 12d6 9093 0000 		sts (DS_Temp)+1,r25
 2400 12da A093 0000 		sts (DS_Temp)+2,r26
 2401 12de B093 0000 		sts (DS_Temp)+3,r27
 2402               	.L249:
 2403 12e2 81E0      		ldi r24,lo8(1)
 2404 12e4 8093 0000 		sts STATUS_DS,r24
 2405               	.L250:
 2406               	/* epilogue start */
 2407 12e8 1F91      		pop r17
 2408 12ea 0F91      		pop r16
 2409 12ec FF90      		pop r15
 2410 12ee EF90      		pop r14
 2411 12f0 DF90      		pop r13
 2412 12f2 CF90      		pop r12
 2413 12f4 0895      		ret
 2415               	.global	PWM_sendByte
 2417               	PWM_sendByte:
 2418               	/* prologue: function */
 2419               	/* frame size = 0 */
 2420 12f6 98E0      		ldi r25,lo8(8)
 2421 12f8 20ED      		ldi r18,lo8(2000)
 2422 12fa 37E0      		ldi r19,hi8(2000)
 2423 12fc 00C0      		rjmp .L253
 2424               	.L256:
 2425 12fe 87FF      		sbrs r24,7
 2426 1300 00C0      		rjmp .L254
 2427 1302 DB9A      		sbi 59-32,3
 2428 1304 00C0      		rjmp .L255
 2429               	.L254:
 2430 1306 DB98      		cbi 59-32,3
 2431               	.L255:
 2432 1308 F901      		movw r30,r18
 2433               	/* #APP */
 2434               	 ;  105 "c:/winavr/lib/gcc/../../avr/include/util/delay_basic.h" 1
 2435 130a 3197      		1: sbiw r30,1
 2436 130c 01F4      		brne 1b
 2437               	 ;  0 "" 2
 2438               	/* #NOAPP */
 2439 130e DA9A      		sbi 59-32,2
 2440 1310 F901      		movw r30,r18
 2441               	/* #APP */
 2442               	 ;  105 "c:/winavr/lib/gcc/../../avr/include/util/delay_basic.h" 1
 2443 1312 3197      		1: sbiw r30,1
 2444 1314 01F4      		brne 1b
 2445               	 ;  0 "" 2
 2446               	/* #NOAPP */
 2447 1316 DA98      		cbi 59-32,2
 2448 1318 880F      		lsl r24
 2449 131a F901      		movw r30,r18
 2450               	/* #APP */
 2451               	 ;  105 "c:/winavr/lib/gcc/../../avr/include/util/delay_basic.h" 1
 2452 131c 3197      		1: sbiw r30,1
 2453 131e 01F4      		brne 1b
 2454               	 ;  0 "" 2
 2455               	/* #NOAPP */
 2456               	.L253:
 2457 1320 9150      		subi r25,1
 2458 1322 00F4      		brcc .L256
 2459 1324 80E1      		ldi r24,lo8(10000)
 2460 1326 97E2      		ldi r25,hi8(10000)
 2461               	/* #APP */
 2462               	 ;  105 "c:/winavr/lib/gcc/../../avr/include/util/delay_basic.h" 1
 2463 1328 0197      		1: sbiw r24,1
 2464 132a 01F4      		brne 1b
 2465               	 ;  0 "" 2
 2466               	/* epilogue start */
 2467               	/* #NOAPP */
 2468 132c 0895      		ret
 2470               	.global	PWM_send
 2472               	PWM_send:
 2473 132e 0F93      		push r16
 2474 1330 1F93      		push r17
 2475               	/* prologue: function */
 2476               	/* frame size = 0 */
 2477 1332 082F      		mov r16,r24
 2478 1334 162F      		mov r17,r22
 2479 1336 0E94 0000 		call PWM_sendByte
 2480 133a 812F      		mov r24,r17
 2481 133c 0E94 0000 		call PWM_sendByte
 2482 1340 812F      		mov r24,r17
 2483 1342 800F      		add r24,r16
 2484 1344 0E94 0000 		call PWM_sendByte
 2485 1348 80E2      		ldi r24,lo8(20000)
 2486 134a 9EE4      		ldi r25,hi8(20000)
 2487               	/* #APP */
 2488               	 ;  105 "c:/winavr/lib/gcc/../../avr/include/util/delay_basic.h" 1
 2489 134c 0197      		1: sbiw r24,1
 2490 134e 01F4      		brne 1b
 2491               	 ;  0 "" 2
 2492               	/* epilogue start */
 2493               	/* #NOAPP */
 2494 1350 1F91      		pop r17
 2495 1352 0F91      		pop r16
 2496 1354 0895      		ret
 2498               	.global	Work_T3_M3
 2500               	Work_T3_M3:
 2501 1356 AF92      		push r10
 2502 1358 BF92      		push r11
 2503 135a CF92      		push r12
 2504 135c DF92      		push r13
 2505 135e EF92      		push r14
 2506 1360 FF92      		push r15
 2507 1362 0F93      		push r16
 2508 1364 1F93      		push r17
 2509               	/* prologue: function */
 2510               	/* frame size = 0 */
 2511 1366 8091 0000 		lds r24,STATUS_TC2
 2512 136a 8130      		cpi r24,lo8(1)
 2513 136c 01F0      		breq .+2
 2514 136e 00C0      		rjmp .L261
 2515 1370 2091 0000 		lds r18,VALUE_TC2
 2516 1374 3091 0000 		lds r19,(VALUE_TC2)+1
 2517 1378 8091 0000 		lds r24,SETVAL_TEMP_PYROLYS_START
 2518 137c 9091 0000 		lds r25,(SETVAL_TEMP_PYROLYS_START)+1
 2519 1380 2817      		cp r18,r24
 2520 1382 3907      		cpc r19,r25
 2521 1384 00F4      		brsh .+2
 2522 1386 00C0      		rjmp .L261
 2523 1388 8091 0000 		lds r24,STATUS
 2524 138c 85FD      		sbrc r24,5
 2525 138e 00C0      		rjmp .L262
 2526 1390 8091 0000 		lds r24,STATUS
 2527 1394 8062      		ori r24,lo8(32)
 2528 1396 8093 0000 		sts STATUS,r24
 2529               	.L262:
 2530 139a 2091 0000 		lds r18,VALUE_TC2
 2531 139e 3091 0000 		lds r19,(VALUE_TC2)+1
 2532 13a2 8091 0000 		lds r24,SETVAL_TEMP_PYROLYS_FULL
 2533 13a6 9091 0000 		lds r25,(SETVAL_TEMP_PYROLYS_FULL)+1
 2534 13aa 2817      		cp r18,r24
 2535 13ac 3907      		cpc r19,r25
 2536 13ae 00F0      		brlo .L263
 2537 13b0 0F2E      		mov __tmp_reg__,r31
 2538 13b2 F0E0      		ldi r31,lo8(0x437f0000)
 2539 13b4 EF2E      		mov r14,r31
 2540 13b6 F0E0      		ldi r31,hi8(0x437f0000)
 2541 13b8 FF2E      		mov r15,r31
 2542 13ba FFE7      		ldi r31,hlo8(0x437f0000)
 2543 13bc 0F2F      		mov r16,r31
 2544 13be F3E4      		ldi r31,hhi8(0x437f0000)
 2545 13c0 1F2F      		mov r17,r31
 2546 13c2 F02D      		mov r31,__tmp_reg__
 2547 13c4 00C0      		rjmp .L264
 2548               	.L263:
 2549 13c6 6091 0000 		lds r22,VALUE_TC2
 2550 13ca 7091 0000 		lds r23,(VALUE_TC2)+1
 2551 13ce 2091 0000 		lds r18,SETVAL_TEMP_PYROLYS_START
 2552 13d2 3091 0000 		lds r19,(SETVAL_TEMP_PYROLYS_START)+1
 2553 13d6 A090 0000 		lds r10,dbl_PWM3_Step_Discret
 2554 13da B090 0000 		lds r11,(dbl_PWM3_Step_Discret)+1
 2555 13de C090 0000 		lds r12,(dbl_PWM3_Step_Discret)+2
 2556 13e2 D090 0000 		lds r13,(dbl_PWM3_Step_Discret)+3
 2557 13e6 E090 0000 		lds r14,ui8_PWM3_Start_Discret
 2558 13ea 621B      		sub r22,r18
 2559 13ec 730B      		sbc r23,r19
 2560 13ee 80E0      		ldi r24,lo8(0)
 2561 13f0 90E0      		ldi r25,hi8(0)
 2562 13f2 0E94 0000 		call __floatunsisf
 2563 13f6 A601      		movw r20,r12
 2564 13f8 9501      		movw r18,r10
 2565 13fa 0E94 0000 		call __mulsf3
 2566 13fe 5B01      		movw r10,r22
 2567 1400 6C01      		movw r12,r24
 2568 1402 FF24      		clr r15
 2569 1404 0027      		clr r16
 2570 1406 F7FC      		sbrc r15,7
 2571 1408 0095      		com r16
 2572 140a 102F      		mov r17,r16
 2573 140c C801      		movw r24,r16
 2574 140e B701      		movw r22,r14
 2575 1410 0E94 0000 		call __floatsisf
 2576 1414 9B01      		movw r18,r22
 2577 1416 AC01      		movw r20,r24
 2578 1418 C601      		movw r24,r12
 2579 141a B501      		movw r22,r10
 2580 141c 0E94 0000 		call __addsf3
 2581 1420 7B01      		movw r14,r22
 2582 1422 8C01      		movw r16,r24
 2583 1424 20E0      		ldi r18,lo8(0x437f0000)
 2584 1426 30E0      		ldi r19,hi8(0x437f0000)
 2585 1428 4FE7      		ldi r20,hlo8(0x437f0000)
 2586 142a 53E4      		ldi r21,hhi8(0x437f0000)
 2587 142c 0E94 0000 		call __gtsf2
 2588 1430 1816      		cp __zero_reg__,r24
 2589 1432 04F4      		brge .L264
 2590 1434 6FEF      		ldi r22,lo8(-1)
 2591 1436 00C0      		rjmp .L266
 2592               	.L264:
 2593 1438 C801      		movw r24,r16
 2594 143a B701      		movw r22,r14
 2595 143c 0E94 0000 		call __fixunssfsi
 2596               	.L266:
 2597 1440 8091 0000 		lds r24,ui8_PWM3_LEVEL
 2598 1444 8617      		cp r24,r22
 2599 1446 01F0      		breq .L269
 2600 1448 6093 0000 		sts ui8_PWM3_LEVEL,r22
 2601 144c 6091 0000 		lds r22,ui8_PWM3_LEVEL
 2602 1450 83E0      		ldi r24,lo8(3)
 2603 1452 0E94 0000 		call PWM_send
 2604 1456 00C0      		rjmp .L269
 2605               	.L261:
 2606 1458 8091 0000 		lds r24,ui8_PWM3_LEVEL
 2607 145c 8823      		tst r24
 2608 145e 01F0      		breq .L268
 2609 1460 1092 0000 		sts ui8_PWM3_LEVEL,__zero_reg__
 2610 1464 6091 0000 		lds r22,ui8_PWM3_LEVEL
 2611 1468 83E0      		ldi r24,lo8(3)
 2612 146a 0E94 0000 		call PWM_send
 2613               	.L268:
 2614 146e 8091 0000 		lds r24,STATUS
 2615 1472 85FF      		sbrs r24,5
 2616 1474 00C0      		rjmp .L269
 2617 1476 8091 0000 		lds r24,STATUS
 2618 147a 8F7D      		andi r24,lo8(-33)
 2619 147c 8093 0000 		sts STATUS,r24
 2620               	.L269:
 2621               	/* epilogue start */
 2622 1480 1F91      		pop r17
 2623 1482 0F91      		pop r16
 2624 1484 FF90      		pop r15
 2625 1486 EF90      		pop r14
 2626 1488 DF90      		pop r13
 2627 148a CF90      		pop r12
 2628 148c BF90      		pop r11
 2629 148e AF90      		pop r10
 2630 1490 0895      		ret
 2632               	.global	Work_T12_M12
 2634               	Work_T12_M12:
 2635 1492 5F92      		push r5
 2636 1494 6F92      		push r6
 2637 1496 7F92      		push r7
 2638 1498 8F92      		push r8
 2639 149a 9F92      		push r9
 2640 149c AF92      		push r10
 2641 149e BF92      		push r11
 2642 14a0 CF92      		push r12
 2643 14a2 DF92      		push r13
 2644 14a4 EF92      		push r14
 2645 14a6 FF92      		push r15
 2646 14a8 0F93      		push r16
 2647 14aa 1F93      		push r17
 2648 14ac CF93      		push r28
 2649 14ae DF93      		push r29
 2650               	/* prologue: function */
 2651               	/* frame size = 0 */
 2652 14b0 8091 0000 		lds r24,STATUS
 2653 14b4 86FF      		sbrs r24,6
 2654 14b6 00C0      		rjmp .L272
 2655 14b8 8091 0000 		lds r24,ui8_PWM2_LEVEL
 2656 14bc 8823      		tst r24
 2657 14be 01F4      		brne .L273
 2658 14c0 8091 0000 		lds r24,ui8_PWM1_LEVEL
 2659 14c4 8823      		tst r24
 2660 14c6 01F4      		brne .L274
 2661 14c8 1092 0000 		sts ui8_M12_STATUS,__zero_reg__
 2662 14cc 00C0      		rjmp .L275
 2663               	.L274:
 2664 14ce 8091 0000 		lds r24,ui8_PWM1_LEVEL
 2665 14d2 8F3F      		cpi r24,lo8(-1)
 2666 14d4 01F4      		brne .L276
 2667 14d6 82E0      		ldi r24,lo8(2)
 2668 14d8 00C0      		rjmp .L312
 2669               	.L276:
 2670 14da 81E0      		ldi r24,lo8(1)
 2671 14dc 00C0      		rjmp .L312
 2672               	.L273:
 2673 14de 8091 0000 		lds r24,ui8_PWM2_LEVEL
 2674 14e2 8F3F      		cpi r24,lo8(-1)
 2675 14e4 01F4      		brne .L277
 2676 14e6 84E0      		ldi r24,lo8(4)
 2677 14e8 00C0      		rjmp .L312
 2678               	.L277:
 2679 14ea 83E0      		ldi r24,lo8(3)
 2680               	.L312:
 2681 14ec 8093 0000 		sts ui8_M12_STATUS,r24
 2682               	.L275:
 2683 14f0 8091 0000 		lds r24,ui8_M12_STATUS
 2684 14f4 8230      		cpi r24,lo8(2)
 2685 14f6 01F4      		brne .+2
 2686 14f8 00C0      		rjmp .L280
 2687 14fa 8330      		cpi r24,lo8(3)
 2688 14fc 00F4      		brsh .L283
 2689 14fe 8823      		tst r24
 2690 1500 01F0      		breq .L278
 2691 1502 8130      		cpi r24,lo8(1)
 2692 1504 01F0      		breq .+2
 2693 1506 00C0      		rjmp .L272
 2694 1508 00C0      		rjmp .L316
 2695               	.L283:
 2696 150a 8330      		cpi r24,lo8(3)
 2697 150c 01F4      		brne .+2
 2698 150e 00C0      		rjmp .L281
 2699 1510 8430      		cpi r24,lo8(4)
 2700 1512 01F0      		breq .+2
 2701 1514 00C0      		rjmp .L272
 2702 1516 00C0      		rjmp .L317
 2703               	.L278:
 2704 1518 6091 0000 		lds r22,ui8_PWM1_Start_Discret
 2705 151c 70E0      		ldi r23,lo8(0)
 2706 151e 80E0      		ldi r24,lo8(0)
 2707 1520 90E0      		ldi r25,hi8(0)
 2708 1522 0E94 0000 		call __floatunsisf
 2709 1526 6093 0000 		sts dbl_PWM1_LEVEL,r22
 2710 152a 7093 0000 		sts (dbl_PWM1_LEVEL)+1,r23
 2711 152e 8093 0000 		sts (dbl_PWM1_LEVEL)+2,r24
 2712 1532 9093 0000 		sts (dbl_PWM1_LEVEL)+3,r25
 2713 1536 8091 0000 		lds r24,ui8_PWM1_Start_Discret
 2714 153a 8093 0000 		sts ui8_PWM1_LEVEL,r24
 2715 153e 00C0      		rjmp .L286
 2716               	.L316:
 2717 1540 6091 0000 		lds r22,dbl_PWM1_LEVEL
 2718 1544 7091 0000 		lds r23,(dbl_PWM1_LEVEL)+1
 2719 1548 8091 0000 		lds r24,(dbl_PWM1_LEVEL)+2
 2720 154c 9091 0000 		lds r25,(dbl_PWM1_LEVEL)+3
 2721 1550 2091 0000 		lds r18,dbl_PWM1_Step_Start_Discret
 2722 1554 3091 0000 		lds r19,(dbl_PWM1_Step_Start_Discret)+1
 2723 1558 4091 0000 		lds r20,(dbl_PWM1_Step_Start_Discret)+2
 2724 155c 5091 0000 		lds r21,(dbl_PWM1_Step_Start_Discret)+3
 2725 1560 0E94 0000 		call __addsf3
 2726 1564 6093 0000 		sts dbl_PWM1_LEVEL,r22
 2727 1568 7093 0000 		sts (dbl_PWM1_LEVEL)+1,r23
 2728 156c 8093 0000 		sts (dbl_PWM1_LEVEL)+2,r24
 2729 1570 9093 0000 		sts (dbl_PWM1_LEVEL)+3,r25
 2730 1574 6091 0000 		lds r22,dbl_PWM1_LEVEL
 2731 1578 7091 0000 		lds r23,(dbl_PWM1_LEVEL)+1
 2732 157c 8091 0000 		lds r24,(dbl_PWM1_LEVEL)+2
 2733 1580 9091 0000 		lds r25,(dbl_PWM1_LEVEL)+3
 2734 1584 20E0      		ldi r18,lo8(0x437f0000)
 2735 1586 30E0      		ldi r19,hi8(0x437f0000)
 2736 1588 4FE7      		ldi r20,hlo8(0x437f0000)
 2737 158a 53E4      		ldi r21,hhi8(0x437f0000)
 2738 158c 0E94 0000 		call __gesf2
 2739 1590 8823      		tst r24
 2740 1592 04F0      		brlt .L310
 2741 1594 8FEF      		ldi r24,lo8(-1)
 2742 1596 8093 0000 		sts ui8_PWM1_LEVEL,r24
 2743 159a 1092 0000 		sts (ui16_M12_CNT)+1,__zero_reg__
 2744 159e 1092 0000 		sts ui16_M12_CNT,__zero_reg__
 2745 15a2 00C0      		rjmp .L286
 2746               	.L310:
 2747 15a4 6091 0000 		lds r22,dbl_PWM1_LEVEL
 2748 15a8 7091 0000 		lds r23,(dbl_PWM1_LEVEL)+1
 2749 15ac 8091 0000 		lds r24,(dbl_PWM1_LEVEL)+2
 2750 15b0 9091 0000 		lds r25,(dbl_PWM1_LEVEL)+3
 2751 15b4 0E94 0000 		call __fixunssfsi
 2752 15b8 6093 0000 		sts ui8_PWM1_LEVEL,r22
 2753               	.L286:
 2754 15bc 6091 0000 		lds r22,ui8_PWM1_LEVEL
 2755 15c0 81E0      		ldi r24,lo8(1)
 2756 15c2 00C0      		rjmp .L313
 2757               	.L280:
 2758 15c4 8091 0000 		lds r24,ui16_M12_CNT
 2759 15c8 9091 0000 		lds r25,(ui16_M12_CNT)+1
 2760 15cc 0196      		adiw r24,1
 2761 15ce 9093 0000 		sts (ui16_M12_CNT)+1,r25
 2762 15d2 8093 0000 		sts ui16_M12_CNT,r24
 2763 15d6 8091 0000 		lds r24,ui16_M12_CNT
 2764 15da 9091 0000 		lds r25,(ui16_M12_CNT)+1
 2765 15de 4E97      		sbiw r24,30
 2766 15e0 00F4      		brsh .+2
 2767 15e2 00C0      		rjmp .L272
 2768 15e4 6091 0000 		lds r22,ui8_PWM2_Start_Discret
 2769 15e8 70E0      		ldi r23,lo8(0)
 2770 15ea 80E0      		ldi r24,lo8(0)
 2771 15ec 90E0      		ldi r25,hi8(0)
 2772 15ee 0E94 0000 		call __floatunsisf
 2773 15f2 6093 0000 		sts dbl_PWM2_LEVEL,r22
 2774 15f6 7093 0000 		sts (dbl_PWM2_LEVEL)+1,r23
 2775 15fa 8093 0000 		sts (dbl_PWM2_LEVEL)+2,r24
 2776 15fe 9093 0000 		sts (dbl_PWM2_LEVEL)+3,r25
 2777 1602 8091 0000 		lds r24,ui8_PWM2_Start_Discret
 2778 1606 8093 0000 		sts ui8_PWM2_LEVEL,r24
 2779 160a 6091 0000 		lds r22,ui8_PWM2_LEVEL
 2780 160e 82E0      		ldi r24,lo8(2)
 2781 1610 0E94 0000 		call PWM_send
 2782 1614 1092 0000 		sts (ui16_M12_CNT)+1,__zero_reg__
 2783 1618 1092 0000 		sts ui16_M12_CNT,__zero_reg__
 2784 161c 00C0      		rjmp .L272
 2785               	.L281:
 2786 161e 6091 0000 		lds r22,dbl_PWM2_LEVEL
 2787 1622 7091 0000 		lds r23,(dbl_PWM2_LEVEL)+1
 2788 1626 8091 0000 		lds r24,(dbl_PWM2_LEVEL)+2
 2789 162a 9091 0000 		lds r25,(dbl_PWM2_LEVEL)+3
 2790 162e 2091 0000 		lds r18,dbl_PWM2_Step_Discret
 2791 1632 3091 0000 		lds r19,(dbl_PWM2_Step_Discret)+1
 2792 1636 4091 0000 		lds r20,(dbl_PWM2_Step_Discret)+2
 2793 163a 5091 0000 		lds r21,(dbl_PWM2_Step_Discret)+3
 2794 163e 0E94 0000 		call __addsf3
 2795 1642 6093 0000 		sts dbl_PWM2_LEVEL,r22
 2796 1646 7093 0000 		sts (dbl_PWM2_LEVEL)+1,r23
 2797 164a 8093 0000 		sts (dbl_PWM2_LEVEL)+2,r24
 2798 164e 9093 0000 		sts (dbl_PWM2_LEVEL)+3,r25
 2799 1652 6091 0000 		lds r22,dbl_PWM2_LEVEL
 2800 1656 7091 0000 		lds r23,(dbl_PWM2_LEVEL)+1
 2801 165a 8091 0000 		lds r24,(dbl_PWM2_LEVEL)+2
 2802 165e 9091 0000 		lds r25,(dbl_PWM2_LEVEL)+3
 2803 1662 20E0      		ldi r18,lo8(0x437f0000)
 2804 1664 30E0      		ldi r19,hi8(0x437f0000)
 2805 1666 4FE7      		ldi r20,hlo8(0x437f0000)
 2806 1668 53E4      		ldi r21,hhi8(0x437f0000)
 2807 166a 0E94 0000 		call __gesf2
 2808 166e 8823      		tst r24
 2809 1670 04F0      		brlt .L311
 2810 1672 8FEF      		ldi r24,lo8(-1)
 2811 1674 8093 0000 		sts ui8_PWM2_LEVEL,r24
 2812 1678 00C0      		rjmp .L289
 2813               	.L311:
 2814 167a 6091 0000 		lds r22,dbl_PWM2_LEVEL
 2815 167e 7091 0000 		lds r23,(dbl_PWM2_LEVEL)+1
 2816 1682 8091 0000 		lds r24,(dbl_PWM2_LEVEL)+2
 2817 1686 9091 0000 		lds r25,(dbl_PWM2_LEVEL)+3
 2818 168a 0E94 0000 		call __fixunssfsi
 2819 168e 6093 0000 		sts ui8_PWM2_LEVEL,r22
 2820               	.L289:
 2821 1692 6091 0000 		lds r22,ui8_PWM2_LEVEL
 2822 1696 82E0      		ldi r24,lo8(2)
 2823               	.L313:
 2824 1698 0E94 0000 		call PWM_send
 2825 169c 00C0      		rjmp .L272
 2826               	.L317:
 2827 169e 8091 0000 		lds r24,STATUS
 2828 16a2 8F7B      		andi r24,lo8(-65)
 2829 16a4 8093 0000 		sts STATUS,r24
 2830               	.L272:
 2831 16a8 8091 0000 		lds r24,STATUS
 2832 16ac 87FF      		sbrs r24,7
 2833 16ae 00C0      		rjmp .L290
 2834 16b0 8091 0000 		lds r24,ui8_PWM2_LEVEL
 2835 16b4 8823      		tst r24
 2836 16b6 01F4      		brne .L291
 2837 16b8 8091 0000 		lds r24,ui8_PWM1_LEVEL
 2838 16bc 8823      		tst r24
 2839 16be 01F4      		brne .L292
 2840 16c0 83E0      		ldi r24,lo8(3)
 2841 16c2 00C0      		rjmp .L314
 2842               	.L292:
 2843 16c4 8091 0000 		lds r24,ui8_PWM1_LEVEL
 2844 16c8 8F3F      		cpi r24,lo8(-1)
 2845 16ca 01F4      		brne .L294
 2846 16cc 81E0      		ldi r24,lo8(1)
 2847               	.L314:
 2848 16ce 8093 0000 		sts ui8_M12_STATUS,r24
 2849 16d2 00C0      		rjmp .L293
 2850               	.L294:
 2851 16d4 82E0      		ldi r24,lo8(2)
 2852 16d6 00C0      		rjmp .L314
 2853               	.L291:
 2854 16d8 1092 0000 		sts ui8_M12_STATUS,__zero_reg__
 2855               	.L293:
 2856 16dc 8091 0000 		lds r24,ui8_M12_STATUS
 2857 16e0 8130      		cpi r24,lo8(1)
 2858 16e2 01F0      		breq .L296
 2859 16e4 8130      		cpi r24,lo8(1)
 2860 16e6 00F0      		brlo .L295
 2861 16e8 8230      		cpi r24,lo8(2)
 2862 16ea 01F4      		brne .+2
 2863 16ec 00C0      		rjmp .L297
 2864 16ee 8330      		cpi r24,lo8(3)
 2865 16f0 01F0      		breq .+2
 2866 16f2 00C0      		rjmp .L290
 2867 16f4 00C0      		rjmp .L318
 2868               	.L295:
 2869 16f6 80E0      		ldi r24,lo8(0x0)
 2870 16f8 90E0      		ldi r25,hi8(0x0)
 2871 16fa A0E0      		ldi r26,hlo8(0x0)
 2872 16fc B0E0      		ldi r27,hhi8(0x0)
 2873 16fe 8093 0000 		sts dbl_PWM2_LEVEL,r24
 2874 1702 9093 0000 		sts (dbl_PWM2_LEVEL)+1,r25
 2875 1706 A093 0000 		sts (dbl_PWM2_LEVEL)+2,r26
 2876 170a B093 0000 		sts (dbl_PWM2_LEVEL)+3,r27
 2877 170e 1092 0000 		sts ui8_PWM2_LEVEL,__zero_reg__
 2878 1712 6091 0000 		lds r22,ui8_PWM2_LEVEL
 2879 1716 82E0      		ldi r24,lo8(2)
 2880 1718 0E94 0000 		call PWM_send
 2881 171c 1092 0000 		sts (ui16_M12_CNT)+1,__zero_reg__
 2882 1720 1092 0000 		sts ui16_M12_CNT,__zero_reg__
 2883 1724 00C0      		rjmp .L290
 2884               	.L296:
 2885 1726 8091 0000 		lds r24,ui16_M12_CNT
 2886 172a 9091 0000 		lds r25,(ui16_M12_CNT)+1
 2887 172e 0196      		adiw r24,1
 2888 1730 9093 0000 		sts (ui16_M12_CNT)+1,r25
 2889 1734 8093 0000 		sts ui16_M12_CNT,r24
 2890 1738 8091 0000 		lds r24,ui16_M12_CNT
 2891 173c 9091 0000 		lds r25,(ui16_M12_CNT)+1
 2892 1740 0F97      		sbiw r24,15
 2893 1742 00F4      		brsh .+2
 2894 1744 00C0      		rjmp .L290
 2895 1746 1092 0000 		sts (ui16_M12_CNT)+1,__zero_reg__
 2896 174a 1092 0000 		sts ui16_M12_CNT,__zero_reg__
 2897 174e 6091 0000 		lds r22,dbl_PWM1_LEVEL
 2898 1752 7091 0000 		lds r23,(dbl_PWM1_LEVEL)+1
 2899 1756 8091 0000 		lds r24,(dbl_PWM1_LEVEL)+2
 2900 175a 9091 0000 		lds r25,(dbl_PWM1_LEVEL)+3
 2901 175e 2091 0000 		lds r18,dbl_PWM1_Step_Stop_Discret
 2902 1762 3091 0000 		lds r19,(dbl_PWM1_Step_Stop_Discret)+1
 2903 1766 4091 0000 		lds r20,(dbl_PWM1_Step_Stop_Discret)+2
 2904 176a 5091 0000 		lds r21,(dbl_PWM1_Step_Stop_Discret)+3
 2905 176e 0E94 0000 		call __subsf3
 2906 1772 6093 0000 		sts dbl_PWM1_LEVEL,r22
 2907 1776 7093 0000 		sts (dbl_PWM1_LEVEL)+1,r23
 2908 177a 8093 0000 		sts (dbl_PWM1_LEVEL)+2,r24
 2909 177e 9093 0000 		sts (dbl_PWM1_LEVEL)+3,r25
 2910 1782 6091 0000 		lds r22,dbl_PWM1_LEVEL
 2911 1786 7091 0000 		lds r23,(dbl_PWM1_LEVEL)+1
 2912 178a 8091 0000 		lds r24,(dbl_PWM1_LEVEL)+2
 2913 178e 9091 0000 		lds r25,(dbl_PWM1_LEVEL)+3
 2914 1792 0E94 0000 		call __fixunssfsi
 2915 1796 6093 0000 		sts ui8_PWM1_LEVEL,r22
 2916 179a 8091 0000 		lds r24,ui8_PWM1_LEVEL
 2917 179e 8F3F      		cpi r24,lo8(-1)
 2918 17a0 01F0      		breq .+2
 2919 17a2 00C0      		rjmp .L300
 2920 17a4 8091 0000 		lds r24,ui8_PWM1_LEVEL
 2921 17a8 8150      		subi r24,lo8(-(-1))
 2922 17aa 8093 0000 		sts ui8_PWM1_LEVEL,r24
 2923 17ae 00C0      		rjmp .L300
 2924               	.L297:
 2925 17b0 6091 0000 		lds r22,dbl_PWM1_LEVEL
 2926 17b4 7091 0000 		lds r23,(dbl_PWM1_LEVEL)+1
 2927 17b8 8091 0000 		lds r24,(dbl_PWM1_LEVEL)+2
 2928 17bc 9091 0000 		lds r25,(dbl_PWM1_LEVEL)+3
 2929 17c0 2091 0000 		lds r18,dbl_PWM1_Step_Stop_Discret
 2930 17c4 3091 0000 		lds r19,(dbl_PWM1_Step_Stop_Discret)+1
 2931 17c8 4091 0000 		lds r20,(dbl_PWM1_Step_Stop_Discret)+2
 2932 17cc 5091 0000 		lds r21,(dbl_PWM1_Step_Stop_Discret)+3
 2933 17d0 0E94 0000 		call __subsf3
 2934 17d4 6093 0000 		sts dbl_PWM1_LEVEL,r22
 2935 17d8 7093 0000 		sts (dbl_PWM1_LEVEL)+1,r23
 2936 17dc 8093 0000 		sts (dbl_PWM1_LEVEL)+2,r24
 2937 17e0 9093 0000 		sts (dbl_PWM1_LEVEL)+3,r25
 2938 17e4 6091 0000 		lds r22,dbl_PWM1_LEVEL
 2939 17e8 7091 0000 		lds r23,(dbl_PWM1_LEVEL)+1
 2940 17ec 8091 0000 		lds r24,(dbl_PWM1_LEVEL)+2
 2941 17f0 9091 0000 		lds r25,(dbl_PWM1_LEVEL)+3
 2942 17f4 0E94 0000 		call __fixunssfsi
 2943 17f8 6093 0000 		sts ui8_PWM1_LEVEL,r22
 2944 17fc 9091 0000 		lds r25,ui8_PWM1_LEVEL
 2945 1800 8091 0000 		lds r24,ui8_PWM1_Start_Discret
 2946 1804 8917      		cp r24,r25
 2947 1806 00F0      		brlo .L300
 2948 1808 80E0      		ldi r24,lo8(0x0)
 2949 180a 90E0      		ldi r25,hi8(0x0)
 2950 180c A0E0      		ldi r26,hlo8(0x0)
 2951 180e B0E0      		ldi r27,hhi8(0x0)
 2952 1810 8093 0000 		sts dbl_PWM1_LEVEL,r24
 2953 1814 9093 0000 		sts (dbl_PWM1_LEVEL)+1,r25
 2954 1818 A093 0000 		sts (dbl_PWM1_LEVEL)+2,r26
 2955 181c B093 0000 		sts (dbl_PWM1_LEVEL)+3,r27
 2956 1820 1092 0000 		sts ui8_PWM1_LEVEL,__zero_reg__
 2957               	.L300:
 2958 1824 6091 0000 		lds r22,ui8_PWM1_LEVEL
 2959 1828 81E0      		ldi r24,lo8(1)
 2960 182a 0E94 0000 		call PWM_send
 2961 182e 00C0      		rjmp .L290
 2962               	.L318:
 2963 1830 8091 0000 		lds r24,STATUS
 2964 1834 8F77      		andi r24,lo8(127)
 2965 1836 8093 0000 		sts STATUS,r24
 2966               	.L290:
 2967 183a 8091 0000 		lds r24,STATUS_DS
 2968 183e 8130      		cpi r24,lo8(1)
 2969 1840 01F0      		breq .+2
 2970 1842 00C0      		rjmp .L301
 2971 1844 8091 0000 		lds r24,STATUS_TC1
 2972 1848 8130      		cpi r24,lo8(1)
 2973 184a 01F0      		breq .+2
 2974 184c 00C0      		rjmp .L301
 2975 184e 0091 0000 		lds r16,VALUE_TC1
 2976 1852 1091 0000 		lds r17,(VALUE_TC1)+1
 2977 1856 6091 0000 		lds r22,DS_Temp
 2978 185a 7091 0000 		lds r23,(DS_Temp)+1
 2979 185e 8091 0000 		lds r24,(DS_Temp)+2
 2980 1862 9091 0000 		lds r25,(DS_Temp)+3
 2981 1866 0E94 0000 		call __fixunssfsi
 2982 186a 6017      		cp r22,r16
 2983 186c 7107      		cpc r23,r17
 2984 186e 00F0      		brlo .+2
 2985 1870 00C0      		rjmp .L301
 2986 1872 E090 0000 		lds r14,VALUE_TC1
 2987 1876 F090 0000 		lds r15,(VALUE_TC1)+1
 2988 187a 6091 0000 		lds r22,DS_Temp
 2989 187e 7091 0000 		lds r23,(DS_Temp)+1
 2990 1882 8091 0000 		lds r24,(DS_Temp)+2
 2991 1886 9091 0000 		lds r25,(DS_Temp)+3
 2992 188a 0091 0000 		lds r16,SETVAL_DELTA_TEMP_SHUTDOWN
 2993 188e 0E94 0000 		call __fixunssfsi
 2994 1892 E61A      		sub r14,r22
 2995 1894 F70A      		sbc r15,r23
 2996 1896 10E0      		ldi r17,lo8(0)
 2997 1898 E016      		cp r14,r16
 2998 189a F106      		cpc r15,r17
 2999 189c 00F4      		brsh .+2
 3000 189e 00C0      		rjmp .L301
 3001 18a0 8091 0000 		lds r24,STATUS
 3002 18a4 84FD      		sbrc r24,4
 3003 18a6 00C0      		rjmp .L302
 3004 18a8 8091 0000 		lds r24,STATUS
 3005 18ac 8061      		ori r24,lo8(16)
 3006 18ae 8093 0000 		sts STATUS,r24
 3007               	.L302:
 3008 18b2 6091 0000 		lds r22,DS_Temp
 3009 18b6 7091 0000 		lds r23,(DS_Temp)+1
 3010 18ba 8091 0000 		lds r24,(DS_Temp)+2
 3011 18be 9091 0000 		lds r25,(DS_Temp)+3
 3012 18c2 0091 0000 		lds r16,SETVAL_TEMP_ROOM
 3013 18c6 F090 0000 		lds r15,SETVAL_DELTA_TEMP_ROOM
 3014 18ca C091 0000 		lds r28,VALUE_TC1
 3015 18ce D091 0000 		lds r29,(VALUE_TC1)+1
 3016 18d2 9090 0000 		lds r9,SETVAL_TEMP_TOP_OVEN
 3017 18d6 E090 0000 		lds r14,SETVAL_DELTA_TEMP_TOP_OVEN
 3018 18da A090 0000 		lds r10,DS_Temp
 3019 18de B090 0000 		lds r11,(DS_Temp)+1
 3020 18e2 C090 0000 		lds r12,(DS_Temp)+2
 3021 18e6 D090 0000 		lds r13,(DS_Temp)+3
 3022 18ea 5090 0000 		lds r5,SETVAL_TEMP_ROOM
 3023 18ee 6090 0000 		lds r6,VALUE_TC1
 3024 18f2 7090 0000 		lds r7,(VALUE_TC1)+1
 3025 18f6 8090 0000 		lds r8,SETVAL_TEMP_TOP_OVEN
 3026 18fa 0E94 0000 		call __fixunssfsi
 3027 18fe 70E0      		ldi r23,lo8(0)
 3028 1900 10E0      		ldi r17,lo8(0)
 3029 1902 0F19      		sub r16,r15
 3030 1904 1109      		sbc r17,__zero_reg__
 3031 1906 0617      		cp r16,r22
 3032 1908 1707      		cpc r17,r23
 3033 190a 04F0      		brlt .L303
 3034 190c 892D      		mov r24,r9
 3035 190e 90E0      		ldi r25,lo8(0)
 3036 1910 8E19      		sub r24,r14
 3037 1912 9109      		sbc r25,__zero_reg__
 3038 1914 8C17      		cp r24,r28
 3039 1916 9D07      		cpc r25,r29
 3040 1918 00F0      		brlo .L303
 3041 191a 8091 0000 		lds r24,ui8_PWM1_LEVEL
 3042 191e 8823      		tst r24
 3043 1920 01F4      		brne .L303
 3044 1922 8091 0000 		lds r24,STATUS
 3045 1926 86FD      		sbrc r24,6
 3046 1928 00C0      		rjmp .L303
 3047 192a 8091 0000 		lds r24,STATUS
 3048 192e 8F77      		andi r24,lo8(127)
 3049 1930 8093 0000 		sts STATUS,r24
 3050 1934 8091 0000 		lds r24,STATUS
 3051 1938 8064      		ori r24,lo8(64)
 3052 193a 8093 0000 		sts STATUS,r24
 3053               	.L303:
 3054 193e C601      		movw r24,r12
 3055 1940 B501      		movw r22,r10
 3056 1942 0E94 0000 		call __fixunssfsi
 3057 1946 6515      		cp r22,r5
 3058 1948 00F4      		brsh .L304
 3059 194a 882D      		mov r24,r8
 3060 194c 90E0      		ldi r25,lo8(0)
 3061 194e 6816      		cp r6,r24
 3062 1950 7906      		cpc r7,r25
 3063 1952 00F0      		brlo .L307
 3064               	.L304:
 3065 1954 8091 0000 		lds r24,ui8_PWM1_LEVEL
 3066 1958 8823      		tst r24
 3067 195a 01F0      		breq .L307
 3068 195c 8091 0000 		lds r24,STATUS
 3069 1960 87FD      		sbrc r24,7
 3070 1962 00C0      		rjmp .L307
 3071 1964 8091 0000 		lds r24,STATUS
 3072 1968 8F7B      		andi r24,lo8(-65)
 3073 196a 8093 0000 		sts STATUS,r24
 3074 196e 8091 0000 		lds r24,STATUS
 3075 1972 8068      		ori r24,lo8(-128)
 3076 1974 00C0      		rjmp .L315
 3077               	.L301:
 3078 1976 8091 0000 		lds r24,STATUS
 3079 197a 87FD      		sbrc r24,7
 3080 197c 00C0      		rjmp .L306
 3081 197e 8091 0000 		lds r24,ui8_PWM1_LEVEL
 3082 1982 8823      		tst r24
 3083 1984 01F0      		breq .L306
 3084 1986 8091 0000 		lds r24,STATUS
 3085 198a 8F7B      		andi r24,lo8(-65)
 3086 198c 8093 0000 		sts STATUS,r24
 3087 1990 8091 0000 		lds r24,STATUS
 3088 1994 8068      		ori r24,lo8(-128)
 3089 1996 8093 0000 		sts STATUS,r24
 3090               	.L306:
 3091 199a 8091 0000 		lds r24,STATUS
 3092 199e 84FF      		sbrs r24,4
 3093 19a0 00C0      		rjmp .L307
 3094 19a2 8091 0000 		lds r24,STATUS
 3095 19a6 8F7E      		andi r24,lo8(-17)
 3096               	.L315:
 3097 19a8 8093 0000 		sts STATUS,r24
 3098               	.L307:
 3099               	/* epilogue start */
 3100 19ac DF91      		pop r29
 3101 19ae CF91      		pop r28
 3102 19b0 1F91      		pop r17
 3103 19b2 0F91      		pop r16
 3104 19b4 FF90      		pop r15
 3105 19b6 EF90      		pop r14
 3106 19b8 DF90      		pop r13
 3107 19ba CF90      		pop r12
 3108 19bc BF90      		pop r11
 3109 19be AF90      		pop r10
 3110 19c0 9F90      		pop r9
 3111 19c2 8F90      		pop r8
 3112 19c4 7F90      		pop r7
 3113 19c6 6F90      		pop r6
 3114 19c8 5F90      		pop r5
 3115 19ca 0895      		ret
 3117               	.global	UpdateValuesFromEEPROM
 3119               	UpdateValuesFromEEPROM:
 3120               	/* prologue: function */
 3121               	/* frame size = 0 */
 3122 19cc 6091 0000 		lds r22,LED_LIGTH
 3123 19d0 80E0      		ldi r24,lo8(EE_LED_LIGTH)
 3124 19d2 90E0      		ldi r25,hi8(EE_LED_LIGTH)
 3125 19d4 0E94 0000 		call __eeupd_byte_m32
 3126 19d8 6091 0000 		lds r22,SETVAL_TEMP_ROOM
 3127 19dc 80E0      		ldi r24,lo8(EE_SETVAL_TEMP_ROOM)
 3128 19de 90E0      		ldi r25,hi8(EE_SETVAL_TEMP_ROOM)
 3129 19e0 0E94 0000 		call __eeupd_byte_m32
 3130 19e4 6091 0000 		lds r22,SETVAL_DELTA_TEMP_ROOM
 3131 19e8 80E0      		ldi r24,lo8(EE_SETVAL_DELTA_TEMP_ROOM)
 3132 19ea 90E0      		ldi r25,hi8(EE_SETVAL_DELTA_TEMP_ROOM)
 3133 19ec 0E94 0000 		call __eeupd_byte_m32
 3134 19f0 6091 0000 		lds r22,SETVAL_TEMP_TOP_OVEN
 3135 19f4 80E0      		ldi r24,lo8(EE_SETVAL_TEMP_TOP_OVEN)
 3136 19f6 90E0      		ldi r25,hi8(EE_SETVAL_TEMP_TOP_OVEN)
 3137 19f8 0E94 0000 		call __eeupd_byte_m32
 3138 19fc 6091 0000 		lds r22,SETVAL_DELTA_TEMP_TOP_OVEN
 3139 1a00 80E0      		ldi r24,lo8(EE_SETVAL_DELTA_TEMP_TOP_OVEN)
 3140 1a02 90E0      		ldi r25,hi8(EE_SETVAL_DELTA_TEMP_TOP_OVEN)
 3141 1a04 0E94 0000 		call __eeupd_byte_m32
 3142 1a08 6091 0000 		lds r22,SETVAL_TEMP_PYROLYS_START
 3143 1a0c 7091 0000 		lds r23,(SETVAL_TEMP_PYROLYS_START)+1
 3144 1a10 80E0      		ldi r24,lo8(EE_SETVAL_TEMP_PYROLYS_START)
 3145 1a12 90E0      		ldi r25,hi8(EE_SETVAL_TEMP_PYROLYS_START)
 3146 1a14 0E94 0000 		call __eeupd_word_m32
 3147 1a18 6091 0000 		lds r22,SETVAL_TEMP_PYROLYS_FULL
 3148 1a1c 7091 0000 		lds r23,(SETVAL_TEMP_PYROLYS_FULL)+1
 3149 1a20 80E0      		ldi r24,lo8(EE_SETVAL_TEMP_PYROLYS_FULL)
 3150 1a22 90E0      		ldi r25,hi8(EE_SETVAL_TEMP_PYROLYS_FULL)
 3151 1a24 0E94 0000 		call __eeupd_word_m32
 3152 1a28 6091 0000 		lds r22,SETVAL_DELTA_TEMP_SHUTDOWN
 3153 1a2c 80E0      		ldi r24,lo8(EE_SETVAL_DELTA_TEMP_SHUTDOWN)
 3154 1a2e 90E0      		ldi r25,hi8(EE_SETVAL_DELTA_TEMP_SHUTDOWN)
 3155 1a30 0E94 0000 		call __eeupd_byte_m32
 3156 1a34 6091 0000 		lds r22,SETVAL_PWM_FAN1_START
 3157 1a38 80E0      		ldi r24,lo8(EE_SETVAL_PWM_FAN1_START)
 3158 1a3a 90E0      		ldi r25,hi8(EE_SETVAL_PWM_FAN1_START)
 3159 1a3c 0E94 0000 		call __eeupd_byte_m32
 3160 1a40 6091 0000 		lds r22,SETVAL_PWM_FAN2_START
 3161 1a44 80E0      		ldi r24,lo8(EE_SETVAL_PWM_FAN2_START)
 3162 1a46 90E0      		ldi r25,hi8(EE_SETVAL_PWM_FAN2_START)
 3163 1a48 0E94 0000 		call __eeupd_byte_m32
 3164 1a4c 6091 0000 		lds r22,SETVAL_PWM_FAN3_START
 3165 1a50 80E0      		ldi r24,lo8(EE_SETVAL_PWM_FAN3_START)
 3166 1a52 90E0      		ldi r25,hi8(EE_SETVAL_PWM_FAN3_START)
 3167 1a54 0E94 0000 		call __eeupd_byte_m32
 3168 1a58 6091 0000 		lds r22,SETVAL_M1_START_PERIOD
 3169 1a5c 80E0      		ldi r24,lo8(EE_SETVAL_M1_START_PERIOD)
 3170 1a5e 90E0      		ldi r25,hi8(EE_SETVAL_M1_START_PERIOD)
 3171 1a60 0E94 0000 		call __eeupd_byte_m32
 3172 1a64 6091 0000 		lds r22,SETVAL_M1_STOP_PERIOD
 3173 1a68 80E0      		ldi r24,lo8(EE_SETVAL_M1_STOP_PERIOD)
 3174 1a6a 90E0      		ldi r25,hi8(EE_SETVAL_M1_STOP_PERIOD)
 3175 1a6c 0E94 0000 		call __eeupd_byte_m32
 3176               	/* epilogue start */
 3177 1a70 0895      		ret
 3179               	.global	LoadValuesFromEEPROM
 3181               	LoadValuesFromEEPROM:
 3182               	/* prologue: function */
 3183               	/* frame size = 0 */
 3184 1a72 80E0      		ldi r24,lo8(EE_LED_LIGTH)
 3185 1a74 90E0      		ldi r25,hi8(EE_LED_LIGTH)
 3186 1a76 0E94 0000 		call __eerd_byte_m32
 3187 1a7a 8093 0000 		sts LED_LIGTH,r24
 3188 1a7e 80E0      		ldi r24,lo8(EE_SETVAL_TEMP_ROOM)
 3189 1a80 90E0      		ldi r25,hi8(EE_SETVAL_TEMP_ROOM)
 3190 1a82 0E94 0000 		call __eerd_byte_m32
 3191 1a86 8093 0000 		sts SETVAL_TEMP_ROOM,r24
 3192 1a8a 80E0      		ldi r24,lo8(EE_SETVAL_DELTA_TEMP_ROOM)
 3193 1a8c 90E0      		ldi r25,hi8(EE_SETVAL_DELTA_TEMP_ROOM)
 3194 1a8e 0E94 0000 		call __eerd_byte_m32
 3195 1a92 8093 0000 		sts SETVAL_DELTA_TEMP_ROOM,r24
 3196 1a96 80E0      		ldi r24,lo8(EE_SETVAL_TEMP_TOP_OVEN)
 3197 1a98 90E0      		ldi r25,hi8(EE_SETVAL_TEMP_TOP_OVEN)
 3198 1a9a 0E94 0000 		call __eerd_byte_m32
 3199 1a9e 8093 0000 		sts SETVAL_TEMP_TOP_OVEN,r24
 3200 1aa2 80E0      		ldi r24,lo8(EE_SETVAL_DELTA_TEMP_TOP_OVEN)
 3201 1aa4 90E0      		ldi r25,hi8(EE_SETVAL_DELTA_TEMP_TOP_OVEN)
 3202 1aa6 0E94 0000 		call __eerd_byte_m32
 3203 1aaa 8093 0000 		sts SETVAL_DELTA_TEMP_TOP_OVEN,r24
 3204 1aae 80E0      		ldi r24,lo8(EE_SETVAL_TEMP_PYROLYS_START)
 3205 1ab0 90E0      		ldi r25,hi8(EE_SETVAL_TEMP_PYROLYS_START)
 3206 1ab2 0E94 0000 		call __eerd_word_m32
 3207 1ab6 9093 0000 		sts (SETVAL_TEMP_PYROLYS_START)+1,r25
 3208 1aba 8093 0000 		sts SETVAL_TEMP_PYROLYS_START,r24
 3209 1abe 80E0      		ldi r24,lo8(EE_SETVAL_TEMP_PYROLYS_FULL)
 3210 1ac0 90E0      		ldi r25,hi8(EE_SETVAL_TEMP_PYROLYS_FULL)
 3211 1ac2 0E94 0000 		call __eerd_word_m32
 3212 1ac6 9093 0000 		sts (SETVAL_TEMP_PYROLYS_FULL)+1,r25
 3213 1aca 8093 0000 		sts SETVAL_TEMP_PYROLYS_FULL,r24
 3214 1ace 80E0      		ldi r24,lo8(EE_SETVAL_DELTA_TEMP_SHUTDOWN)
 3215 1ad0 90E0      		ldi r25,hi8(EE_SETVAL_DELTA_TEMP_SHUTDOWN)
 3216 1ad2 0E94 0000 		call __eerd_byte_m32
 3217 1ad6 8093 0000 		sts SETVAL_DELTA_TEMP_SHUTDOWN,r24
 3218 1ada 80E0      		ldi r24,lo8(EE_SETVAL_PWM_FAN1_START)
 3219 1adc 90E0      		ldi r25,hi8(EE_SETVAL_PWM_FAN1_START)
 3220 1ade 0E94 0000 		call __eerd_byte_m32
 3221 1ae2 8093 0000 		sts SETVAL_PWM_FAN1_START,r24
 3222 1ae6 80E0      		ldi r24,lo8(EE_SETVAL_PWM_FAN2_START)
 3223 1ae8 90E0      		ldi r25,hi8(EE_SETVAL_PWM_FAN2_START)
 3224 1aea 0E94 0000 		call __eerd_byte_m32
 3225 1aee 8093 0000 		sts SETVAL_PWM_FAN2_START,r24
 3226 1af2 80E0      		ldi r24,lo8(EE_SETVAL_PWM_FAN3_START)
 3227 1af4 90E0      		ldi r25,hi8(EE_SETVAL_PWM_FAN3_START)
 3228 1af6 0E94 0000 		call __eerd_byte_m32
 3229 1afa 8093 0000 		sts SETVAL_PWM_FAN3_START,r24
 3230 1afe 80E0      		ldi r24,lo8(EE_SETVAL_M1_START_PERIOD)
 3231 1b00 90E0      		ldi r25,hi8(EE_SETVAL_M1_START_PERIOD)
 3232 1b02 0E94 0000 		call __eerd_byte_m32
 3233 1b06 8093 0000 		sts SETVAL_M1_START_PERIOD,r24
 3234 1b0a 80E0      		ldi r24,lo8(EE_SETVAL_M1_STOP_PERIOD)
 3235 1b0c 90E0      		ldi r25,hi8(EE_SETVAL_M1_STOP_PERIOD)
 3236 1b0e 0E94 0000 		call __eerd_byte_m32
 3237 1b12 8093 0000 		sts SETVAL_M1_STOP_PERIOD,r24
 3238               	/* epilogue start */
 3239 1b16 0895      		ret
 3241               	.global	main
 3243               	main:
 3244               	/* prologue: function */
 3245               	/* frame size = 0 */
 3246 1b18 0E94 0000 		call LoadValuesFromEEPROM
 3247 1b1c 0E94 0000 		call CalculateCoefficients
 3248 1b20 0E94 0000 		call init
 3249 1b24 0E94 0000 		call LCD_init
 3250 1b28 0E94 0000 		call DS18B20_convertTemp
 3251 1b2c 88E8      		ldi r24,lo8(5000)
 3252 1b2e 93E1      		ldi r25,hi8(5000)
 3253 1b30 28EC      		ldi r18,lo8(200)
 3254 1b32 30E0      		ldi r19,hi8(200)
 3255               	.L324:
 3256 1b34 F901      		movw r30,r18
 3257               	/* #APP */
 3258               	 ;  105 "c:/winavr/lib/gcc/../../avr/include/util/delay_basic.h" 1
 3259 1b36 3197      		1: sbiw r30,1
 3260 1b38 01F4      		brne 1b
 3261               	 ;  0 "" 2
 3262               	/* #NOAPP */
 3263 1b3a 0197      		sbiw r24,1
 3264 1b3c 01F4      		brne .L324
 3265 1b3e 81E0      		ldi r24,lo8(1)
 3266 1b40 0E94 0000 		call LCD_clear
 3267 1b44 88E8      		ldi r24,lo8(5000)
 3268 1b46 93E1      		ldi r25,hi8(5000)
 3269 1b48 28EC      		ldi r18,lo8(200)
 3270 1b4a 30E0      		ldi r19,hi8(200)
 3271               	.L325:
 3272 1b4c F901      		movw r30,r18
 3273               	/* #APP */
 3274               	 ;  105 "c:/winavr/lib/gcc/../../avr/include/util/delay_basic.h" 1
 3275 1b4e 3197      		1: sbiw r30,1
 3276 1b50 01F4      		brne 1b
 3277               	 ;  0 "" 2
 3278               	/* #NOAPP */
 3279 1b52 0197      		sbiw r24,1
 3280 1b54 01F4      		brne .L325
 3281 1b56 80E0      		ldi r24,lo8(0)
 3282 1b58 0E94 0000 		call LCD_clear
 3283 1b5c 88E8      		ldi r24,lo8(5000)
 3284 1b5e 93E1      		ldi r25,hi8(5000)
 3285 1b60 28EC      		ldi r18,lo8(200)
 3286 1b62 30E0      		ldi r19,hi8(200)
 3287               	.L326:
 3288 1b64 F901      		movw r30,r18
 3289               	/* #APP */
 3290               	 ;  105 "c:/winavr/lib/gcc/../../avr/include/util/delay_basic.h" 1
 3291 1b66 3197      		1: sbiw r30,1
 3292 1b68 01F4      		brne 1b
 3293               	 ;  0 "" 2
 3294               	/* #NOAPP */
 3295 1b6a 0197      		sbiw r24,1
 3296 1b6c 01F4      		brne .L326
 3297               	.L345:
 3298 1b6e 0E94 0000 		call CheckButton
 3299 1b72 8091 0000 		lds r24,STATUS
 3300 1b76 81FF      		sbrs r24,1
 3301 1b78 00C0      		rjmp .L327
 3302 1b7a 0E94 0000 		call ExecuteButton
 3303 1b7e 8091 0000 		lds r24,STATUS
 3304 1b82 8D7F      		andi r24,lo8(-3)
 3305 1b84 8093 0000 		sts STATUS,r24
 3306               	.L327:
 3307 1b88 8091 0000 		lds r24,STATUS
 3308 1b8c 80FF      		sbrs r24,0
 3309 1b8e 00C0      		rjmp .L345
 3310 1b90 8091 0000 		lds r24,STATUS
 3311 1b94 84FD      		sbrc r24,4
 3312 1b96 00C0      		rjmp .L329
 3313 1b98 8091 0000 		lds r24,STATUS
 3314 1b9c 85FF      		sbrs r24,5
 3315 1b9e 00C0      		rjmp .L330
 3316               	.L329:
 3317 1ba0 C398      		cbi 56-32,3
 3318 1ba2 00C0      		rjmp .L331
 3319               	.L330:
 3320 1ba4 C39A      		sbi 56-32,3
 3321               	.L331:
 3322 1ba6 81E0      		ldi r24,lo8(1)
 3323 1ba8 0E94 0000 		call ReadMAX6675
 3324 1bac 82E0      		ldi r24,lo8(2)
 3325 1bae 0E94 0000 		call ReadMAX6675
 3326 1bb2 0E94 0000 		call DS18B20_getTemp
 3327 1bb6 0E94 0000 		call DS18B20_convertTemp
 3328 1bba 0E94 0000 		call Work_T12_M12
 3329 1bbe 0E94 0000 		call Work_T3_M3
 3330 1bc2 8091 0000 		lds r24,STATUS
 3331 1bc6 83FF      		sbrs r24,3
 3332 1bc8 00C0      		rjmp .L335
 3333               	.L332:
 3334 1bca 8091 0000 		lds r24,CountMUL_MENU_WAIT
 3335 1bce 8150      		subi r24,lo8(-(-1))
 3336 1bd0 8093 0000 		sts CountMUL_MENU_WAIT,r24
 3337 1bd4 8091 0000 		lds r24,CountMUL_MENU_WAIT
 3338 1bd8 8823      		tst r24
 3339 1bda 01F4      		brne .L333
 3340 1bdc 8091 0000 		lds r24,STATUS
 3341 1be0 877F      		andi r24,lo8(-9)
 3342 1be2 8093 0000 		sts STATUS,r24
 3343 1be6 80E0      		ldi r24,lo8(0)
 3344 1be8 0E94 0000 		call LCD_clear
 3345 1bec 0E94 0000 		call UpdateValuesFromEEPROM
 3346 1bf0 0E94 0000 		call CalculateCoefficients
 3347 1bf4 8091 0000 		lds r24,LED_LIGTH
 3348 1bf8 8823      		tst r24
 3349 1bfa 01F0      		breq .L334
 3350 1bfc 9698      		cbi 50-32,6
 3351 1bfe 00C0      		rjmp .L335
 3352               	.L334:
 3353 1c00 969A      		sbi 50-32,6
 3354               	.L335:
 3355 1c02 0E94 0000 		call OutInfoToLCD
 3356               	.L333:
 3357 1c06 8091 0000 		lds r24,STATUS
 3358 1c0a 84FD      		sbrc r24,4
 3359 1c0c 00C0      		rjmp .L336
 3360 1c0e 8091 0000 		lds r24,STATUS
 3361 1c12 85FF      		sbrs r24,5
 3362 1c14 00C0      		rjmp .L337
 3363               	.L336:
 3364 1c16 C39A      		sbi 56-32,3
 3365 1c18 00C0      		rjmp .L338
 3366               	.L337:
 3367 1c1a C398      		cbi 56-32,3
 3368               	.L338:
 3369 1c1c 8091 0000 		lds r24,STATUS
 3370 1c20 8E7F      		andi r24,lo8(-2)
 3371 1c22 8093 0000 		sts STATUS,r24
 3372 1c26 00C0      		rjmp .L345
 3374               	.global	Font_6x8_Data
 3375               		.section	.progmem.data,"a",@progbits
 3378               	Font_6x8_Data:
 3379 0000 00        		.byte	0
 3380 0001 00        		.byte	0
 3381 0002 00        		.byte	0
 3382 0003 00        		.byte	0
 3383 0004 00        		.byte	0
 3384 0005 00        		.byte	0
 3385 0006 00        		.byte	0
 3386 0007 3E        		.byte	62
 3387 0008 45        		.byte	69
 3388 0009 51        		.byte	81
 3389 000a 45        		.byte	69
 3390 000b 3E        		.byte	62
 3391 000c 00        		.byte	0
 3392 000d 3E        		.byte	62
 3393 000e 6B        		.byte	107
 3394 000f 6F        		.byte	111
 3395 0010 6B        		.byte	107
 3396 0011 3E        		.byte	62
 3397 0012 00        		.byte	0
 3398 0013 1C        		.byte	28
 3399 0014 3E        		.byte	62
 3400 0015 7C        		.byte	124
 3401 0016 3E        		.byte	62
 3402 0017 1C        		.byte	28
 3403 0018 00        		.byte	0
 3404 0019 18        		.byte	24
 3405 001a 3C        		.byte	60
 3406 001b 7E        		.byte	126
 3407 001c 3C        		.byte	60
 3408 001d 18        		.byte	24
 3409 001e 00        		.byte	0
 3410 001f 30        		.byte	48
 3411 0020 36        		.byte	54
 3412 0021 7F        		.byte	127
 3413 0022 36        		.byte	54
 3414 0023 30        		.byte	48
 3415 0024 00        		.byte	0
 3416 0025 18        		.byte	24
 3417 0026 5C        		.byte	92
 3418 0027 7E        		.byte	126
 3419 0028 5C        		.byte	92
 3420 0029 18        		.byte	24
 3421 002a 00        		.byte	0
 3422 002b 00        		.byte	0
 3423 002c 18        		.byte	24
 3424 002d 18        		.byte	24
 3425 002e 00        		.byte	0
 3426 002f 00        		.byte	0
 3427 0030 FF        		.byte	-1
 3428 0031 FF        		.byte	-1
 3429 0032 E7        		.byte	-25
 3430 0033 E7        		.byte	-25
 3431 0034 FF        		.byte	-1
 3432 0035 FF        		.byte	-1
 3433 0036 00        		.byte	0
 3434 0037 3C        		.byte	60
 3435 0038 24        		.byte	36
 3436 0039 24        		.byte	36
 3437 003a 3C        		.byte	60
 3438 003b 00        		.byte	0
 3439 003c FF        		.byte	-1
 3440 003d C3        		.byte	-61
 3441 003e DB        		.byte	-37
 3442 003f DB        		.byte	-37
 3443 0040 C3        		.byte	-61
 3444 0041 FF        		.byte	-1
 3445 0042 00        		.byte	0
 3446 0043 30        		.byte	48
 3447 0044 48        		.byte	72
 3448 0045 4A        		.byte	74
 3449 0046 36        		.byte	54
 3450 0047 0E        		.byte	14
 3451 0048 00        		.byte	0
 3452 0049 06        		.byte	6
 3453 004a 29        		.byte	41
 3454 004b 79        		.byte	121
 3455 004c 29        		.byte	41
 3456 004d 06        		.byte	6
 3457 004e 00        		.byte	0
 3458 004f 60        		.byte	96
 3459 0050 70        		.byte	112
 3460 0051 3F        		.byte	63
 3461 0052 02        		.byte	2
 3462 0053 04        		.byte	4
 3463 0054 00        		.byte	0
 3464 0055 60        		.byte	96
 3465 0056 7E        		.byte	126
 3466 0057 0A        		.byte	10
 3467 0058 35        		.byte	53
 3468 0059 3F        		.byte	63
 3469 005a 00        		.byte	0
 3470 005b 2A        		.byte	42
 3471 005c 1C        		.byte	28
 3472 005d 36        		.byte	54
 3473 005e 1C        		.byte	28
 3474 005f 2A        		.byte	42
 3475 0060 00        		.byte	0
 3476 0061 00        		.byte	0
 3477 0062 7F        		.byte	127
 3478 0063 3E        		.byte	62
 3479 0064 1C        		.byte	28
 3480 0065 08        		.byte	8
 3481 0066 00        		.byte	0
 3482 0067 08        		.byte	8
 3483 0068 1C        		.byte	28
 3484 0069 3E        		.byte	62
 3485 006a 7F        		.byte	127
 3486 006b 00        		.byte	0
 3487 006c 00        		.byte	0
 3488 006d 14        		.byte	20
 3489 006e 36        		.byte	54
 3490 006f 7F        		.byte	127
 3491 0070 36        		.byte	54
 3492 0071 14        		.byte	20
 3493 0072 00        		.byte	0
 3494 0073 00        		.byte	0
 3495 0074 5F        		.byte	95
 3496 0075 00        		.byte	0
 3497 0076 5F        		.byte	95
 3498 0077 00        		.byte	0
 3499 0078 00        		.byte	0
 3500 0079 06        		.byte	6
 3501 007a 09        		.byte	9
 3502 007b 7F        		.byte	127
 3503 007c 01        		.byte	1
 3504 007d 7F        		.byte	127
 3505 007e 00        		.byte	0
 3506 007f 22        		.byte	34
 3507 0080 4D        		.byte	77
 3508 0081 55        		.byte	85
 3509 0082 59        		.byte	89
 3510 0083 22        		.byte	34
 3511 0084 00        		.byte	0
 3512 0085 60        		.byte	96
 3513 0086 60        		.byte	96
 3514 0087 60        		.byte	96
 3515 0088 60        		.byte	96
 3516 0089 00        		.byte	0
 3517 008a 00        		.byte	0
 3518 008b 14        		.byte	20
 3519 008c B6        		.byte	-74
 3520 008d FF        		.byte	-1
 3521 008e B6        		.byte	-74
 3522 008f 14        		.byte	20
 3523 0090 00        		.byte	0
 3524 0091 04        		.byte	4
 3525 0092 06        		.byte	6
 3526 0093 7F        		.byte	127
 3527 0094 06        		.byte	6
 3528 0095 04        		.byte	4
 3529 0096 00        		.byte	0
 3530 0097 10        		.byte	16
 3531 0098 30        		.byte	48
 3532 0099 7F        		.byte	127
 3533 009a 30        		.byte	48
 3534 009b 10        		.byte	16
 3535 009c 00        		.byte	0
 3536 009d 08        		.byte	8
 3537 009e 08        		.byte	8
 3538 009f 3E        		.byte	62
 3539 00a0 1C        		.byte	28
 3540 00a1 08        		.byte	8
 3541 00a2 00        		.byte	0
 3542 00a3 08        		.byte	8
 3543 00a4 1C        		.byte	28
 3544 00a5 3E        		.byte	62
 3545 00a6 08        		.byte	8
 3546 00a7 08        		.byte	8
 3547 00a8 00        		.byte	0
 3548 00a9 78        		.byte	120
 3549 00aa 40        		.byte	64
 3550 00ab 40        		.byte	64
 3551 00ac 40        		.byte	64
 3552 00ad 40        		.byte	64
 3553 00ae 00        		.byte	0
 3554 00af 08        		.byte	8
 3555 00b0 3E        		.byte	62
 3556 00b1 08        		.byte	8
 3557 00b2 3E        		.byte	62
 3558 00b3 08        		.byte	8
 3559 00b4 00        		.byte	0
 3560 00b5 30        		.byte	48
 3561 00b6 3C        		.byte	60
 3562 00b7 3F        		.byte	63
 3563 00b8 3C        		.byte	60
 3564 00b9 30        		.byte	48
 3565 00ba 00        		.byte	0
 3566 00bb 03        		.byte	3
 3567 00bc 0F        		.byte	15
 3568 00bd 3F        		.byte	63
 3569 00be 0F        		.byte	15
 3570 00bf 03        		.byte	3
 3571 00c0 00        		.byte	0
 3572 00c1 00        		.byte	0
 3573 00c2 00        		.byte	0
 3574 00c3 00        		.byte	0
 3575 00c4 00        		.byte	0
 3576 00c5 00        		.byte	0
 3577 00c6 00        		.byte	0
 3578 00c7 00        		.byte	0
 3579 00c8 06        		.byte	6
 3580 00c9 5F        		.byte	95
 3581 00ca 06        		.byte	6
 3582 00cb 00        		.byte	0
 3583 00cc 00        		.byte	0
 3584 00cd 07        		.byte	7
 3585 00ce 03        		.byte	3
 3586 00cf 00        		.byte	0
 3587 00d0 07        		.byte	7
 3588 00d1 03        		.byte	3
 3589 00d2 00        		.byte	0
 3590 00d3 24        		.byte	36
 3591 00d4 7E        		.byte	126
 3592 00d5 24        		.byte	36
 3593 00d6 7E        		.byte	126
 3594 00d7 24        		.byte	36
 3595 00d8 00        		.byte	0
 3596 00d9 24        		.byte	36
 3597 00da 2B        		.byte	43
 3598 00db 6A        		.byte	106
 3599 00dc 12        		.byte	18
 3600 00dd 00        		.byte	0
 3601 00de 00        		.byte	0
 3602 00df 63        		.byte	99
 3603 00e0 13        		.byte	19
 3604 00e1 08        		.byte	8
 3605 00e2 64        		.byte	100
 3606 00e3 63        		.byte	99
 3607 00e4 00        		.byte	0
 3608 00e5 36        		.byte	54
 3609 00e6 49        		.byte	73
 3610 00e7 56        		.byte	86
 3611 00e8 20        		.byte	32
 3612 00e9 50        		.byte	80
 3613 00ea 00        		.byte	0
 3614 00eb 00        		.byte	0
 3615 00ec 07        		.byte	7
 3616 00ed 03        		.byte	3
 3617 00ee 00        		.byte	0
 3618 00ef 00        		.byte	0
 3619 00f0 00        		.byte	0
 3620 00f1 00        		.byte	0
 3621 00f2 3E        		.byte	62
 3622 00f3 41        		.byte	65
 3623 00f4 00        		.byte	0
 3624 00f5 00        		.byte	0
 3625 00f6 00        		.byte	0
 3626 00f7 00        		.byte	0
 3627 00f8 41        		.byte	65
 3628 00f9 3E        		.byte	62
 3629 00fa 00        		.byte	0
 3630 00fb 00        		.byte	0
 3631 00fc 00        		.byte	0
 3632 00fd 08        		.byte	8
 3633 00fe 3E        		.byte	62
 3634 00ff 1C        		.byte	28
 3635 0100 3E        		.byte	62
 3636 0101 08        		.byte	8
 3637 0102 00        		.byte	0
 3638 0103 08        		.byte	8
 3639 0104 08        		.byte	8
 3640 0105 3E        		.byte	62
 3641 0106 08        		.byte	8
 3642 0107 08        		.byte	8
 3643 0108 00        		.byte	0
 3644 0109 00        		.byte	0
 3645 010a E0        		.byte	-32
 3646 010b 60        		.byte	96
 3647 010c 00        		.byte	0
 3648 010d 00        		.byte	0
 3649 010e 00        		.byte	0
 3650 010f 08        		.byte	8
 3651 0110 08        		.byte	8
 3652 0111 08        		.byte	8
 3653 0112 08        		.byte	8
 3654 0113 08        		.byte	8
 3655 0114 00        		.byte	0
 3656 0115 00        		.byte	0
 3657 0116 60        		.byte	96
 3658 0117 60        		.byte	96
 3659 0118 00        		.byte	0
 3660 0119 00        		.byte	0
 3661 011a 00        		.byte	0
 3662 011b 20        		.byte	32
 3663 011c 10        		.byte	16
 3664 011d 08        		.byte	8
 3665 011e 04        		.byte	4
 3666 011f 02        		.byte	2
 3667 0120 00        		.byte	0
 3668 0121 3E        		.byte	62
 3669 0122 41        		.byte	65
 3670 0123 41        		.byte	65
 3671 0124 41        		.byte	65
 3672 0125 3E        		.byte	62
 3673 0126 00        		.byte	0
 3674 0127 00        		.byte	0
 3675 0128 42        		.byte	66
 3676 0129 7F        		.byte	127
 3677 012a 40        		.byte	64
 3678 012b 00        		.byte	0
 3679 012c 00        		.byte	0
 3680 012d 62        		.byte	98
 3681 012e 51        		.byte	81
 3682 012f 49        		.byte	73
 3683 0130 49        		.byte	73
 3684 0131 46        		.byte	70
 3685 0132 00        		.byte	0
 3686 0133 22        		.byte	34
 3687 0134 49        		.byte	73
 3688 0135 49        		.byte	73
 3689 0136 49        		.byte	73
 3690 0137 36        		.byte	54
 3691 0138 00        		.byte	0
 3692 0139 18        		.byte	24
 3693 013a 14        		.byte	20
 3694 013b 12        		.byte	18
 3695 013c 7F        		.byte	127
 3696 013d 10        		.byte	16
 3697 013e 00        		.byte	0
 3698 013f 2F        		.byte	47
 3699 0140 49        		.byte	73
 3700 0141 49        		.byte	73
 3701 0142 49        		.byte	73
 3702 0143 31        		.byte	49
 3703 0144 00        		.byte	0
 3704 0145 3C        		.byte	60
 3705 0146 4A        		.byte	74
 3706 0147 49        		.byte	73
 3707 0148 49        		.byte	73
 3708 0149 30        		.byte	48
 3709 014a 00        		.byte	0
 3710 014b 01        		.byte	1
 3711 014c 71        		.byte	113
 3712 014d 09        		.byte	9
 3713 014e 05        		.byte	5
 3714 014f 03        		.byte	3
 3715 0150 00        		.byte	0
 3716 0151 36        		.byte	54
 3717 0152 49        		.byte	73
 3718 0153 49        		.byte	73
 3719 0154 49        		.byte	73
 3720 0155 36        		.byte	54
 3721 0156 00        		.byte	0
 3722 0157 06        		.byte	6
 3723 0158 49        		.byte	73
 3724 0159 49        		.byte	73
 3725 015a 29        		.byte	41
 3726 015b 1E        		.byte	30
 3727 015c 00        		.byte	0
 3728 015d 00        		.byte	0
 3729 015e 6C        		.byte	108
 3730 015f 6C        		.byte	108
 3731 0160 00        		.byte	0
 3732 0161 00        		.byte	0
 3733 0162 00        		.byte	0
 3734 0163 00        		.byte	0
 3735 0164 EC        		.byte	-20
 3736 0165 6C        		.byte	108
 3737 0166 00        		.byte	0
 3738 0167 00        		.byte	0
 3739 0168 00        		.byte	0
 3740 0169 08        		.byte	8
 3741 016a 14        		.byte	20
 3742 016b 22        		.byte	34
 3743 016c 41        		.byte	65
 3744 016d 00        		.byte	0
 3745 016e 00        		.byte	0
 3746 016f 24        		.byte	36
 3747 0170 24        		.byte	36
 3748 0171 24        		.byte	36
 3749 0172 24        		.byte	36
 3750 0173 24        		.byte	36
 3751 0174 00        		.byte	0
 3752 0175 00        		.byte	0
 3753 0176 41        		.byte	65
 3754 0177 22        		.byte	34
 3755 0178 14        		.byte	20
 3756 0179 08        		.byte	8
 3757 017a 00        		.byte	0
 3758 017b 02        		.byte	2
 3759 017c 01        		.byte	1
 3760 017d 59        		.byte	89
 3761 017e 09        		.byte	9
 3762 017f 06        		.byte	6
 3763 0180 00        		.byte	0
 3764 0181 3E        		.byte	62
 3765 0182 41        		.byte	65
 3766 0183 5D        		.byte	93
 3767 0184 55        		.byte	85
 3768 0185 1E        		.byte	30
 3769 0186 00        		.byte	0
 3770 0187 7E        		.byte	126
 3771 0188 11        		.byte	17
 3772 0189 11        		.byte	17
 3773 018a 11        		.byte	17
 3774 018b 7E        		.byte	126
 3775 018c 00        		.byte	0
 3776 018d 7F        		.byte	127
 3777 018e 49        		.byte	73
 3778 018f 49        		.byte	73
 3779 0190 49        		.byte	73
 3780 0191 36        		.byte	54
 3781 0192 00        		.byte	0
 3782 0193 3E        		.byte	62
 3783 0194 41        		.byte	65
 3784 0195 41        		.byte	65
 3785 0196 41        		.byte	65
 3786 0197 22        		.byte	34
 3787 0198 00        		.byte	0
 3788 0199 7F        		.byte	127
 3789 019a 41        		.byte	65
 3790 019b 41        		.byte	65
 3791 019c 41        		.byte	65
 3792 019d 3E        		.byte	62
 3793 019e 00        		.byte	0
 3794 019f 7F        		.byte	127
 3795 01a0 49        		.byte	73
 3796 01a1 49        		.byte	73
 3797 01a2 49        		.byte	73
 3798 01a3 41        		.byte	65
 3799 01a4 00        		.byte	0
 3800 01a5 7F        		.byte	127
 3801 01a6 09        		.byte	9
 3802 01a7 09        		.byte	9
 3803 01a8 09        		.byte	9
 3804 01a9 01        		.byte	1
 3805 01aa 00        		.byte	0
 3806 01ab 3E        		.byte	62
 3807 01ac 41        		.byte	65
 3808 01ad 49        		.byte	73
 3809 01ae 49        		.byte	73
 3810 01af 7A        		.byte	122
 3811 01b0 00        		.byte	0
 3812 01b1 7F        		.byte	127
 3813 01b2 08        		.byte	8
 3814 01b3 08        		.byte	8
 3815 01b4 08        		.byte	8
 3816 01b5 7F        		.byte	127
 3817 01b6 00        		.byte	0
 3818 01b7 00        		.byte	0
 3819 01b8 41        		.byte	65
 3820 01b9 7F        		.byte	127
 3821 01ba 41        		.byte	65
 3822 01bb 00        		.byte	0
 3823 01bc 00        		.byte	0
 3824 01bd 30        		.byte	48
 3825 01be 40        		.byte	64
 3826 01bf 40        		.byte	64
 3827 01c0 40        		.byte	64
 3828 01c1 3F        		.byte	63
 3829 01c2 00        		.byte	0
 3830 01c3 7F        		.byte	127
 3831 01c4 08        		.byte	8
 3832 01c5 14        		.byte	20
 3833 01c6 22        		.byte	34
 3834 01c7 41        		.byte	65
 3835 01c8 00        		.byte	0
 3836 01c9 7F        		.byte	127
 3837 01ca 40        		.byte	64
 3838 01cb 40        		.byte	64
 3839 01cc 40        		.byte	64
 3840 01cd 40        		.byte	64
 3841 01ce 00        		.byte	0
 3842 01cf 7F        		.byte	127
 3843 01d0 02        		.byte	2
 3844 01d1 04        		.byte	4
 3845 01d2 02        		.byte	2
 3846 01d3 7F        		.byte	127
 3847 01d4 00        		.byte	0
 3848 01d5 7F        		.byte	127
 3849 01d6 02        		.byte	2
 3850 01d7 04        		.byte	4
 3851 01d8 08        		.byte	8
 3852 01d9 7F        		.byte	127
 3853 01da 00        		.byte	0
 3854 01db 3E        		.byte	62
 3855 01dc 41        		.byte	65
 3856 01dd 41        		.byte	65
 3857 01de 41        		.byte	65
 3858 01df 3E        		.byte	62
 3859 01e0 00        		.byte	0
 3860 01e1 7F        		.byte	127
 3861 01e2 09        		.byte	9
 3862 01e3 09        		.byte	9
 3863 01e4 09        		.byte	9
 3864 01e5 06        		.byte	6
 3865 01e6 00        		.byte	0
 3866 01e7 3E        		.byte	62
 3867 01e8 41        		.byte	65
 3868 01e9 51        		.byte	81
 3869 01ea 21        		.byte	33
 3870 01eb 5E        		.byte	94
 3871 01ec 00        		.byte	0
 3872 01ed 7F        		.byte	127
 3873 01ee 09        		.byte	9
 3874 01ef 09        		.byte	9
 3875 01f0 19        		.byte	25
 3876 01f1 66        		.byte	102
 3877 01f2 00        		.byte	0
 3878 01f3 26        		.byte	38
 3879 01f4 49        		.byte	73
 3880 01f5 49        		.byte	73
 3881 01f6 49        		.byte	73
 3882 01f7 32        		.byte	50
 3883 01f8 00        		.byte	0
 3884 01f9 01        		.byte	1
 3885 01fa 01        		.byte	1
 3886 01fb 7F        		.byte	127
 3887 01fc 01        		.byte	1
 3888 01fd 01        		.byte	1
 3889 01fe 00        		.byte	0
 3890 01ff 3F        		.byte	63
 3891 0200 40        		.byte	64
 3892 0201 40        		.byte	64
 3893 0202 40        		.byte	64
 3894 0203 3F        		.byte	63
 3895 0204 00        		.byte	0
 3896 0205 1F        		.byte	31
 3897 0206 20        		.byte	32
 3898 0207 40        		.byte	64
 3899 0208 20        		.byte	32
 3900 0209 1F        		.byte	31
 3901 020a 00        		.byte	0
 3902 020b 3F        		.byte	63
 3903 020c 40        		.byte	64
 3904 020d 3C        		.byte	60
 3905 020e 40        		.byte	64
 3906 020f 3F        		.byte	63
 3907 0210 00        		.byte	0
 3908 0211 63        		.byte	99
 3909 0212 14        		.byte	20
 3910 0213 08        		.byte	8
 3911 0214 14        		.byte	20
 3912 0215 63        		.byte	99
 3913 0216 00        		.byte	0
 3914 0217 07        		.byte	7
 3915 0218 08        		.byte	8
 3916 0219 70        		.byte	112
 3917 021a 08        		.byte	8
 3918 021b 07        		.byte	7
 3919 021c 00        		.byte	0
 3920 021d 71        		.byte	113
 3921 021e 49        		.byte	73
 3922 021f 45        		.byte	69
 3923 0220 43        		.byte	67
 3924 0221 00        		.byte	0
 3925 0222 00        		.byte	0
 3926 0223 00        		.byte	0
 3927 0224 7F        		.byte	127
 3928 0225 41        		.byte	65
 3929 0226 41        		.byte	65
 3930 0227 00        		.byte	0
 3931 0228 00        		.byte	0
 3932 0229 02        		.byte	2
 3933 022a 04        		.byte	4
 3934 022b 08        		.byte	8
 3935 022c 10        		.byte	16
 3936 022d 20        		.byte	32
 3937 022e 00        		.byte	0
 3938 022f 00        		.byte	0
 3939 0230 41        		.byte	65
 3940 0231 41        		.byte	65
 3941 0232 7F        		.byte	127
 3942 0233 00        		.byte	0
 3943 0234 00        		.byte	0
 3944 0235 04        		.byte	4
 3945 0236 02        		.byte	2
 3946 0237 01        		.byte	1
 3947 0238 02        		.byte	2
 3948 0239 04        		.byte	4
 3949 023a 80        		.byte	-128
 3950 023b 80        		.byte	-128
 3951 023c 80        		.byte	-128
 3952 023d 80        		.byte	-128
 3953 023e 80        		.byte	-128
 3954 023f 80        		.byte	-128
 3955 0240 00        		.byte	0
 3956 0241 00        		.byte	0
 3957 0242 03        		.byte	3
 3958 0243 07        		.byte	7
 3959 0244 00        		.byte	0
 3960 0245 00        		.byte	0
 3961 0246 00        		.byte	0
 3962 0247 20        		.byte	32
 3963 0248 54        		.byte	84
 3964 0249 54        		.byte	84
 3965 024a 54        		.byte	84
 3966 024b 78        		.byte	120
 3967 024c 00        		.byte	0
 3968 024d 7F        		.byte	127
 3969 024e 44        		.byte	68
 3970 024f 44        		.byte	68
 3971 0250 44        		.byte	68
 3972 0251 38        		.byte	56
 3973 0252 00        		.byte	0
 3974 0253 38        		.byte	56
 3975 0254 44        		.byte	68
 3976 0255 44        		.byte	68
 3977 0256 44        		.byte	68
 3978 0257 28        		.byte	40
 3979 0258 00        		.byte	0
 3980 0259 38        		.byte	56
 3981 025a 44        		.byte	68
 3982 025b 44        		.byte	68
 3983 025c 44        		.byte	68
 3984 025d 7F        		.byte	127
 3985 025e 00        		.byte	0
 3986 025f 38        		.byte	56
 3987 0260 54        		.byte	84
 3988 0261 54        		.byte	84
 3989 0262 54        		.byte	84
 3990 0263 08        		.byte	8
 3991 0264 00        		.byte	0
 3992 0265 08        		.byte	8
 3993 0266 7E        		.byte	126
 3994 0267 09        		.byte	9
 3995 0268 09        		.byte	9
 3996 0269 00        		.byte	0
 3997 026a 00        		.byte	0
 3998 026b 18        		.byte	24
 3999 026c A4        		.byte	-92
 4000 026d A4        		.byte	-92
 4001 026e A4        		.byte	-92
 4002 026f 7C        		.byte	124
 4003 0270 00        		.byte	0
 4004 0271 7F        		.byte	127
 4005 0272 04        		.byte	4
 4006 0273 04        		.byte	4
 4007 0274 78        		.byte	120
 4008 0275 00        		.byte	0
 4009 0276 00        		.byte	0
 4010 0277 00        		.byte	0
 4011 0278 00        		.byte	0
 4012 0279 7D        		.byte	125
 4013 027a 40        		.byte	64
 4014 027b 00        		.byte	0
 4015 027c 00        		.byte	0
 4016 027d 40        		.byte	64
 4017 027e 80        		.byte	-128
 4018 027f 84        		.byte	-124
 4019 0280 7D        		.byte	125
 4020 0281 00        		.byte	0
 4021 0282 00        		.byte	0
 4022 0283 7F        		.byte	127
 4023 0284 10        		.byte	16
 4024 0285 28        		.byte	40
 4025 0286 44        		.byte	68
 4026 0287 00        		.byte	0
 4027 0288 00        		.byte	0
 4028 0289 00        		.byte	0
 4029 028a 00        		.byte	0
 4030 028b 7F        		.byte	127
 4031 028c 40        		.byte	64
 4032 028d 00        		.byte	0
 4033 028e 00        		.byte	0
 4034 028f 7C        		.byte	124
 4035 0290 04        		.byte	4
 4036 0291 18        		.byte	24
 4037 0292 04        		.byte	4
 4038 0293 78        		.byte	120
 4039 0294 00        		.byte	0
 4040 0295 7C        		.byte	124
 4041 0296 04        		.byte	4
 4042 0297 04        		.byte	4
 4043 0298 78        		.byte	120
 4044 0299 00        		.byte	0
 4045 029a 00        		.byte	0
 4046 029b 38        		.byte	56
 4047 029c 44        		.byte	68
 4048 029d 44        		.byte	68
 4049 029e 44        		.byte	68
 4050 029f 38        		.byte	56
 4051 02a0 00        		.byte	0
 4052 02a1 FC        		.byte	-4
 4053 02a2 44        		.byte	68
 4054 02a3 44        		.byte	68
 4055 02a4 44        		.byte	68
 4056 02a5 38        		.byte	56
 4057 02a6 00        		.byte	0
 4058 02a7 38        		.byte	56
 4059 02a8 44        		.byte	68
 4060 02a9 44        		.byte	68
 4061 02aa 44        		.byte	68
 4062 02ab FC        		.byte	-4
 4063 02ac 00        		.byte	0
 4064 02ad 44        		.byte	68
 4065 02ae 78        		.byte	120
 4066 02af 44        		.byte	68
 4067 02b0 04        		.byte	4
 4068 02b1 08        		.byte	8
 4069 02b2 00        		.byte	0
 4070 02b3 08        		.byte	8
 4071 02b4 54        		.byte	84
 4072 02b5 54        		.byte	84
 4073 02b6 54        		.byte	84
 4074 02b7 20        		.byte	32
 4075 02b8 00        		.byte	0
 4076 02b9 04        		.byte	4
 4077 02ba 3E        		.byte	62
 4078 02bb 44        		.byte	68
 4079 02bc 24        		.byte	36
 4080 02bd 00        		.byte	0
 4081 02be 00        		.byte	0
 4082 02bf 3C        		.byte	60
 4083 02c0 40        		.byte	64
 4084 02c1 20        		.byte	32
 4085 02c2 7C        		.byte	124
 4086 02c3 00        		.byte	0
 4087 02c4 00        		.byte	0
 4088 02c5 1C        		.byte	28
 4089 02c6 20        		.byte	32
 4090 02c7 40        		.byte	64
 4091 02c8 20        		.byte	32
 4092 02c9 1C        		.byte	28
 4093 02ca 00        		.byte	0
 4094 02cb 3C        		.byte	60
 4095 02cc 60        		.byte	96
 4096 02cd 30        		.byte	48
 4097 02ce 60        		.byte	96
 4098 02cf 3C        		.byte	60
 4099 02d0 00        		.byte	0
 4100 02d1 6C        		.byte	108
 4101 02d2 10        		.byte	16
 4102 02d3 10        		.byte	16
 4103 02d4 6C        		.byte	108
 4104 02d5 00        		.byte	0
 4105 02d6 00        		.byte	0
 4106 02d7 9C        		.byte	-100
 4107 02d8 A0        		.byte	-96
 4108 02d9 60        		.byte	96
 4109 02da 3C        		.byte	60
 4110 02db 00        		.byte	0
 4111 02dc 00        		.byte	0
 4112 02dd 64        		.byte	100
 4113 02de 54        		.byte	84
 4114 02df 54        		.byte	84
 4115 02e0 4C        		.byte	76
 4116 02e1 00        		.byte	0
 4117 02e2 00        		.byte	0
 4118 02e3 08        		.byte	8
 4119 02e4 3E        		.byte	62
 4120 02e5 41        		.byte	65
 4121 02e6 41        		.byte	65
 4122 02e7 00        		.byte	0
 4123 02e8 00        		.byte	0
 4124 02e9 00        		.byte	0
 4125 02ea 00        		.byte	0
 4126 02eb 77        		.byte	119
 4127 02ec 00        		.byte	0
 4128 02ed 00        		.byte	0
 4129 02ee 00        		.byte	0
 4130 02ef 00        		.byte	0
 4131 02f0 41        		.byte	65
 4132 02f1 41        		.byte	65
 4133 02f2 3E        		.byte	62
 4134 02f3 08        		.byte	8
 4135 02f4 00        		.byte	0
 4136 02f5 02        		.byte	2
 4137 02f6 01        		.byte	1
 4138 02f7 02        		.byte	2
 4139 02f8 01        		.byte	1
 4140 02f9 00        		.byte	0
 4141 02fa 00        		.byte	0
 4142 02fb 3C        		.byte	60
 4143 02fc 26        		.byte	38
 4144 02fd 23        		.byte	35
 4145 02fe 26        		.byte	38
 4146 02ff 3C        		.byte	60
 4147 0300 44        		.byte	68
 4148 0301 11        		.byte	17
 4149 0302 44        		.byte	68
 4150 0303 11        		.byte	17
 4151 0304 44        		.byte	68
 4152 0305 11        		.byte	17
 4153 0306 AA        		.byte	-86
 4154 0307 55        		.byte	85
 4155 0308 AA        		.byte	-86
 4156 0309 55        		.byte	85
 4157 030a AA        		.byte	-86
 4158 030b 55        		.byte	85
 4159 030c BB        		.byte	-69
 4160 030d EE        		.byte	-18
 4161 030e BB        		.byte	-69
 4162 030f EE        		.byte	-18
 4163 0310 BB        		.byte	-69
 4164 0311 EE        		.byte	-18
 4165 0312 00        		.byte	0
 4166 0313 00        		.byte	0
 4167 0314 00        		.byte	0
 4168 0315 FF        		.byte	-1
 4169 0316 00        		.byte	0
 4170 0317 00        		.byte	0
 4171 0318 08        		.byte	8
 4172 0319 08        		.byte	8
 4173 031a 08        		.byte	8
 4174 031b FF        		.byte	-1
 4175 031c 00        		.byte	0
 4176 031d 00        		.byte	0
 4177 031e 0A        		.byte	10
 4178 031f 0A        		.byte	10
 4179 0320 0A        		.byte	10
 4180 0321 FF        		.byte	-1
 4181 0322 00        		.byte	0
 4182 0323 00        		.byte	0
 4183 0324 08        		.byte	8
 4184 0325 FF        		.byte	-1
 4185 0326 00        		.byte	0
 4186 0327 FF        		.byte	-1
 4187 0328 00        		.byte	0
 4188 0329 00        		.byte	0
 4189 032a 08        		.byte	8
 4190 032b F8        		.byte	-8
 4191 032c 08        		.byte	8
 4192 032d F8        		.byte	-8
 4193 032e 00        		.byte	0
 4194 032f 00        		.byte	0
 4195 0330 0A        		.byte	10
 4196 0331 0A        		.byte	10
 4197 0332 0A        		.byte	10
 4198 0333 FE        		.byte	-2
 4199 0334 00        		.byte	0
 4200 0335 00        		.byte	0
 4201 0336 0A        		.byte	10
 4202 0337 FB        		.byte	-5
 4203 0338 00        		.byte	0
 4204 0339 FF        		.byte	-1
 4205 033a 00        		.byte	0
 4206 033b 00        		.byte	0
 4207 033c 00        		.byte	0
 4208 033d FF        		.byte	-1
 4209 033e 00        		.byte	0
 4210 033f FF        		.byte	-1
 4211 0340 00        		.byte	0
 4212 0341 00        		.byte	0
 4213 0342 0A        		.byte	10
 4214 0343 FA        		.byte	-6
 4215 0344 02        		.byte	2
 4216 0345 FE        		.byte	-2
 4217 0346 00        		.byte	0
 4218 0347 00        		.byte	0
 4219 0348 0A        		.byte	10
 4220 0349 0B        		.byte	11
 4221 034a 08        		.byte	8
 4222 034b 0F        		.byte	15
 4223 034c 00        		.byte	0
 4224 034d 00        		.byte	0
 4225 034e 08        		.byte	8
 4226 034f 0F        		.byte	15
 4227 0350 08        		.byte	8
 4228 0351 0F        		.byte	15
 4229 0352 00        		.byte	0
 4230 0353 00        		.byte	0
 4231 0354 0A        		.byte	10
 4232 0355 0A        		.byte	10
 4233 0356 0A        		.byte	10
 4234 0357 0F        		.byte	15
 4235 0358 00        		.byte	0
 4236 0359 00        		.byte	0
 4237 035a 08        		.byte	8
 4238 035b 08        		.byte	8
 4239 035c 08        		.byte	8
 4240 035d F8        		.byte	-8
 4241 035e 00        		.byte	0
 4242 035f 00        		.byte	0
 4243 0360 00        		.byte	0
 4244 0361 00        		.byte	0
 4245 0362 00        		.byte	0
 4246 0363 0F        		.byte	15
 4247 0364 08        		.byte	8
 4248 0365 08        		.byte	8
 4249 0366 08        		.byte	8
 4250 0367 08        		.byte	8
 4251 0368 08        		.byte	8
 4252 0369 0F        		.byte	15
 4253 036a 08        		.byte	8
 4254 036b 08        		.byte	8
 4255 036c 08        		.byte	8
 4256 036d 08        		.byte	8
 4257 036e 08        		.byte	8
 4258 036f F8        		.byte	-8
 4259 0370 08        		.byte	8
 4260 0371 08        		.byte	8
 4261 0372 00        		.byte	0
 4262 0373 00        		.byte	0
 4263 0374 00        		.byte	0
 4264 0375 FF        		.byte	-1
 4265 0376 08        		.byte	8
 4266 0377 08        		.byte	8
 4267 0378 08        		.byte	8
 4268 0379 08        		.byte	8
 4269 037a 08        		.byte	8
 4270 037b 08        		.byte	8
 4271 037c 08        		.byte	8
 4272 037d 08        		.byte	8
 4273 037e 08        		.byte	8
 4274 037f 08        		.byte	8
 4275 0380 08        		.byte	8
 4276 0381 FF        		.byte	-1
 4277 0382 08        		.byte	8
 4278 0383 08        		.byte	8
 4279 0384 00        		.byte	0
 4280 0385 00        		.byte	0
 4281 0386 00        		.byte	0
 4282 0387 FF        		.byte	-1
 4283 0388 0A        		.byte	10
 4284 0389 0A        		.byte	10
 4285 038a 00        		.byte	0
 4286 038b FF        		.byte	-1
 4287 038c 00        		.byte	0
 4288 038d FF        		.byte	-1
 4289 038e 08        		.byte	8
 4290 038f 08        		.byte	8
 4291 0390 00        		.byte	0
 4292 0391 0F        		.byte	15
 4293 0392 08        		.byte	8
 4294 0393 0B        		.byte	11
 4295 0394 0A        		.byte	10
 4296 0395 0A        		.byte	10
 4297 0396 00        		.byte	0
 4298 0397 FE        		.byte	-2
 4299 0398 02        		.byte	2
 4300 0399 FA        		.byte	-6
 4301 039a 0A        		.byte	10
 4302 039b 0A        		.byte	10
 4303 039c 0A        		.byte	10
 4304 039d 0B        		.byte	11
 4305 039e 08        		.byte	8
 4306 039f 0B        		.byte	11
 4307 03a0 0A        		.byte	10
 4308 03a1 0A        		.byte	10
 4309 03a2 0A        		.byte	10
 4310 03a3 FA        		.byte	-6
 4311 03a4 02        		.byte	2
 4312 03a5 FA        		.byte	-6
 4313 03a6 0A        		.byte	10
 4314 03a7 0A        		.byte	10
 4315 03a8 00        		.byte	0
 4316 03a9 FF        		.byte	-1
 4317 03aa 00        		.byte	0
 4318 03ab FB        		.byte	-5
 4319 03ac 0A        		.byte	10
 4320 03ad 0A        		.byte	10
 4321 03ae 0A        		.byte	10
 4322 03af 0A        		.byte	10
 4323 03b0 0A        		.byte	10
 4324 03b1 0A        		.byte	10
 4325 03b2 0A        		.byte	10
 4326 03b3 0A        		.byte	10
 4327 03b4 0A        		.byte	10
 4328 03b5 FB        		.byte	-5
 4329 03b6 00        		.byte	0
 4330 03b7 FB        		.byte	-5
 4331 03b8 0A        		.byte	10
 4332 03b9 0A        		.byte	10
 4333 03ba 0A        		.byte	10
 4334 03bb 0A        		.byte	10
 4335 03bc 0A        		.byte	10
 4336 03bd 0B        		.byte	11
 4337 03be 0A        		.byte	10
 4338 03bf 0A        		.byte	10
 4339 03c0 08        		.byte	8
 4340 03c1 0F        		.byte	15
 4341 03c2 08        		.byte	8
 4342 03c3 0F        		.byte	15
 4343 03c4 08        		.byte	8
 4344 03c5 08        		.byte	8
 4345 03c6 0A        		.byte	10
 4346 03c7 0A        		.byte	10
 4347 03c8 0A        		.byte	10
 4348 03c9 FA        		.byte	-6
 4349 03ca 0A        		.byte	10
 4350 03cb 0A        		.byte	10
 4351 03cc 08        		.byte	8
 4352 03cd F8        		.byte	-8
 4353 03ce 08        		.byte	8
 4354 03cf F8        		.byte	-8
 4355 03d0 08        		.byte	8
 4356 03d1 08        		.byte	8
 4357 03d2 00        		.byte	0
 4358 03d3 0F        		.byte	15
 4359 03d4 08        		.byte	8
 4360 03d5 0F        		.byte	15
 4361 03d6 08        		.byte	8
 4362 03d7 08        		.byte	8
 4363 03d8 00        		.byte	0
 4364 03d9 00        		.byte	0
 4365 03da 00        		.byte	0
 4366 03db 0F        		.byte	15
 4367 03dc 0A        		.byte	10
 4368 03dd 0A        		.byte	10
 4369 03de 00        		.byte	0
 4370 03df 00        		.byte	0
 4371 03e0 00        		.byte	0
 4372 03e1 FE        		.byte	-2
 4373 03e2 0A        		.byte	10
 4374 03e3 0A        		.byte	10
 4375 03e4 00        		.byte	0
 4376 03e5 F8        		.byte	-8
 4377 03e6 08        		.byte	8
 4378 03e7 F8        		.byte	-8
 4379 03e8 08        		.byte	8
 4380 03e9 08        		.byte	8
 4381 03ea 08        		.byte	8
 4382 03eb FF        		.byte	-1
 4383 03ec 08        		.byte	8
 4384 03ed FF        		.byte	-1
 4385 03ee 08        		.byte	8
 4386 03ef 08        		.byte	8
 4387 03f0 00        		.byte	0
 4388 03f1 7E        		.byte	126
 4389 03f2 4B        		.byte	75
 4390 03f3 4A        		.byte	74
 4391 03f4 4B        		.byte	75
 4392 03f5 42        		.byte	66
 4393 03f6 0A        		.byte	10
 4394 03f7 0A        		.byte	10
 4395 03f8 0A        		.byte	10
 4396 03f9 FF        		.byte	-1
 4397 03fa 0A        		.byte	10
 4398 03fb 0A        		.byte	10
 4399 03fc 08        		.byte	8
 4400 03fd 08        		.byte	8
 4401 03fe 08        		.byte	8
 4402 03ff 0F        		.byte	15
 4403 0400 00        		.byte	0
 4404 0401 00        		.byte	0
 4405 0402 00        		.byte	0
 4406 0403 00        		.byte	0
 4407 0404 00        		.byte	0
 4408 0405 F8        		.byte	-8
 4409 0406 08        		.byte	8
 4410 0407 08        		.byte	8
 4411 0408 FF        		.byte	-1
 4412 0409 FF        		.byte	-1
 4413 040a FF        		.byte	-1
 4414 040b FF        		.byte	-1
 4415 040c FF        		.byte	-1
 4416 040d FF        		.byte	-1
 4417 040e F0        		.byte	-16
 4418 040f F0        		.byte	-16
 4419 0410 F0        		.byte	-16
 4420 0411 F0        		.byte	-16
 4421 0412 F0        		.byte	-16
 4422 0413 F0        		.byte	-16
 4423 0414 FF        		.byte	-1
 4424 0415 FF        		.byte	-1
 4425 0416 FF        		.byte	-1
 4426 0417 00        		.byte	0
 4427 0418 00        		.byte	0
 4428 0419 00        		.byte	0
 4429 041a 00        		.byte	0
 4430 041b 00        		.byte	0
 4431 041c 00        		.byte	0
 4432 041d FF        		.byte	-1
 4433 041e FF        		.byte	-1
 4434 041f FF        		.byte	-1
 4435 0420 0F        		.byte	15
 4436 0421 0F        		.byte	15
 4437 0422 0F        		.byte	15
 4438 0423 0F        		.byte	15
 4439 0424 0F        		.byte	15
 4440 0425 0F        		.byte	15
 4441 0426 00        		.byte	0
 4442 0427 3E        		.byte	62
 4443 0428 49        		.byte	73
 4444 0429 49        		.byte	73
 4445 042a 41        		.byte	65
 4446 042b 22        		.byte	34
 4447 042c 00        		.byte	0
 4448 042d 38        		.byte	56
 4449 042e 54        		.byte	84
 4450 042f 54        		.byte	84
 4451 0430 44        		.byte	68
 4452 0431 28        		.byte	40
 4453 0432 00        		.byte	0
 4454 0433 01        		.byte	1
 4455 0434 40        		.byte	64
 4456 0435 7E        		.byte	126
 4457 0436 40        		.byte	64
 4458 0437 01        		.byte	1
 4459 0438 00        		.byte	0
 4460 0439 00        		.byte	0
 4461 043a 01        		.byte	1
 4462 043b 7C        		.byte	124
 4463 043c 41        		.byte	65
 4464 043d 00        		.byte	0
 4465 043e 00        		.byte	0
 4466 043f 27        		.byte	39
 4467 0440 48        		.byte	72
 4468 0441 4B        		.byte	75
 4469 0442 48        		.byte	72
 4470 0443 3F        		.byte	63
 4471 0444 00        		.byte	0
 4472 0445 9D        		.byte	-99
 4473 0446 A2        		.byte	-94
 4474 0447 62        		.byte	98
 4475 0448 3D        		.byte	61
 4476 0449 00        		.byte	0
 4477 044a 00        		.byte	0
 4478 044b 06        		.byte	6
 4479 044c 09        		.byte	9
 4480 044d 09        		.byte	9
 4481 044e 06        		.byte	6
 4482 044f 00        		.byte	0
 4483 0450 00        		.byte	0
 4484 0451 38        		.byte	56
 4485 0452 55        		.byte	85
 4486 0453 54        		.byte	84
 4487 0454 55        		.byte	85
 4488 0455 08        		.byte	8
 4489 0456 00        		.byte	0
 4490 0457 00        		.byte	0
 4491 0458 18        		.byte	24
 4492 0459 18        		.byte	24
 4493 045a 00        		.byte	0
 4494 045b 00        		.byte	0
 4495 045c 00        		.byte	0
 4496 045d 00        		.byte	0
 4497 045e 08        		.byte	8
 4498 045f 00        		.byte	0
 4499 0460 00        		.byte	0
 4500 0461 00        		.byte	0
 4501 0462 00        		.byte	0
 4502 0463 30        		.byte	48
 4503 0464 40        		.byte	64
 4504 0465 3E        		.byte	62
 4505 0466 02        		.byte	2
 4506 0467 02        		.byte	2
 4507 0468 7F        		.byte	127
 4508 0469 06        		.byte	6
 4509 046a 18        		.byte	24
 4510 046b 7F        		.byte	127
 4511 046c 13        		.byte	19
 4512 046d 13        		.byte	19
 4513 046e 2A        		.byte	42
 4514 046f 3E        		.byte	62
 4515 0470 14        		.byte	20
 4516 0471 14        		.byte	20
 4517 0472 3E        		.byte	62
 4518 0473 2A        		.byte	42
 4519 0474 00        		.byte	0
 4520 0475 3C        		.byte	60
 4521 0476 3C        		.byte	60
 4522 0477 3C        		.byte	60
 4523 0478 3C        		.byte	60
 4524 0479 00        		.byte	0
 4525 047a 00        		.byte	0
 4526 047b 00        		.byte	0
 4527 047c 00        		.byte	0
 4528 047d 00        		.byte	0
 4529 047e 00        		.byte	0
 4530 047f 00        		.byte	0
 4531 0480 00        		.byte	0
 4532 0481 7E        		.byte	126
 4533 0482 11        		.byte	17
 4534 0483 11        		.byte	17
 4535 0484 11        		.byte	17
 4536 0485 7E        		.byte	126
 4537 0486 00        		.byte	0
 4538 0487 7F        		.byte	127
 4539 0488 49        		.byte	73
 4540 0489 49        		.byte	73
 4541 048a 49        		.byte	73
 4542 048b 31        		.byte	49
 4543 048c 00        		.byte	0
 4544 048d 7F        		.byte	127
 4545 048e 49        		.byte	73
 4546 048f 49        		.byte	73
 4547 0490 49        		.byte	73
 4548 0491 36        		.byte	54
 4549 0492 00        		.byte	0
 4550 0493 7F        		.byte	127
 4551 0494 01        		.byte	1
 4552 0495 01        		.byte	1
 4553 0496 01        		.byte	1
 4554 0497 01        		.byte	1
 4555 0498 C0        		.byte	-64
 4556 0499 7E        		.byte	126
 4557 049a 41        		.byte	65
 4558 049b 41        		.byte	65
 4559 049c 7F        		.byte	127
 4560 049d C0        		.byte	-64
 4561 049e 00        		.byte	0
 4562 049f 7F        		.byte	127
 4563 04a0 49        		.byte	73
 4564 04a1 49        		.byte	73
 4565 04a2 49        		.byte	73
 4566 04a3 41        		.byte	65
 4567 04a4 00        		.byte	0
 4568 04a5 77        		.byte	119
 4569 04a6 08        		.byte	8
 4570 04a7 7F        		.byte	127
 4571 04a8 08        		.byte	8
 4572 04a9 77        		.byte	119
 4573 04aa 22        		.byte	34
 4574 04ab 49        		.byte	73
 4575 04ac 49        		.byte	73
 4576 04ad 49        		.byte	73
 4577 04ae 36        		.byte	54
 4578 04af 00        		.byte	0
 4579 04b0 00        		.byte	0
 4580 04b1 7F        		.byte	127
 4581 04b2 20        		.byte	32
 4582 04b3 10        		.byte	16
 4583 04b4 08        		.byte	8
 4584 04b5 7F        		.byte	127
 4585 04b6 00        		.byte	0
 4586 04b7 7E        		.byte	126
 4587 04b8 21        		.byte	33
 4588 04b9 11        		.byte	17
 4589 04ba 09        		.byte	9
 4590 04bb 7E        		.byte	126
 4591 04bc 00        		.byte	0
 4592 04bd 7F        		.byte	127
 4593 04be 08        		.byte	8
 4594 04bf 14        		.byte	20
 4595 04c0 22        		.byte	34
 4596 04c1 41        		.byte	65
 4597 04c2 00        		.byte	0
 4598 04c3 40        		.byte	64
 4599 04c4 7E        		.byte	126
 4600 04c5 01        		.byte	1
 4601 04c6 01        		.byte	1
 4602 04c7 7F        		.byte	127
 4603 04c8 00        		.byte	0
 4604 04c9 7F        		.byte	127
 4605 04ca 02        		.byte	2
 4606 04cb 04        		.byte	4
 4607 04cc 02        		.byte	2
 4608 04cd 7F        		.byte	127
 4609 04ce 00        		.byte	0
 4610 04cf 7F        		.byte	127
 4611 04d0 08        		.byte	8
 4612 04d1 08        		.byte	8
 4613 04d2 08        		.byte	8
 4614 04d3 7F        		.byte	127
 4615 04d4 00        		.byte	0
 4616 04d5 3E        		.byte	62
 4617 04d6 41        		.byte	65
 4618 04d7 41        		.byte	65
 4619 04d8 41        		.byte	65
 4620 04d9 3E        		.byte	62
 4621 04da 00        		.byte	0
 4622 04db 7F        		.byte	127
 4623 04dc 01        		.byte	1
 4624 04dd 01        		.byte	1
 4625 04de 01        		.byte	1
 4626 04df 7F        		.byte	127
 4627 04e0 00        		.byte	0
 4628 04e1 7F        		.byte	127
 4629 04e2 09        		.byte	9
 4630 04e3 09        		.byte	9
 4631 04e4 09        		.byte	9
 4632 04e5 06        		.byte	6
 4633 04e6 00        		.byte	0
 4634 04e7 3E        		.byte	62
 4635 04e8 41        		.byte	65
 4636 04e9 41        		.byte	65
 4637 04ea 41        		.byte	65
 4638 04eb 22        		.byte	34
 4639 04ec 00        		.byte	0
 4640 04ed 01        		.byte	1
 4641 04ee 01        		.byte	1
 4642 04ef 7F        		.byte	127
 4643 04f0 01        		.byte	1
 4644 04f1 01        		.byte	1
 4645 04f2 00        		.byte	0
 4646 04f3 27        		.byte	39
 4647 04f4 48        		.byte	72
 4648 04f5 48        		.byte	72
 4649 04f6 48        		.byte	72
 4650 04f7 3F        		.byte	63
 4651 04f8 00        		.byte	0
 4652 04f9 0E        		.byte	14
 4653 04fa 11        		.byte	17
 4654 04fb 7F        		.byte	127
 4655 04fc 11        		.byte	17
 4656 04fd 0E        		.byte	14
 4657 04fe 00        		.byte	0
 4658 04ff 63        		.byte	99
 4659 0500 14        		.byte	20
 4660 0501 08        		.byte	8
 4661 0502 14        		.byte	20
 4662 0503 63        		.byte	99
 4663 0504 00        		.byte	0
 4664 0505 7F        		.byte	127
 4665 0506 40        		.byte	64
 4666 0507 40        		.byte	64
 4667 0508 7F        		.byte	127
 4668 0509 C0        		.byte	-64
 4669 050a 00        		.byte	0
 4670 050b 07        		.byte	7
 4671 050c 08        		.byte	8
 4672 050d 08        		.byte	8
 4673 050e 08        		.byte	8
 4674 050f 7F        		.byte	127
 4675 0510 00        		.byte	0
 4676 0511 7F        		.byte	127
 4677 0512 40        		.byte	64
 4678 0513 7F        		.byte	127
 4679 0514 40        		.byte	64
 4680 0515 7F        		.byte	127
 4681 0516 00        		.byte	0
 4682 0517 7F        		.byte	127
 4683 0518 40        		.byte	64
 4684 0519 7F        		.byte	127
 4685 051a 40        		.byte	64
 4686 051b FF        		.byte	-1
 4687 051c 03        		.byte	3
 4688 051d 01        		.byte	1
 4689 051e 7F        		.byte	127
 4690 051f 48        		.byte	72
 4691 0520 48        		.byte	72
 4692 0521 30        		.byte	48
 4693 0522 00        		.byte	0
 4694 0523 7F        		.byte	127
 4695 0524 48        		.byte	72
 4696 0525 48        		.byte	72
 4697 0526 30        		.byte	48
 4698 0527 7F        		.byte	127
 4699 0528 00        		.byte	0
 4700 0529 7F        		.byte	127
 4701 052a 48        		.byte	72
 4702 052b 48        		.byte	72
 4703 052c 48        		.byte	72
 4704 052d 30        		.byte	48
 4705 052e 00        		.byte	0
 4706 052f 22        		.byte	34
 4707 0530 41        		.byte	65
 4708 0531 49        		.byte	73
 4709 0532 49        		.byte	73
 4710 0533 3E        		.byte	62
 4711 0534 00        		.byte	0
 4712 0535 7F        		.byte	127
 4713 0536 08        		.byte	8
 4714 0537 3E        		.byte	62
 4715 0538 41        		.byte	65
 4716 0539 3E        		.byte	62
 4717 053a 00        		.byte	0
 4718 053b 66        		.byte	102
 4719 053c 19        		.byte	25
 4720 053d 09        		.byte	9
 4721 053e 09        		.byte	9
 4722 053f 7F        		.byte	127
 4723 0540 00        		.byte	0
 4724 0541 20        		.byte	32
 4725 0542 54        		.byte	84
 4726 0543 54        		.byte	84
 4727 0544 54        		.byte	84
 4728 0545 78        		.byte	120
 4729 0546 00        		.byte	0
 4730 0547 3C        		.byte	60
 4731 0548 4A        		.byte	74
 4732 0549 4A        		.byte	74
 4733 054a 4A        		.byte	74
 4734 054b 31        		.byte	49
 4735 054c 00        		.byte	0
 4736 054d 7C        		.byte	124
 4737 054e 54        		.byte	84
 4738 054f 54        		.byte	84
 4739 0550 54        		.byte	84
 4740 0551 28        		.byte	40
 4741 0552 00        		.byte	0
 4742 0553 7C        		.byte	124
 4743 0554 04        		.byte	4
 4744 0555 04        		.byte	4
 4745 0556 0C        		.byte	12
 4746 0557 00        		.byte	0
 4747 0558 C0        		.byte	-64
 4748 0559 78        		.byte	120
 4749 055a 44        		.byte	68
 4750 055b 44        		.byte	68
 4751 055c 7C        		.byte	124
 4752 055d C0        		.byte	-64
 4753 055e 00        		.byte	0
 4754 055f 38        		.byte	56
 4755 0560 54        		.byte	84
 4756 0561 54        		.byte	84
 4757 0562 54        		.byte	84
 4758 0563 08        		.byte	8
 4759 0564 00        		.byte	0
 4760 0565 6C        		.byte	108
 4761 0566 10        		.byte	16
 4762 0567 7C        		.byte	124
 4763 0568 10        		.byte	16
 4764 0569 6C        		.byte	108
 4765 056a 00        		.byte	0
 4766 056b 28        		.byte	40
 4767 056c 44        		.byte	68
 4768 056d 54        		.byte	84
 4769 056e 54        		.byte	84
 4770 056f 28        		.byte	40
 4771 0570 00        		.byte	0
 4772 0571 7C        		.byte	124
 4773 0572 20        		.byte	32
 4774 0573 10        		.byte	16
 4775 0574 08        		.byte	8
 4776 0575 7C        		.byte	124
 4777 0576 00        		.byte	0
 4778 0577 7C        		.byte	124
 4779 0578 20        		.byte	32
 4780 0579 12        		.byte	18
 4781 057a 0A        		.byte	10
 4782 057b 7C        		.byte	124
 4783 057c 00        		.byte	0
 4784 057d 7C        		.byte	124
 4785 057e 10        		.byte	16
 4786 057f 28        		.byte	40
 4787 0580 44        		.byte	68
 4788 0581 00        		.byte	0
 4789 0582 40        		.byte	64
 4790 0583 38        		.byte	56
 4791 0584 04        		.byte	4
 4792 0585 04        		.byte	4
 4793 0586 7C        		.byte	124
 4794 0587 00        		.byte	0
 4795 0588 00        		.byte	0
 4796 0589 7C        		.byte	124
 4797 058a 08        		.byte	8
 4798 058b 10        		.byte	16
 4799 058c 08        		.byte	8
 4800 058d 7C        		.byte	124
 4801 058e 00        		.byte	0
 4802 058f 7C        		.byte	124
 4803 0590 10        		.byte	16
 4804 0591 10        		.byte	16
 4805 0592 10        		.byte	16
 4806 0593 7C        		.byte	124
 4807 0594 00        		.byte	0
 4808 0595 38        		.byte	56
 4809 0596 44        		.byte	68
 4810 0597 44        		.byte	68
 4811 0598 44        		.byte	68
 4812 0599 38        		.byte	56
 4813 059a 00        		.byte	0
 4814 059b 7C        		.byte	124
 4815 059c 04        		.byte	4
 4816 059d 04        		.byte	4
 4817 059e 04        		.byte	4
 4818 059f 7C        		.byte	124
 4819 05a0 00        		.byte	0
 4820 05a1 FC        		.byte	-4
 4821 05a2 44        		.byte	68
 4822 05a3 44        		.byte	68
 4823 05a4 44        		.byte	68
 4824 05a5 38        		.byte	56
 4825 05a6 00        		.byte	0
 4826 05a7 38        		.byte	56
 4827 05a8 44        		.byte	68
 4828 05a9 44        		.byte	68
 4829 05aa 44        		.byte	68
 4830 05ab 28        		.byte	40
 4831 05ac 00        		.byte	0
 4832 05ad 04        		.byte	4
 4833 05ae 04        		.byte	4
 4834 05af 7C        		.byte	124
 4835 05b0 04        		.byte	4
 4836 05b1 04        		.byte	4
 4837 05b2 00        		.byte	0
 4838 05b3 9C        		.byte	-100
 4839 05b4 A0        		.byte	-96
 4840 05b5 60        		.byte	96
 4841 05b6 3C        		.byte	60
 4842 05b7 00        		.byte	0
 4843 05b8 00        		.byte	0
 4844 05b9 18        		.byte	24
 4845 05ba 24        		.byte	36
 4846 05bb 7C        		.byte	124
 4847 05bc 24        		.byte	36
 4848 05bd 18        		.byte	24
 4849 05be 00        		.byte	0
 4850 05bf 6C        		.byte	108
 4851 05c0 10        		.byte	16
 4852 05c1 10        		.byte	16
 4853 05c2 6C        		.byte	108
 4854 05c3 00        		.byte	0
 4855 05c4 00        		.byte	0
 4856 05c5 7C        		.byte	124
 4857 05c6 40        		.byte	64
 4858 05c7 40        		.byte	64
 4859 05c8 7C        		.byte	124
 4860 05c9 C0        		.byte	-64
 4861 05ca 00        		.byte	0
 4862 05cb 0C        		.byte	12
 4863 05cc 10        		.byte	16
 4864 05cd 10        		.byte	16
 4865 05ce 10        		.byte	16
 4866 05cf 7C        		.byte	124
 4867 05d0 00        		.byte	0
 4868 05d1 7C        		.byte	124
 4869 05d2 40        		.byte	64
 4870 05d3 7C        		.byte	124
 4871 05d4 40        		.byte	64
 4872 05d5 7C        		.byte	124
 4873 05d6 00        		.byte	0
 4874 05d7 7C        		.byte	124
 4875 05d8 40        		.byte	64
 4876 05d9 7C        		.byte	124
 4877 05da 40        		.byte	64
 4878 05db FC        		.byte	-4
 4879 05dc 0C        		.byte	12
 4880 05dd 04        		.byte	4
 4881 05de 7C        		.byte	124
 4882 05df 50        		.byte	80
 4883 05e0 50        		.byte	80
 4884 05e1 20        		.byte	32
 4885 05e2 00        		.byte	0
 4886 05e3 7C        		.byte	124
 4887 05e4 50        		.byte	80
 4888 05e5 50        		.byte	80
 4889 05e6 20        		.byte	32
 4890 05e7 7C        		.byte	124
 4891 05e8 00        		.byte	0
 4892 05e9 7C        		.byte	124
 4893 05ea 50        		.byte	80
 4894 05eb 50        		.byte	80
 4895 05ec 50        		.byte	80
 4896 05ed 20        		.byte	32
 4897 05ee 00        		.byte	0
 4898 05ef 28        		.byte	40
 4899 05f0 44        		.byte	68
 4900 05f1 54        		.byte	84
 4901 05f2 54        		.byte	84
 4902 05f3 38        		.byte	56
 4903 05f4 00        		.byte	0
 4904 05f5 7C        		.byte	124
 4905 05f6 10        		.byte	16
 4906 05f7 38        		.byte	56
 4907 05f8 44        		.byte	68
 4908 05f9 38        		.byte	56
 4909 05fa 00        		.byte	0
 4910 05fb 48        		.byte	72
 4911 05fc 34        		.byte	52
 4912 05fd 14        		.byte	20
 4913 05fe 14        		.byte	20
 4914 05ff 7C        		.byte	124
 4915               	.global	Font_12x16_Data
 4918               	Font_12x16_Data:
 4919 0600 00        		.byte	0
 4920 0601 00        		.byte	0
 4921 0602 00        		.byte	0
 4922 0603 00        		.byte	0
 4923 0604 00        		.byte	0
 4924 0605 00        		.byte	0
 4925 0606 00        		.byte	0
 4926 0607 00        		.byte	0
 4927 0608 00        		.byte	0
 4928 0609 00        		.byte	0
 4929 060a 00        		.byte	0
 4930 060b 00        		.byte	0
 4931 060c 00        		.byte	0
 4932 060d 00        		.byte	0
 4933 060e 00        		.byte	0
 4934 060f 00        		.byte	0
 4935 0610 00        		.byte	0
 4936 0611 00        		.byte	0
 4937 0612 00        		.byte	0
 4938 0613 00        		.byte	0
 4939 0614 00        		.byte	0
 4940 0615 00        		.byte	0
 4941 0616 00        		.byte	0
 4942 0617 00        		.byte	0
 4943 0618 00        		.byte	0
 4944 0619 F0        		.byte	-16
 4945 061a 0C        		.byte	12
 4946 061b 02        		.byte	2
 4947 061c 32        		.byte	50
 4948 061d 31        		.byte	49
 4949 061e 01        		.byte	1
 4950 061f 31        		.byte	49
 4951 0620 32        		.byte	50
 4952 0621 02        		.byte	2
 4953 0622 0C        		.byte	12
 4954 0623 F0        		.byte	-16
 4955 0624 00        		.byte	0
 4956 0625 03        		.byte	3
 4957 0626 0C        		.byte	12
 4958 0627 10        		.byte	16
 4959 0628 11        		.byte	17
 4960 0629 22        		.byte	34
 4961 062a 22        		.byte	34
 4962 062b 22        		.byte	34
 4963 062c 11        		.byte	17
 4964 062d 10        		.byte	16
 4965 062e 0C        		.byte	12
 4966 062f 03        		.byte	3
 4967 0630 00        		.byte	0
 4968 0631 F0        		.byte	-16
 4969 0632 FC        		.byte	-4
 4970 0633 FE        		.byte	-2
 4971 0634 CE        		.byte	-50
 4972 0635 CF        		.byte	-49
 4973 0636 FF        		.byte	-1
 4974 0637 CF        		.byte	-49
 4975 0638 CE        		.byte	-50
 4976 0639 FE        		.byte	-2
 4977 063a FC        		.byte	-4
 4978 063b F0        		.byte	-16
 4979 063c 00        		.byte	0
 4980 063d 03        		.byte	3
 4981 063e 0F        		.byte	15
 4982 063f 1F        		.byte	31
 4983 0640 1E        		.byte	30
 4984 0641 3D        		.byte	61
 4985 0642 3D        		.byte	61
 4986 0643 3D        		.byte	61
 4987 0644 1E        		.byte	30
 4988 0645 1F        		.byte	31
 4989 0646 0F        		.byte	15
 4990 0647 03        		.byte	3
 4991 0648 00        		.byte	0
 4992 0649 00        		.byte	0
 4993 064a F0        		.byte	-16
 4994 064b F8        		.byte	-8
 4995 064c F8        		.byte	-8
 4996 064d F0        		.byte	-16
 4997 064e E0        		.byte	-32
 4998 064f F0        		.byte	-16
 4999 0650 F8        		.byte	-8
 5000 0651 F8        		.byte	-8
 5001 0652 F0        		.byte	-16
 5002 0653 00        		.byte	0
 5003 0654 00        		.byte	0
 5004 0655 00        		.byte	0
 5005 0656 00        		.byte	0
 5006 0657 01        		.byte	1
 5007 0658 03        		.byte	3
 5008 0659 07        		.byte	7
 5009 065a 0F        		.byte	15
 5010 065b 07        		.byte	7
 5011 065c 03        		.byte	3
 5012 065d 01        		.byte	1
 5013 065e 00        		.byte	0
 5014 065f 00        		.byte	0
 5015 0660 00        		.byte	0
 5016 0661 00        		.byte	0
 5017 0662 80        		.byte	-128
 5018 0663 C0        		.byte	-64
 5019 0664 E0        		.byte	-32
 5020 0665 F0        		.byte	-16
 5021 0666 F8        		.byte	-8
 5022 0667 F0        		.byte	-16
 5023 0668 E0        		.byte	-32
 5024 0669 C0        		.byte	-64
 5025 066a 80        		.byte	-128
 5026 066b 00        		.byte	0
 5027 066c 00        		.byte	0
 5028 066d 00        		.byte	0
 5029 066e 00        		.byte	0
 5030 066f 01        		.byte	1
 5031 0670 03        		.byte	3
 5032 0671 07        		.byte	7
 5033 0672 0F        		.byte	15
 5034 0673 07        		.byte	7
 5035 0674 03        		.byte	3
 5036 0675 01        		.byte	1
 5037 0676 00        		.byte	0
 5038 0677 00        		.byte	0
 5039 0678 00        		.byte	0
 5040 0679 80        		.byte	-128
 5041 067a C0        		.byte	-64
 5042 067b C0        		.byte	-64
 5043 067c B8        		.byte	-72
 5044 067d FC        		.byte	-4
 5045 067e FC        		.byte	-4
 5046 067f FC        		.byte	-4
 5047 0680 B8        		.byte	-72
 5048 0681 C0        		.byte	-64
 5049 0682 C0        		.byte	-64
 5050 0683 80        		.byte	-128
 5051 0684 00        		.byte	0
 5052 0685 03        		.byte	3
 5053 0686 07        		.byte	7
 5054 0687 07        		.byte	7
 5055 0688 13        		.byte	19
 5056 0689 1B        		.byte	27
 5057 068a 1F        		.byte	31
 5058 068b 1B        		.byte	27
 5059 068c 13        		.byte	19
 5060 068d 07        		.byte	7
 5061 068e 07        		.byte	7
 5062 068f 03        		.byte	3
 5063 0690 00        		.byte	0
 5064 0691 00        		.byte	0
 5065 0692 80        		.byte	-128
 5066 0693 C0        		.byte	-64
 5067 0694 E0        		.byte	-32
 5068 0695 F0        		.byte	-16
 5069 0696 FC        		.byte	-4
 5070 0697 F0        		.byte	-16
 5071 0698 E0        		.byte	-32
 5072 0699 C0        		.byte	-64
 5073 069a 80        		.byte	-128
 5074 069b 00        		.byte	0
 5075 069c 00        		.byte	0
 5076 069d 00        		.byte	0
 5077 069e 03        		.byte	3
 5078 069f 07        		.byte	7
 5079 06a0 17        		.byte	23
 5080 06a1 1B        		.byte	27
 5081 06a2 1F        		.byte	31
 5082 06a3 1B        		.byte	27
 5083 06a4 17        		.byte	23
 5084 06a5 07        		.byte	7
 5085 06a6 03        		.byte	3
 5086 06a7 00        		.byte	0
 5087 06a8 00        		.byte	0
 5088 06a9 00        		.byte	0
 5089 06aa 00        		.byte	0
 5090 06ab 00        		.byte	0
 5091 06ac 80        		.byte	-128
 5092 06ad C0        		.byte	-64
 5093 06ae C0        		.byte	-64
 5094 06af 80        		.byte	-128
 5095 06b0 00        		.byte	0
 5096 06b1 00        		.byte	0
 5097 06b2 00        		.byte	0
 5098 06b3 00        		.byte	0
 5099 06b4 00        		.byte	0
 5100 06b5 00        		.byte	0
 5101 06b6 00        		.byte	0
 5102 06b7 00        		.byte	0
 5103 06b8 01        		.byte	1
 5104 06b9 03        		.byte	3
 5105 06ba 03        		.byte	3
 5106 06bb 01        		.byte	1
 5107 06bc 00        		.byte	0
 5108 06bd 00        		.byte	0
 5109 06be 00        		.byte	0
 5110 06bf 00        		.byte	0
 5111 06c0 FF        		.byte	-1
 5112 06c1 FF        		.byte	-1
 5113 06c2 FF        		.byte	-1
 5114 06c3 FF        		.byte	-1
 5115 06c4 7F        		.byte	127
 5116 06c5 3F        		.byte	63
 5117 06c6 3F        		.byte	63
 5118 06c7 7F        		.byte	127
 5119 06c8 FF        		.byte	-1
 5120 06c9 FF        		.byte	-1
 5121 06ca FF        		.byte	-1
 5122 06cb FF        		.byte	-1
 5123 06cc FF        		.byte	-1
 5124 06cd FF        		.byte	-1
 5125 06ce FF        		.byte	-1
 5126 06cf FF        		.byte	-1
 5127 06d0 FE        		.byte	-2
 5128 06d1 FC        		.byte	-4
 5129 06d2 FC        		.byte	-4
 5130 06d3 FE        		.byte	-2
 5131 06d4 FF        		.byte	-1
 5132 06d5 FF        		.byte	-1
 5133 06d6 FF        		.byte	-1
 5134 06d7 FF        		.byte	-1
 5135 06d8 00        		.byte	0
 5136 06d9 00        		.byte	0
 5137 06da 00        		.byte	0
 5138 06db C0        		.byte	-64
 5139 06dc 20        		.byte	32
 5140 06dd 10        		.byte	16
 5141 06de 10        		.byte	16
 5142 06df 20        		.byte	32
 5143 06e0 C0        		.byte	-64
 5144 06e1 00        		.byte	0
 5145 06e2 00        		.byte	0
 5146 06e3 00        		.byte	0
 5147 06e4 00        		.byte	0
 5148 06e5 00        		.byte	0
 5149 06e6 00        		.byte	0
 5150 06e7 03        		.byte	3
 5151 06e8 04        		.byte	4
 5152 06e9 08        		.byte	8
 5153 06ea 08        		.byte	8
 5154 06eb 04        		.byte	4
 5155 06ec 03        		.byte	3
 5156 06ed 00        		.byte	0
 5157 06ee 00        		.byte	0
 5158 06ef 00        		.byte	0
 5159 06f0 FF        		.byte	-1
 5160 06f1 FF        		.byte	-1
 5161 06f2 FF        		.byte	-1
 5162 06f3 3F        		.byte	63
 5163 06f4 DF        		.byte	-33
 5164 06f5 EF        		.byte	-17
 5165 06f6 EF        		.byte	-17
 5166 06f7 DF        		.byte	-33
 5167 06f8 3F        		.byte	63
 5168 06f9 FF        		.byte	-1
 5169 06fa FF        		.byte	-1
 5170 06fb FF        		.byte	-1
 5171 06fc FF        		.byte	-1
 5172 06fd FF        		.byte	-1
 5173 06fe FF        		.byte	-1
 5174 06ff FC        		.byte	-4
 5175 0700 FB        		.byte	-5
 5176 0701 F7        		.byte	-9
 5177 0702 F7        		.byte	-9
 5178 0703 FB        		.byte	-5
 5179 0704 FC        		.byte	-4
 5180 0705 FF        		.byte	-1
 5181 0706 FF        		.byte	-1
 5182 0707 FF        		.byte	-1
 5183 0708 00        		.byte	0
 5184 0709 80        		.byte	-128
 5185 070a C0        		.byte	-64
 5186 070b 60        		.byte	96
 5187 070c 20        		.byte	32
 5188 070d 20        		.byte	32
 5189 070e 60        		.byte	96
 5190 070f C8        		.byte	-56
 5191 0710 A8        		.byte	-88
 5192 0711 18        		.byte	24
 5193 0712 78        		.byte	120
 5194 0713 00        		.byte	0
 5195 0714 00        		.byte	0
 5196 0715 03        		.byte	3
 5197 0716 07        		.byte	7
 5198 0717 0C        		.byte	12
 5199 0718 08        		.byte	8
 5200 0719 08        		.byte	8
 5201 071a 0C        		.byte	12
 5202 071b 07        		.byte	7
 5203 071c 03        		.byte	3
 5204 071d 00        		.byte	0
 5205 071e 00        		.byte	0
 5206 071f 00        		.byte	0
 5207 0720 00        		.byte	0
 5208 0721 00        		.byte	0
 5209 0722 00        		.byte	0
 5210 0723 70        		.byte	112
 5211 0724 F8        		.byte	-8
 5212 0725 8C        		.byte	-116
 5213 0726 04        		.byte	4
 5214 0727 04        		.byte	4
 5215 0728 8C        		.byte	-116
 5216 0729 F8        		.byte	-8
 5217 072a 70        		.byte	112
 5218 072b 00        		.byte	0
 5219 072c 00        		.byte	0
 5220 072d 00        		.byte	0
 5221 072e 00        		.byte	0
 5222 072f 00        		.byte	0
 5223 0730 08        		.byte	8
 5224 0731 09        		.byte	9
 5225 0732 3F        		.byte	63
 5226 0733 3F        		.byte	63
 5227 0734 09        		.byte	9
 5228 0735 08        		.byte	8
 5229 0736 00        		.byte	0
 5230 0737 00        		.byte	0
 5231 0738 00        		.byte	0
 5232 0739 00        		.byte	0
 5233 073a 00        		.byte	0
 5234 073b 00        		.byte	0
 5235 073c 00        		.byte	0
 5236 073d 00        		.byte	0
 5237 073e FF        		.byte	-1
 5238 073f 0E        		.byte	14
 5239 0740 7C        		.byte	124
 5240 0741 38        		.byte	56
 5241 0742 00        		.byte	0
 5242 0743 00        		.byte	0
 5243 0744 00        		.byte	0
 5244 0745 00        		.byte	0
 5245 0746 00        		.byte	0
 5246 0747 0C        		.byte	12
 5247 0748 1E        		.byte	30
 5248 0749 1E        		.byte	30
 5249 074a 0F        		.byte	15
 5250 074b 00        		.byte	0
 5251 074c 00        		.byte	0
 5252 074d 00        		.byte	0
 5253 074e 00        		.byte	0
 5254 074f 00        		.byte	0
 5255 0750 00        		.byte	0
 5256 0751 00        		.byte	0
 5257 0752 00        		.byte	0
 5258 0753 00        		.byte	0
 5259 0754 FF        		.byte	-1
 5260 0755 33        		.byte	51
 5261 0756 66        		.byte	102
 5262 0757 CC        		.byte	-52
 5263 0758 98        		.byte	-104
 5264 0759 F0        		.byte	-16
 5265 075a 00        		.byte	0
 5266 075b 00        		.byte	0
 5267 075c 00        		.byte	0
 5268 075d 06        		.byte	6
 5269 075e 0F        		.byte	15
 5270 075f 0F        		.byte	15
 5271 0760 07        		.byte	7
 5272 0761 00        		.byte	0
 5273 0762 30        		.byte	48
 5274 0763 78        		.byte	120
 5275 0764 79        		.byte	121
 5276 0765 3F        		.byte	63
 5277 0766 00        		.byte	0
 5278 0767 00        		.byte	0
 5279 0768 00        		.byte	0
 5280 0769 80        		.byte	-128
 5281 076a C8        		.byte	-56
 5282 076b F0        		.byte	-16
 5283 076c 30        		.byte	48
 5284 076d 18        		.byte	24
 5285 076e 1E        		.byte	30
 5286 076f 18        		.byte	24
 5287 0770 30        		.byte	48
 5288 0771 F0        		.byte	-16
 5289 0772 C8        		.byte	-56
 5290 0773 80        		.byte	-128
 5291 0774 00        		.byte	0
 5292 0775 00        		.byte	0
 5293 0776 09        		.byte	9
 5294 0777 07        		.byte	7
 5295 0778 06        		.byte	6
 5296 0779 0C        		.byte	12
 5297 077a 3C        		.byte	60
 5298 077b 0C        		.byte	12
 5299 077c 06        		.byte	6
 5300 077d 07        		.byte	7
 5301 077e 09        		.byte	9
 5302 077f 00        		.byte	0
 5303 0780 00        		.byte	0
 5304 0781 00        		.byte	0
 5305 0782 00        		.byte	0
 5306 0783 FC        		.byte	-4
 5307 0784 F8        		.byte	-8
 5308 0785 F0        		.byte	-16
 5309 0786 E0        		.byte	-32
 5310 0787 C0        		.byte	-64
 5311 0788 80        		.byte	-128
 5312 0789 00        		.byte	0
 5313 078a 00        		.byte	0
 5314 078b 00        		.byte	0
 5315 078c 00        		.byte	0
 5316 078d 00        		.byte	0
 5317 078e 00        		.byte	0
 5318 078f 1F        		.byte	31
 5319 0790 0F        		.byte	15
 5320 0791 07        		.byte	7
 5321 0792 03        		.byte	3
 5322 0793 01        		.byte	1
 5323 0794 00        		.byte	0
 5324 0795 00        		.byte	0
 5325 0796 00        		.byte	0
 5326 0797 00        		.byte	0
 5327 0798 00        		.byte	0
 5328 0799 00        		.byte	0
 5329 079a 00        		.byte	0
 5330 079b 80        		.byte	-128
 5331 079c C0        		.byte	-64
 5332 079d E0        		.byte	-32
 5333 079e F0        		.byte	-16
 5334 079f F8        		.byte	-8
 5335 07a0 FC        		.byte	-4
 5336 07a1 00        		.byte	0
 5337 07a2 00        		.byte	0
 5338 07a3 00        		.byte	0
 5339 07a4 00        		.byte	0
 5340 07a5 00        		.byte	0
 5341 07a6 00        		.byte	0
 5342 07a7 00        		.byte	0
 5343 07a8 01        		.byte	1
 5344 07a9 03        		.byte	3
 5345 07aa 07        		.byte	7
 5346 07ab 0F        		.byte	15
 5347 07ac 1F        		.byte	31
 5348 07ad 00        		.byte	0
 5349 07ae 00        		.byte	0
 5350 07af 00        		.byte	0
 5351 07b0 00        		.byte	0
 5352 07b1 00        		.byte	0
 5353 07b2 00        		.byte	0
 5354 07b3 10        		.byte	16
 5355 07b4 18        		.byte	24
 5356 07b5 1C        		.byte	28
 5357 07b6 FE        		.byte	-2
 5358 07b7 1C        		.byte	28
 5359 07b8 18        		.byte	24
 5360 07b9 10        		.byte	16
 5361 07ba 00        		.byte	0
 5362 07bb 00        		.byte	0
 5363 07bc 00        		.byte	0
 5364 07bd 00        		.byte	0
 5365 07be 00        		.byte	0
 5366 07bf 04        		.byte	4
 5367 07c0 0C        		.byte	12
 5368 07c1 1C        		.byte	28
 5369 07c2 3F        		.byte	63
 5370 07c3 1C        		.byte	28
 5371 07c4 0C        		.byte	12
 5372 07c5 04        		.byte	4
 5373 07c6 00        		.byte	0
 5374 07c7 00        		.byte	0
 5375 07c8 00        		.byte	0
 5376 07c9 00        		.byte	0
 5377 07ca 00        		.byte	0
 5378 07cb FE        		.byte	-2
 5379 07cc FE        		.byte	-2
 5380 07cd 00        		.byte	0
 5381 07ce 00        		.byte	0
 5382 07cf FE        		.byte	-2
 5383 07d0 FE        		.byte	-2
 5384 07d1 00        		.byte	0
 5385 07d2 00        		.byte	0
 5386 07d3 00        		.byte	0
 5387 07d4 00        		.byte	0
 5388 07d5 00        		.byte	0
 5389 07d6 00        		.byte	0
 5390 07d7 37        		.byte	55
 5391 07d8 37        		.byte	55
 5392 07d9 00        		.byte	0
 5393 07da 00        		.byte	0
 5394 07db 37        		.byte	55
 5395 07dc 37        		.byte	55
 5396 07dd 00        		.byte	0
 5397 07de 00        		.byte	0
 5398 07df 00        		.byte	0
 5399 07e0 00        		.byte	0
 5400 07e1 38        		.byte	56
 5401 07e2 7C        		.byte	124
 5402 07e3 C6        		.byte	-58
 5403 07e4 82        		.byte	-126
 5404 07e5 FE        		.byte	-2
 5405 07e6 FE        		.byte	-2
 5406 07e7 02        		.byte	2
 5407 07e8 FE        		.byte	-2
 5408 07e9 FE        		.byte	-2
 5409 07ea 02        		.byte	2
 5410 07eb 00        		.byte	0
 5411 07ec 00        		.byte	0
 5412 07ed 00        		.byte	0
 5413 07ee 00        		.byte	0
 5414 07ef 00        		.byte	0
 5415 07f0 00        		.byte	0
 5416 07f1 3F        		.byte	63
 5417 07f2 3F        		.byte	63
 5418 07f3 00        		.byte	0
 5419 07f4 3F        		.byte	63
 5420 07f5 3F        		.byte	63
 5421 07f6 00        		.byte	0
 5422 07f7 00        		.byte	0
 5423 07f8 00        		.byte	0
 5424 07f9 00        		.byte	0
 5425 07fa DC        		.byte	-36
 5426 07fb FE        		.byte	-2
 5427 07fc 22        		.byte	34
 5428 07fd 22        		.byte	34
 5429 07fe 22        		.byte	34
 5430 07ff 22        		.byte	34
 5431 0800 E6        		.byte	-26
 5432 0801 C4        		.byte	-60
 5433 0802 00        		.byte	0
 5434 0803 00        		.byte	0
 5435 0804 00        		.byte	0
 5436 0805 00        		.byte	0
 5437 0806 08        		.byte	8
 5438 0807 19        		.byte	25
 5439 0808 11        		.byte	17
 5440 0809 11        		.byte	17
 5441 080a 11        		.byte	17
 5442 080b 11        		.byte	17
 5443 080c 1F        		.byte	31
 5444 080d 0E        		.byte	14
 5445 080e 00        		.byte	0
 5446 080f 00        		.byte	0
 5447 0810 00        		.byte	0
 5448 0811 00        		.byte	0
 5449 0812 00        		.byte	0
 5450 0813 00        		.byte	0
 5451 0814 00        		.byte	0
 5452 0815 00        		.byte	0
 5453 0816 00        		.byte	0
 5454 0817 00        		.byte	0
 5455 0818 00        		.byte	0
 5456 0819 00        		.byte	0
 5457 081a 00        		.byte	0
 5458 081b 00        		.byte	0
 5459 081c 00        		.byte	0
 5460 081d 00        		.byte	0
 5461 081e 00        		.byte	0
 5462 081f 38        		.byte	56
 5463 0820 38        		.byte	56
 5464 0821 38        		.byte	56
 5465 0822 38        		.byte	56
 5466 0823 38        		.byte	56
 5467 0824 38        		.byte	56
 5468 0825 38        		.byte	56
 5469 0826 38        		.byte	56
 5470 0827 00        		.byte	0
 5471 0828 00        		.byte	0
 5472 0829 00        		.byte	0
 5473 082a 00        		.byte	0
 5474 082b 08        		.byte	8
 5475 082c 0C        		.byte	12
 5476 082d 0E        		.byte	14
 5477 082e FF        		.byte	-1
 5478 082f 0E        		.byte	14
 5479 0830 0C        		.byte	12
 5480 0831 08        		.byte	8
 5481 0832 00        		.byte	0
 5482 0833 00        		.byte	0
 5483 0834 00        		.byte	0
 5484 0835 00        		.byte	0
 5485 0836 00        		.byte	0
 5486 0837 44        		.byte	68
 5487 0838 4C        		.byte	76
 5488 0839 5C        		.byte	92
 5489 083a 7F        		.byte	127
 5490 083b 5C        		.byte	92
 5491 083c 4C        		.byte	76
 5492 083d 44        		.byte	68
 5493 083e 00        		.byte	0
 5494 083f 00        		.byte	0
 5495 0840 00        		.byte	0
 5496 0841 00        		.byte	0
 5497 0842 00        		.byte	0
 5498 0843 10        		.byte	16
 5499 0844 18        		.byte	24
 5500 0845 1C        		.byte	28
 5501 0846 FE        		.byte	-2
 5502 0847 1C        		.byte	28
 5503 0848 18        		.byte	24
 5504 0849 10        		.byte	16
 5505 084a 00        		.byte	0
 5506 084b 00        		.byte	0
 5507 084c 00        		.byte	0
 5508 084d 00        		.byte	0
 5509 084e 00        		.byte	0
 5510 084f 00        		.byte	0
 5511 0850 00        		.byte	0
 5512 0851 00        		.byte	0
 5513 0852 3F        		.byte	63
 5514 0853 00        		.byte	0
 5515 0854 00        		.byte	0
 5516 0855 00        		.byte	0
 5517 0856 00        		.byte	0
 5518 0857 00        		.byte	0
 5519 0858 00        		.byte	0
 5520 0859 00        		.byte	0
 5521 085a 00        		.byte	0
 5522 085b 00        		.byte	0
 5523 085c 00        		.byte	0
 5524 085d 00        		.byte	0
 5525 085e FE        		.byte	-2
 5526 085f 00        		.byte	0
 5527 0860 00        		.byte	0
 5528 0861 00        		.byte	0
 5529 0862 00        		.byte	0
 5530 0863 00        		.byte	0
 5531 0864 00        		.byte	0
 5532 0865 00        		.byte	0
 5533 0866 00        		.byte	0
 5534 0867 04        		.byte	4
 5535 0868 0C        		.byte	12
 5536 0869 1C        		.byte	28
 5537 086a 3F        		.byte	63
 5538 086b 1C        		.byte	28
 5539 086c 0C        		.byte	12
 5540 086d 04        		.byte	4
 5541 086e 00        		.byte	0
 5542 086f 00        		.byte	0
 5543 0870 00        		.byte	0
 5544 0871 00        		.byte	0
 5545 0872 80        		.byte	-128
 5546 0873 80        		.byte	-128
 5547 0874 80        		.byte	-128
 5548 0875 80        		.byte	-128
 5549 0876 80        		.byte	-128
 5550 0877 F0        		.byte	-16
 5551 0878 E0        		.byte	-32
 5552 0879 C0        		.byte	-64
 5553 087a 80        		.byte	-128
 5554 087b 00        		.byte	0
 5555 087c 00        		.byte	0
 5556 087d 00        		.byte	0
 5557 087e 00        		.byte	0
 5558 087f 00        		.byte	0
 5559 0880 00        		.byte	0
 5560 0881 00        		.byte	0
 5561 0882 00        		.byte	0
 5562 0883 07        		.byte	7
 5563 0884 03        		.byte	3
 5564 0885 01        		.byte	1
 5565 0886 00        		.byte	0
 5566 0887 00        		.byte	0
 5567 0888 00        		.byte	0
 5568 0889 00        		.byte	0
 5569 088a 80        		.byte	-128
 5570 088b C0        		.byte	-64
 5571 088c E0        		.byte	-32
 5572 088d F0        		.byte	-16
 5573 088e 80        		.byte	-128
 5574 088f 80        		.byte	-128
 5575 0890 80        		.byte	-128
 5576 0891 80        		.byte	-128
 5577 0892 80        		.byte	-128
 5578 0893 00        		.byte	0
 5579 0894 00        		.byte	0
 5580 0895 00        		.byte	0
 5581 0896 00        		.byte	0
 5582 0897 01        		.byte	1
 5583 0898 03        		.byte	3
 5584 0899 07        		.byte	7
 5585 089a 00        		.byte	0
 5586 089b 00        		.byte	0
 5587 089c 00        		.byte	0
 5588 089d 00        		.byte	0
 5589 089e 00        		.byte	0
 5590 089f 00        		.byte	0
 5591 08a0 00        		.byte	0
 5592 08a1 00        		.byte	0
 5593 08a2 00        		.byte	0
 5594 08a3 00        		.byte	0
 5595 08a4 00        		.byte	0
 5596 08a5 00        		.byte	0
 5597 08a6 00        		.byte	0
 5598 08a7 00        		.byte	0
 5599 08a8 00        		.byte	0
 5600 08a9 00        		.byte	0
 5601 08aa 00        		.byte	0
 5602 08ab 00        		.byte	0
 5603 08ac 00        		.byte	0
 5604 08ad 3F        		.byte	63
 5605 08ae 20        		.byte	32
 5606 08af 20        		.byte	32
 5607 08b0 20        		.byte	32
 5608 08b1 20        		.byte	32
 5609 08b2 20        		.byte	32
 5610 08b3 20        		.byte	32
 5611 08b4 20        		.byte	32
 5612 08b5 20        		.byte	32
 5613 08b6 20        		.byte	32
 5614 08b7 00        		.byte	0
 5615 08b8 00        		.byte	0
 5616 08b9 80        		.byte	-128
 5617 08ba C0        		.byte	-64
 5618 08bb E0        		.byte	-32
 5619 08bc F0        		.byte	-16
 5620 08bd 80        		.byte	-128
 5621 08be 80        		.byte	-128
 5622 08bf 80        		.byte	-128
 5623 08c0 F0        		.byte	-16
 5624 08c1 E0        		.byte	-32
 5625 08c2 C0        		.byte	-64
 5626 08c3 80        		.byte	-128
 5627 08c4 00        		.byte	0
 5628 08c5 00        		.byte	0
 5629 08c6 01        		.byte	1
 5630 08c7 03        		.byte	3
 5631 08c8 07        		.byte	7
 5632 08c9 00        		.byte	0
 5633 08ca 00        		.byte	0
 5634 08cb 00        		.byte	0
 5635 08cc 07        		.byte	7
 5636 08cd 03        		.byte	3
 5637 08ce 01        		.byte	1
 5638 08cf 00        		.byte	0
 5639 08d0 00        		.byte	0
 5640 08d1 00        		.byte	0
 5641 08d2 00        		.byte	0
 5642 08d3 00        		.byte	0
 5643 08d4 80        		.byte	-128
 5644 08d5 C0        		.byte	-64
 5645 08d6 E0        		.byte	-32
 5646 08d7 C0        		.byte	-64
 5647 08d8 80        		.byte	-128
 5648 08d9 00        		.byte	0
 5649 08da 00        		.byte	0
 5650 08db 00        		.byte	0
 5651 08dc 00        		.byte	0
 5652 08dd 04        		.byte	4
 5653 08de 06        		.byte	6
 5654 08df 07        		.byte	7
 5655 08e0 07        		.byte	7
 5656 08e1 07        		.byte	7
 5657 08e2 07        		.byte	7
 5658 08e3 07        		.byte	7
 5659 08e4 07        		.byte	7
 5660 08e5 07        		.byte	7
 5661 08e6 06        		.byte	6
 5662 08e7 04        		.byte	4
 5663 08e8 00        		.byte	0
 5664 08e9 20        		.byte	32
 5665 08ea 60        		.byte	96
 5666 08eb E0        		.byte	-32
 5667 08ec E0        		.byte	-32
 5668 08ed E0        		.byte	-32
 5669 08ee E0        		.byte	-32
 5670 08ef E0        		.byte	-32
 5671 08f0 E0        		.byte	-32
 5672 08f1 E0        		.byte	-32
 5673 08f2 60        		.byte	96
 5674 08f3 20        		.byte	32
 5675 08f4 00        		.byte	0
 5676 08f5 00        		.byte	0
 5677 08f6 00        		.byte	0
 5678 08f7 00        		.byte	0
 5679 08f8 01        		.byte	1
 5680 08f9 03        		.byte	3
 5681 08fa 07        		.byte	7
 5682 08fb 03        		.byte	3
 5683 08fc 01        		.byte	1
 5684 08fd 00        		.byte	0
 5685 08fe 00        		.byte	0
 5686 08ff 00        		.byte	0
 5687 0900 00        		.byte	0
 5688 0901 00        		.byte	0
 5689 0902 00        		.byte	0
 5690 0903 00        		.byte	0
 5691 0904 00        		.byte	0
 5692 0905 00        		.byte	0
 5693 0906 00        		.byte	0
 5694 0907 00        		.byte	0
 5695 0908 00        		.byte	0
 5696 0909 00        		.byte	0
 5697 090a 00        		.byte	0
 5698 090b 00        		.byte	0
 5699 090c 00        		.byte	0
 5700 090d 00        		.byte	0
 5701 090e 00        		.byte	0
 5702 090f 00        		.byte	0
 5703 0910 00        		.byte	0
 5704 0911 00        		.byte	0
 5705 0912 00        		.byte	0
 5706 0913 00        		.byte	0
 5707 0914 00        		.byte	0
 5708 0915 00        		.byte	0
 5709 0916 00        		.byte	0
 5710 0917 00        		.byte	0
 5711 0918 00        		.byte	0
 5712 0919 00        		.byte	0
 5713 091a 00        		.byte	0
 5714 091b 00        		.byte	0
 5715 091c 7C        		.byte	124
 5716 091d FF        		.byte	-1
 5717 091e FF        		.byte	-1
 5718 091f 7C        		.byte	124
 5719 0920 00        		.byte	0
 5720 0921 00        		.byte	0
 5721 0922 00        		.byte	0
 5722 0923 00        		.byte	0
 5723 0924 00        		.byte	0
 5724 0925 00        		.byte	0
 5725 0926 00        		.byte	0
 5726 0927 00        		.byte	0
 5727 0928 00        		.byte	0
 5728 0929 33        		.byte	51
 5729 092a 33        		.byte	51
 5730 092b 00        		.byte	0
 5731 092c 00        		.byte	0
 5732 092d 00        		.byte	0
 5733 092e 00        		.byte	0
 5734 092f 00        		.byte	0
 5735 0930 00        		.byte	0
 5736 0931 00        		.byte	0
 5737 0932 00        		.byte	0
 5738 0933 3C        		.byte	60
 5739 0934 3C        		.byte	60
 5740 0935 00        		.byte	0
 5741 0936 00        		.byte	0
 5742 0937 3C        		.byte	60
 5743 0938 3C        		.byte	60
 5744 0939 00        		.byte	0
 5745 093a 00        		.byte	0
 5746 093b 00        		.byte	0
 5747 093c 00        		.byte	0
 5748 093d 00        		.byte	0
 5749 093e 00        		.byte	0
 5750 093f 00        		.byte	0
 5751 0940 00        		.byte	0
 5752 0941 00        		.byte	0
 5753 0942 00        		.byte	0
 5754 0943 00        		.byte	0
 5755 0944 00        		.byte	0
 5756 0945 00        		.byte	0
 5757 0946 00        		.byte	0
 5758 0947 00        		.byte	0
 5759 0948 00        		.byte	0
 5760 0949 00        		.byte	0
 5761 094a 10        		.byte	16
 5762 094b 90        		.byte	-112
 5763 094c F0        		.byte	-16
 5764 094d 7E        		.byte	126
 5765 094e 1E        		.byte	30
 5766 094f 90        		.byte	-112
 5767 0950 F0        		.byte	-16
 5768 0951 7E        		.byte	126
 5769 0952 1E        		.byte	30
 5770 0953 10        		.byte	16
 5771 0954 00        		.byte	0
 5772 0955 02        		.byte	2
 5773 0956 1E        		.byte	30
 5774 0957 1F        		.byte	31
 5775 0958 03        		.byte	3
 5776 0959 02        		.byte	2
 5777 095a 1E        		.byte	30
 5778 095b 1F        		.byte	31
 5779 095c 03        		.byte	3
 5780 095d 02        		.byte	2
 5781 095e 00        		.byte	0
 5782 095f 00        		.byte	0
 5783 0960 00        		.byte	0
 5784 0961 00        		.byte	0
 5785 0962 78        		.byte	120
 5786 0963 FC        		.byte	-4
 5787 0964 CC        		.byte	-52
 5788 0965 FF        		.byte	-1
 5789 0966 FF        		.byte	-1
 5790 0967 CC        		.byte	-52
 5791 0968 CC        		.byte	-52
 5792 0969 88        		.byte	-120
 5793 096a 00        		.byte	0
 5794 096b 00        		.byte	0
 5795 096c 00        		.byte	0
 5796 096d 00        		.byte	0
 5797 096e 04        		.byte	4
 5798 096f 0C        		.byte	12
 5799 0970 0C        		.byte	12
 5800 0971 3F        		.byte	63
 5801 0972 3F        		.byte	63
 5802 0973 0C        		.byte	12
 5803 0974 0F        		.byte	15
 5804 0975 07        		.byte	7
 5805 0976 00        		.byte	0
 5806 0977 00        		.byte	0
 5807 0978 00        		.byte	0
 5808 0979 00        		.byte	0
 5809 097a 38        		.byte	56
 5810 097b 38        		.byte	56
 5811 097c 38        		.byte	56
 5812 097d 00        		.byte	0
 5813 097e 80        		.byte	-128
 5814 097f C0        		.byte	-64
 5815 0980 E0        		.byte	-32
 5816 0981 70        		.byte	112
 5817 0982 38        		.byte	56
 5818 0983 1C        		.byte	28
 5819 0984 00        		.byte	0
 5820 0985 30        		.byte	48
 5821 0986 38        		.byte	56
 5822 0987 1C        		.byte	28
 5823 0988 0E        		.byte	14
 5824 0989 07        		.byte	7
 5825 098a 03        		.byte	3
 5826 098b 01        		.byte	1
 5827 098c 38        		.byte	56
 5828 098d 38        		.byte	56
 5829 098e 38        		.byte	56
 5830 098f 00        		.byte	0
 5831 0990 00        		.byte	0
 5832 0991 00        		.byte	0
 5833 0992 00        		.byte	0
 5834 0993 B8        		.byte	-72
 5835 0994 FC        		.byte	-4
 5836 0995 C6        		.byte	-58
 5837 0996 E2        		.byte	-30
 5838 0997 3E        		.byte	62
 5839 0998 1C        		.byte	28
 5840 0999 00        		.byte	0
 5841 099a 00        		.byte	0
 5842 099b 00        		.byte	0
 5843 099c 00        		.byte	0
 5844 099d 00        		.byte	0
 5845 099e 1F        		.byte	31
 5846 099f 3F        		.byte	63
 5847 09a0 31        		.byte	49
 5848 09a1 21        		.byte	33
 5849 09a2 37        		.byte	55
 5850 09a3 1E        		.byte	30
 5851 09a4 1C        		.byte	28
 5852 09a5 36        		.byte	54
 5853 09a6 22        		.byte	34
 5854 09a7 00        		.byte	0
 5855 09a8 00        		.byte	0
 5856 09a9 00        		.byte	0
 5857 09aa 00        		.byte	0
 5858 09ab 00        		.byte	0
 5859 09ac 27        		.byte	39
 5860 09ad 3F        		.byte	63
 5861 09ae 1F        		.byte	31
 5862 09af 00        		.byte	0
 5863 09b0 00        		.byte	0
 5864 09b1 00        		.byte	0
 5865 09b2 00        		.byte	0
 5866 09b3 00        		.byte	0
 5867 09b4 00        		.byte	0
 5868 09b5 00        		.byte	0
 5869 09b6 00        		.byte	0
 5870 09b7 00        		.byte	0
 5871 09b8 00        		.byte	0
 5872 09b9 00        		.byte	0
 5873 09ba 00        		.byte	0
 5874 09bb 00        		.byte	0
 5875 09bc 00        		.byte	0
 5876 09bd 00        		.byte	0
 5877 09be 00        		.byte	0
 5878 09bf 00        		.byte	0
 5879 09c0 00        		.byte	0
 5880 09c1 00        		.byte	0
 5881 09c2 00        		.byte	0
 5882 09c3 F0        		.byte	-16
 5883 09c4 FC        		.byte	-4
 5884 09c5 FE        		.byte	-2
 5885 09c6 07        		.byte	7
 5886 09c7 01        		.byte	1
 5887 09c8 01        		.byte	1
 5888 09c9 00        		.byte	0
 5889 09ca 00        		.byte	0
 5890 09cb 00        		.byte	0
 5891 09cc 00        		.byte	0
 5892 09cd 00        		.byte	0
 5893 09ce 00        		.byte	0
 5894 09cf 03        		.byte	3
 5895 09d0 0F        		.byte	15
 5896 09d1 1F        		.byte	31
 5897 09d2 38        		.byte	56
 5898 09d3 20        		.byte	32
 5899 09d4 20        		.byte	32
 5900 09d5 00        		.byte	0
 5901 09d6 00        		.byte	0
 5902 09d7 00        		.byte	0
 5903 09d8 00        		.byte	0
 5904 09d9 00        		.byte	0
 5905 09da 00        		.byte	0
 5906 09db 01        		.byte	1
 5907 09dc 01        		.byte	1
 5908 09dd 07        		.byte	7
 5909 09de FE        		.byte	-2
 5910 09df FC        		.byte	-4
 5911 09e0 F0        		.byte	-16
 5912 09e1 00        		.byte	0
 5913 09e2 00        		.byte	0
 5914 09e3 00        		.byte	0
 5915 09e4 00        		.byte	0
 5916 09e5 00        		.byte	0
 5917 09e6 00        		.byte	0
 5918 09e7 20        		.byte	32
 5919 09e8 20        		.byte	32
 5920 09e9 38        		.byte	56
 5921 09ea 1F        		.byte	31
 5922 09eb 0F        		.byte	15
 5923 09ec 03        		.byte	3
 5924 09ed 00        		.byte	0
 5925 09ee 00        		.byte	0
 5926 09ef 00        		.byte	0
 5927 09f0 00        		.byte	0
 5928 09f1 00        		.byte	0
 5929 09f2 98        		.byte	-104
 5930 09f3 B8        		.byte	-72
 5931 09f4 E0        		.byte	-32
 5932 09f5 F8        		.byte	-8
 5933 09f6 F8        		.byte	-8
 5934 09f7 E0        		.byte	-32
 5935 09f8 B8        		.byte	-72
 5936 09f9 98        		.byte	-104
 5937 09fa 00        		.byte	0
 5938 09fb 00        		.byte	0
 5939 09fc 00        		.byte	0
 5940 09fd 00        		.byte	0
 5941 09fe 0C        		.byte	12
 5942 09ff 0E        		.byte	14
 5943 0a00 03        		.byte	3
 5944 0a01 0F        		.byte	15
 5945 0a02 0F        		.byte	15
 5946 0a03 03        		.byte	3
 5947 0a04 0E        		.byte	14
 5948 0a05 0C        		.byte	12
 5949 0a06 00        		.byte	0
 5950 0a07 00        		.byte	0
 5951 0a08 00        		.byte	0
 5952 0a09 00        		.byte	0
 5953 0a0a 80        		.byte	-128
 5954 0a0b 80        		.byte	-128
 5955 0a0c 80        		.byte	-128
 5956 0a0d F0        		.byte	-16
 5957 0a0e F0        		.byte	-16
 5958 0a0f 80        		.byte	-128
 5959 0a10 80        		.byte	-128
 5960 0a11 80        		.byte	-128
 5961 0a12 00        		.byte	0
 5962 0a13 00        		.byte	0
 5963 0a14 00        		.byte	0
 5964 0a15 00        		.byte	0
 5965 0a16 01        		.byte	1
 5966 0a17 01        		.byte	1
 5967 0a18 01        		.byte	1
 5968 0a19 0F        		.byte	15
 5969 0a1a 0F        		.byte	15
 5970 0a1b 01        		.byte	1
 5971 0a1c 01        		.byte	1
 5972 0a1d 01        		.byte	1
 5973 0a1e 00        		.byte	0
 5974 0a1f 00        		.byte	0
 5975 0a20 00        		.byte	0
 5976 0a21 00        		.byte	0
 5977 0a22 00        		.byte	0
 5978 0a23 00        		.byte	0
 5979 0a24 00        		.byte	0
 5980 0a25 00        		.byte	0
 5981 0a26 00        		.byte	0
 5982 0a27 00        		.byte	0
 5983 0a28 00        		.byte	0
 5984 0a29 00        		.byte	0
 5985 0a2a 00        		.byte	0
 5986 0a2b 00        		.byte	0
 5987 0a2c 00        		.byte	0
 5988 0a2d 00        		.byte	0
 5989 0a2e 00        		.byte	0
 5990 0a2f 00        		.byte	0
 5991 0a30 B8        		.byte	-72
 5992 0a31 F8        		.byte	-8
 5993 0a32 78        		.byte	120
 5994 0a33 00        		.byte	0
 5995 0a34 00        		.byte	0
 5996 0a35 00        		.byte	0
 5997 0a36 00        		.byte	0
 5998 0a37 00        		.byte	0
 5999 0a38 00        		.byte	0
 6000 0a39 00        		.byte	0
 6001 0a3a 80        		.byte	-128
 6002 0a3b 80        		.byte	-128
 6003 0a3c 80        		.byte	-128
 6004 0a3d 80        		.byte	-128
 6005 0a3e 80        		.byte	-128
 6006 0a3f 80        		.byte	-128
 6007 0a40 80        		.byte	-128
 6008 0a41 80        		.byte	-128
 6009 0a42 00        		.byte	0
 6010 0a43 00        		.byte	0
 6011 0a44 00        		.byte	0
 6012 0a45 00        		.byte	0
 6013 0a46 01        		.byte	1
 6014 0a47 01        		.byte	1
 6015 0a48 01        		.byte	1
 6016 0a49 01        		.byte	1
 6017 0a4a 01        		.byte	1
 6018 0a4b 01        		.byte	1
 6019 0a4c 01        		.byte	1
 6020 0a4d 01        		.byte	1
 6021 0a4e 00        		.byte	0
 6022 0a4f 00        		.byte	0
 6023 0a50 00        		.byte	0
 6024 0a51 00        		.byte	0
 6025 0a52 00        		.byte	0
 6026 0a53 00        		.byte	0
 6027 0a54 00        		.byte	0
 6028 0a55 00        		.byte	0
 6029 0a56 00        		.byte	0
 6030 0a57 00        		.byte	0
 6031 0a58 00        		.byte	0
 6032 0a59 00        		.byte	0
 6033 0a5a 00        		.byte	0
 6034 0a5b 00        		.byte	0
 6035 0a5c 00        		.byte	0
 6036 0a5d 00        		.byte	0
 6037 0a5e 00        		.byte	0
 6038 0a5f 00        		.byte	0
 6039 0a60 38        		.byte	56
 6040 0a61 38        		.byte	56
 6041 0a62 38        		.byte	56
 6042 0a63 00        		.byte	0
 6043 0a64 00        		.byte	0
 6044 0a65 00        		.byte	0
 6045 0a66 00        		.byte	0
 6046 0a67 00        		.byte	0
 6047 0a68 00        		.byte	0
 6048 0a69 00        		.byte	0
 6049 0a6a 00        		.byte	0
 6050 0a6b 00        		.byte	0
 6051 0a6c 00        		.byte	0
 6052 0a6d 80        		.byte	-128
 6053 0a6e C0        		.byte	-64
 6054 0a6f E0        		.byte	-32
 6055 0a70 70        		.byte	112
 6056 0a71 38        		.byte	56
 6057 0a72 1C        		.byte	28
 6058 0a73 0E        		.byte	14
 6059 0a74 00        		.byte	0
 6060 0a75 18        		.byte	24
 6061 0a76 1C        		.byte	28
 6062 0a77 0E        		.byte	14
 6063 0a78 07        		.byte	7
 6064 0a79 03        		.byte	3
 6065 0a7a 01        		.byte	1
 6066 0a7b 00        		.byte	0
 6067 0a7c 00        		.byte	0
 6068 0a7d 00        		.byte	0
 6069 0a7e 00        		.byte	0
 6070 0a7f 00        		.byte	0
 6071 0a80 00        		.byte	0
 6072 0a81 F8        		.byte	-8
 6073 0a82 FE        		.byte	-2
 6074 0a83 06        		.byte	6
 6075 0a84 03        		.byte	3
 6076 0a85 83        		.byte	-125
 6077 0a86 C3        		.byte	-61
 6078 0a87 63        		.byte	99
 6079 0a88 33        		.byte	51
 6080 0a89 1E        		.byte	30
 6081 0a8a FE        		.byte	-2
 6082 0a8b F8        		.byte	-8
 6083 0a8c 00        		.byte	0
 6084 0a8d 07        		.byte	7
 6085 0a8e 1F        		.byte	31
 6086 0a8f 1E        		.byte	30
 6087 0a90 33        		.byte	51
 6088 0a91 31        		.byte	49
 6089 0a92 30        		.byte	48
 6090 0a93 30        		.byte	48
 6091 0a94 30        		.byte	48
 6092 0a95 18        		.byte	24
 6093 0a96 1F        		.byte	31
 6094 0a97 07        		.byte	7
 6095 0a98 00        		.byte	0
 6096 0a99 00        		.byte	0
 6097 0a9a 00        		.byte	0
 6098 0a9b 0C        		.byte	12
 6099 0a9c 0C        		.byte	12
 6100 0a9d 0E        		.byte	14
 6101 0a9e FF        		.byte	-1
 6102 0a9f FF        		.byte	-1
 6103 0aa0 00        		.byte	0
 6104 0aa1 00        		.byte	0
 6105 0aa2 00        		.byte	0
 6106 0aa3 00        		.byte	0
 6107 0aa4 00        		.byte	0
 6108 0aa5 00        		.byte	0
 6109 0aa6 00        		.byte	0
 6110 0aa7 30        		.byte	48
 6111 0aa8 30        		.byte	48
 6112 0aa9 30        		.byte	48
 6113 0aaa 3F        		.byte	63
 6114 0aab 3F        		.byte	63
 6115 0aac 30        		.byte	48
 6116 0aad 30        		.byte	48
 6117 0aae 30        		.byte	48
 6118 0aaf 00        		.byte	0
 6119 0ab0 00        		.byte	0
 6120 0ab1 1C        		.byte	28
 6121 0ab2 1E        		.byte	30
 6122 0ab3 07        		.byte	7
 6123 0ab4 03        		.byte	3
 6124 0ab5 03        		.byte	3
 6125 0ab6 83        		.byte	-125
 6126 0ab7 C3        		.byte	-61
 6127 0ab8 E3        		.byte	-29
 6128 0ab9 77        		.byte	119
 6129 0aba 3E        		.byte	62
 6130 0abb 1C        		.byte	28
 6131 0abc 00        		.byte	0
 6132 0abd 30        		.byte	48
 6133 0abe 38        		.byte	56
 6134 0abf 3C        		.byte	60
 6135 0ac0 3E        		.byte	62
 6136 0ac1 37        		.byte	55
 6137 0ac2 33        		.byte	51
 6138 0ac3 31        		.byte	49
 6139 0ac4 30        		.byte	48
 6140 0ac5 30        		.byte	48
 6141 0ac6 30        		.byte	48
 6142 0ac7 30        		.byte	48
 6143 0ac8 00        		.byte	0
 6144 0ac9 0C        		.byte	12
 6145 0aca 0E        		.byte	14
 6146 0acb 07        		.byte	7
 6147 0acc C3        		.byte	-61
 6148 0acd C3        		.byte	-61
 6149 0ace C3        		.byte	-61
 6150 0acf C3        		.byte	-61
 6151 0ad0 C3        		.byte	-61
 6152 0ad1 E7        		.byte	-25
 6153 0ad2 7E        		.byte	126
 6154 0ad3 3C        		.byte	60
 6155 0ad4 00        		.byte	0
 6156 0ad5 0C        		.byte	12
 6157 0ad6 1C        		.byte	28
 6158 0ad7 38        		.byte	56
 6159 0ad8 30        		.byte	48
 6160 0ad9 30        		.byte	48
 6161 0ada 30        		.byte	48
 6162 0adb 30        		.byte	48
 6163 0adc 30        		.byte	48
 6164 0add 39        		.byte	57
 6165 0ade 1F        		.byte	31
 6166 0adf 0E        		.byte	14
 6167 0ae0 00        		.byte	0
 6168 0ae1 C0        		.byte	-64
 6169 0ae2 E0        		.byte	-32
 6170 0ae3 70        		.byte	112
 6171 0ae4 38        		.byte	56
 6172 0ae5 1C        		.byte	28
 6173 0ae6 0E        		.byte	14
 6174 0ae7 07        		.byte	7
 6175 0ae8 FF        		.byte	-1
 6176 0ae9 FF        		.byte	-1
 6177 0aea 00        		.byte	0
 6178 0aeb 00        		.byte	0
 6179 0aec 00        		.byte	0
 6180 0aed 03        		.byte	3
 6181 0aee 03        		.byte	3
 6182 0aef 03        		.byte	3
 6183 0af0 03        		.byte	3
 6184 0af1 03        		.byte	3
 6185 0af2 03        		.byte	3
 6186 0af3 03        		.byte	3
 6187 0af4 3F        		.byte	63
 6188 0af5 3F        		.byte	63
 6189 0af6 03        		.byte	3
 6190 0af7 03        		.byte	3
 6191 0af8 00        		.byte	0
 6192 0af9 3F        		.byte	63
 6193 0afa 7F        		.byte	127
 6194 0afb 63        		.byte	99
 6195 0afc 63        		.byte	99
 6196 0afd 63        		.byte	99
 6197 0afe 63        		.byte	99
 6198 0aff 63        		.byte	99
 6199 0b00 63        		.byte	99
 6200 0b01 E3        		.byte	-29
 6201 0b02 C3        		.byte	-61
 6202 0b03 83        		.byte	-125
 6203 0b04 00        		.byte	0
 6204 0b05 0C        		.byte	12
 6205 0b06 1C        		.byte	28
 6206 0b07 38        		.byte	56
 6207 0b08 30        		.byte	48
 6208 0b09 30        		.byte	48
 6209 0b0a 30        		.byte	48
 6210 0b0b 30        		.byte	48
 6211 0b0c 30        		.byte	48
 6212 0b0d 38        		.byte	56
 6213 0b0e 1F        		.byte	31
 6214 0b0f 0F        		.byte	15
 6215 0b10 00        		.byte	0
 6216 0b11 C0        		.byte	-64
 6217 0b12 F0        		.byte	-16
 6218 0b13 F8        		.byte	-8
 6219 0b14 DC        		.byte	-36
 6220 0b15 CE        		.byte	-50
 6221 0b16 C7        		.byte	-57
 6222 0b17 C3        		.byte	-61
 6223 0b18 C3        		.byte	-61
 6224 0b19 C3        		.byte	-61
 6225 0b1a 80        		.byte	-128
 6226 0b1b 00        		.byte	0
 6227 0b1c 00        		.byte	0
 6228 0b1d 0F        		.byte	15
 6229 0b1e 1F        		.byte	31
 6230 0b1f 39        		.byte	57
 6231 0b20 30        		.byte	48
 6232 0b21 30        		.byte	48
 6233 0b22 30        		.byte	48
 6234 0b23 30        		.byte	48
 6235 0b24 30        		.byte	48
 6236 0b25 39        		.byte	57
 6237 0b26 1F        		.byte	31
 6238 0b27 0F        		.byte	15
 6239 0b28 00        		.byte	0
 6240 0b29 03        		.byte	3
 6241 0b2a 03        		.byte	3
 6242 0b2b 03        		.byte	3
 6243 0b2c 03        		.byte	3
 6244 0b2d 03        		.byte	3
 6245 0b2e 03        		.byte	3
 6246 0b2f C3        		.byte	-61
 6247 0b30 F3        		.byte	-13
 6248 0b31 3F        		.byte	63
 6249 0b32 0F        		.byte	15
 6250 0b33 03        		.byte	3
 6251 0b34 00        		.byte	0
 6252 0b35 00        		.byte	0
 6253 0b36 00        		.byte	0
 6254 0b37 00        		.byte	0
 6255 0b38 30        		.byte	48
 6256 0b39 3C        		.byte	60
 6257 0b3a 0F        		.byte	15
 6258 0b3b 03        		.byte	3
 6259 0b3c 00        		.byte	0
 6260 0b3d 00        		.byte	0
 6261 0b3e 00        		.byte	0
 6262 0b3f 00        		.byte	0
 6263 0b40 00        		.byte	0
 6264 0b41 00        		.byte	0
 6265 0b42 BC        		.byte	-68
 6266 0b43 FE        		.byte	-2
 6267 0b44 E7        		.byte	-25
 6268 0b45 C3        		.byte	-61
 6269 0b46 C3        		.byte	-61
 6270 0b47 C3        		.byte	-61
 6271 0b48 E7        		.byte	-25
 6272 0b49 FE        		.byte	-2
 6273 0b4a BC        		.byte	-68
 6274 0b4b 00        		.byte	0
 6275 0b4c 00        		.byte	0
 6276 0b4d 0F        		.byte	15
 6277 0b4e 1F        		.byte	31
 6278 0b4f 39        		.byte	57
 6279 0b50 30        		.byte	48
 6280 0b51 30        		.byte	48
 6281 0b52 30        		.byte	48
 6282 0b53 30        		.byte	48
 6283 0b54 30        		.byte	48
 6284 0b55 39        		.byte	57
 6285 0b56 1F        		.byte	31
 6286 0b57 0F        		.byte	15
 6287 0b58 00        		.byte	0
 6288 0b59 3C        		.byte	60
 6289 0b5a 7E        		.byte	126
 6290 0b5b E7        		.byte	-25
 6291 0b5c C3        		.byte	-61
 6292 0b5d C3        		.byte	-61
 6293 0b5e C3        		.byte	-61
 6294 0b5f C3        		.byte	-61
 6295 0b60 C3        		.byte	-61
 6296 0b61 E7        		.byte	-25
 6297 0b62 FE        		.byte	-2
 6298 0b63 FC        		.byte	-4
 6299 0b64 00        		.byte	0
 6300 0b65 00        		.byte	0
 6301 0b66 00        		.byte	0
 6302 0b67 30        		.byte	48
 6303 0b68 30        		.byte	48
 6304 0b69 30        		.byte	48
 6305 0b6a 38        		.byte	56
 6306 0b6b 1C        		.byte	28
 6307 0b6c 0E        		.byte	14
 6308 0b6d 07        		.byte	7
 6309 0b6e 03        		.byte	3
 6310 0b6f 00        		.byte	0
 6311 0b70 00        		.byte	0
 6312 0b71 00        		.byte	0
 6313 0b72 00        		.byte	0
 6314 0b73 00        		.byte	0
 6315 0b74 70        		.byte	112
 6316 0b75 70        		.byte	112
 6317 0b76 70        		.byte	112
 6318 0b77 00        		.byte	0
 6319 0b78 00        		.byte	0
 6320 0b79 00        		.byte	0
 6321 0b7a 00        		.byte	0
 6322 0b7b 00        		.byte	0
 6323 0b7c 00        		.byte	0
 6324 0b7d 00        		.byte	0
 6325 0b7e 00        		.byte	0
 6326 0b7f 00        		.byte	0
 6327 0b80 1C        		.byte	28
 6328 0b81 1C        		.byte	28
 6329 0b82 1C        		.byte	28
 6330 0b83 00        		.byte	0
 6331 0b84 00        		.byte	0
 6332 0b85 00        		.byte	0
 6333 0b86 00        		.byte	0
 6334 0b87 00        		.byte	0
 6335 0b88 00        		.byte	0
 6336 0b89 00        		.byte	0
 6337 0b8a 00        		.byte	0
 6338 0b8b 00        		.byte	0
 6339 0b8c 70        		.byte	112
 6340 0b8d 70        		.byte	112
 6341 0b8e 70        		.byte	112
 6342 0b8f 00        		.byte	0
 6343 0b90 00        		.byte	0
 6344 0b91 00        		.byte	0
 6345 0b92 00        		.byte	0
 6346 0b93 00        		.byte	0
 6347 0b94 00        		.byte	0
 6348 0b95 00        		.byte	0
 6349 0b96 00        		.byte	0
 6350 0b97 00        		.byte	0
 6351 0b98 9C        		.byte	-100
 6352 0b99 FC        		.byte	-4
 6353 0b9a 7C        		.byte	124
 6354 0b9b 00        		.byte	0
 6355 0b9c 00        		.byte	0
 6356 0b9d 00        		.byte	0
 6357 0b9e 00        		.byte	0
 6358 0b9f 00        		.byte	0
 6359 0ba0 00        		.byte	0
 6360 0ba1 00        		.byte	0
 6361 0ba2 C0        		.byte	-64
 6362 0ba3 E0        		.byte	-32
 6363 0ba4 F0        		.byte	-16
 6364 0ba5 38        		.byte	56
 6365 0ba6 1C        		.byte	28
 6366 0ba7 0E        		.byte	14
 6367 0ba8 07        		.byte	7
 6368 0ba9 03        		.byte	3
 6369 0baa 00        		.byte	0
 6370 0bab 00        		.byte	0
 6371 0bac 00        		.byte	0
 6372 0bad 00        		.byte	0
 6373 0bae 00        		.byte	0
 6374 0baf 01        		.byte	1
 6375 0bb0 03        		.byte	3
 6376 0bb1 07        		.byte	7
 6377 0bb2 0E        		.byte	14
 6378 0bb3 1C        		.byte	28
 6379 0bb4 38        		.byte	56
 6380 0bb5 30        		.byte	48
 6381 0bb6 00        		.byte	0
 6382 0bb7 00        		.byte	0
 6383 0bb8 00        		.byte	0
 6384 0bb9 00        		.byte	0
 6385 0bba 60        		.byte	96
 6386 0bbb 60        		.byte	96
 6387 0bbc 60        		.byte	96
 6388 0bbd 60        		.byte	96
 6389 0bbe 60        		.byte	96
 6390 0bbf 60        		.byte	96
 6391 0bc0 60        		.byte	96
 6392 0bc1 60        		.byte	96
 6393 0bc2 60        		.byte	96
 6394 0bc3 00        		.byte	0
 6395 0bc4 00        		.byte	0
 6396 0bc5 00        		.byte	0
 6397 0bc6 06        		.byte	6
 6398 0bc7 06        		.byte	6
 6399 0bc8 06        		.byte	6
 6400 0bc9 06        		.byte	6
 6401 0bca 06        		.byte	6
 6402 0bcb 06        		.byte	6
 6403 0bcc 06        		.byte	6
 6404 0bcd 06        		.byte	6
 6405 0bce 06        		.byte	6
 6406 0bcf 00        		.byte	0
 6407 0bd0 00        		.byte	0
 6408 0bd1 00        		.byte	0
 6409 0bd2 03        		.byte	3
 6410 0bd3 07        		.byte	7
 6411 0bd4 0E        		.byte	14
 6412 0bd5 1C        		.byte	28
 6413 0bd6 38        		.byte	56
 6414 0bd7 F0        		.byte	-16
 6415 0bd8 E0        		.byte	-32
 6416 0bd9 C0        		.byte	-64
 6417 0bda 00        		.byte	0
 6418 0bdb 00        		.byte	0
 6419 0bdc 00        		.byte	0
 6420 0bdd 00        		.byte	0
 6421 0bde 30        		.byte	48
 6422 0bdf 38        		.byte	56
 6423 0be0 1C        		.byte	28
 6424 0be1 0E        		.byte	14
 6425 0be2 07        		.byte	7
 6426 0be3 03        		.byte	3
 6427 0be4 01        		.byte	1
 6428 0be5 00        		.byte	0
 6429 0be6 00        		.byte	0
 6430 0be7 00        		.byte	0
 6431 0be8 00        		.byte	0
 6432 0be9 1C        		.byte	28
 6433 0bea 1E        		.byte	30
 6434 0beb 07        		.byte	7
 6435 0bec 03        		.byte	3
 6436 0bed 83        		.byte	-125
 6437 0bee C3        		.byte	-61
 6438 0bef E3        		.byte	-29
 6439 0bf0 77        		.byte	119
 6440 0bf1 3E        		.byte	62
 6441 0bf2 1C        		.byte	28
 6442 0bf3 00        		.byte	0
 6443 0bf4 00        		.byte	0
 6444 0bf5 00        		.byte	0
 6445 0bf6 00        		.byte	0
 6446 0bf7 00        		.byte	0
 6447 0bf8 00        		.byte	0
 6448 0bf9 37        		.byte	55
 6449 0bfa 37        		.byte	55
 6450 0bfb 00        		.byte	0
 6451 0bfc 00        		.byte	0
 6452 0bfd 00        		.byte	0
 6453 0bfe 00        		.byte	0
 6454 0bff 00        		.byte	0
 6455 0c00 00        		.byte	0
 6456 0c01 F8        		.byte	-8
 6457 0c02 FE        		.byte	-2
 6458 0c03 07        		.byte	7
 6459 0c04 F3        		.byte	-13
 6460 0c05 FB        		.byte	-5
 6461 0c06 1B        		.byte	27
 6462 0c07 FB        		.byte	-5
 6463 0c08 FB        		.byte	-5
 6464 0c09 07        		.byte	7
 6465 0c0a FE        		.byte	-2
 6466 0c0b F8        		.byte	-8
 6467 0c0c 00        		.byte	0
 6468 0c0d 0F        		.byte	15
 6469 0c0e 1F        		.byte	31
 6470 0c0f 18        		.byte	24
 6471 0c10 33        		.byte	51
 6472 0c11 37        		.byte	55
 6473 0c12 36        		.byte	54
 6474 0c13 37        		.byte	55
 6475 0c14 37        		.byte	55
 6476 0c15 36        		.byte	54
 6477 0c16 03        		.byte	3
 6478 0c17 01        		.byte	1
 6479 0c18 00        		.byte	0
 6480 0c19 00        		.byte	0
 6481 0c1a 00        		.byte	0
 6482 0c1b E0        		.byte	-32
 6483 0c1c FC        		.byte	-4
 6484 0c1d 1F        		.byte	31
 6485 0c1e 1F        		.byte	31
 6486 0c1f FC        		.byte	-4
 6487 0c20 E0        		.byte	-32
 6488 0c21 00        		.byte	0
 6489 0c22 00        		.byte	0
 6490 0c23 00        		.byte	0
 6491 0c24 00        		.byte	0
 6492 0c25 38        		.byte	56
 6493 0c26 3F        		.byte	63
 6494 0c27 07        		.byte	7
 6495 0c28 06        		.byte	6
 6496 0c29 06        		.byte	6
 6497 0c2a 06        		.byte	6
 6498 0c2b 06        		.byte	6
 6499 0c2c 07        		.byte	7
 6500 0c2d 3F        		.byte	63
 6501 0c2e 38        		.byte	56
 6502 0c2f 00        		.byte	0
 6503 0c30 00        		.byte	0
 6504 0c31 FF        		.byte	-1
 6505 0c32 FF        		.byte	-1
 6506 0c33 C3        		.byte	-61
 6507 0c34 C3        		.byte	-61
 6508 0c35 C3        		.byte	-61
 6509 0c36 C3        		.byte	-61
 6510 0c37 E7        		.byte	-25
 6511 0c38 FE        		.byte	-2
 6512 0c39 BC        		.byte	-68
 6513 0c3a 00        		.byte	0
 6514 0c3b 00        		.byte	0
 6515 0c3c 00        		.byte	0
 6516 0c3d 3F        		.byte	63
 6517 0c3e 3F        		.byte	63
 6518 0c3f 30        		.byte	48
 6519 0c40 30        		.byte	48
 6520 0c41 30        		.byte	48
 6521 0c42 30        		.byte	48
 6522 0c43 30        		.byte	48
 6523 0c44 39        		.byte	57
 6524 0c45 1F        		.byte	31
 6525 0c46 0F        		.byte	15
 6526 0c47 00        		.byte	0
 6527 0c48 00        		.byte	0
 6528 0c49 F0        		.byte	-16
 6529 0c4a FC        		.byte	-4
 6530 0c4b 0E        		.byte	14
 6531 0c4c 07        		.byte	7
 6532 0c4d 03        		.byte	3
 6533 0c4e 03        		.byte	3
 6534 0c4f 03        		.byte	3
 6535 0c50 07        		.byte	7
 6536 0c51 0E        		.byte	14
 6537 0c52 0C        		.byte	12
 6538 0c53 00        		.byte	0
 6539 0c54 00        		.byte	0
 6540 0c55 03        		.byte	3
 6541 0c56 0F        		.byte	15
 6542 0c57 1C        		.byte	28
 6543 0c58 38        		.byte	56
 6544 0c59 30        		.byte	48
 6545 0c5a 30        		.byte	48
 6546 0c5b 30        		.byte	48
 6547 0c5c 38        		.byte	56
 6548 0c5d 1C        		.byte	28
 6549 0c5e 0C        		.byte	12
 6550 0c5f 00        		.byte	0
 6551 0c60 00        		.byte	0
 6552 0c61 FF        		.byte	-1
 6553 0c62 FF        		.byte	-1
 6554 0c63 03        		.byte	3
 6555 0c64 03        		.byte	3
 6556 0c65 03        		.byte	3
 6557 0c66 03        		.byte	3
 6558 0c67 07        		.byte	7
 6559 0c68 0E        		.byte	14
 6560 0c69 FC        		.byte	-4
 6561 0c6a F0        		.byte	-16
 6562 0c6b 00        		.byte	0
 6563 0c6c 00        		.byte	0
 6564 0c6d 3F        		.byte	63
 6565 0c6e 3F        		.byte	63
 6566 0c6f 30        		.byte	48
 6567 0c70 30        		.byte	48
 6568 0c71 30        		.byte	48
 6569 0c72 30        		.byte	48
 6570 0c73 38        		.byte	56
 6571 0c74 1C        		.byte	28
 6572 0c75 0F        		.byte	15
 6573 0c76 03        		.byte	3
 6574 0c77 00        		.byte	0
 6575 0c78 00        		.byte	0
 6576 0c79 FF        		.byte	-1
 6577 0c7a FF        		.byte	-1
 6578 0c7b C3        		.byte	-61
 6579 0c7c C3        		.byte	-61
 6580 0c7d C3        		.byte	-61
 6581 0c7e C3        		.byte	-61
 6582 0c7f C3        		.byte	-61
 6583 0c80 C3        		.byte	-61
 6584 0c81 03        		.byte	3
 6585 0c82 03        		.byte	3
 6586 0c83 00        		.byte	0
 6587 0c84 00        		.byte	0
 6588 0c85 3F        		.byte	63
 6589 0c86 3F        		.byte	63
 6590 0c87 30        		.byte	48
 6591 0c88 30        		.byte	48
 6592 0c89 30        		.byte	48
 6593 0c8a 30        		.byte	48
 6594 0c8b 30        		.byte	48
 6595 0c8c 30        		.byte	48
 6596 0c8d 30        		.byte	48
 6597 0c8e 30        		.byte	48
 6598 0c8f 00        		.byte	0
 6599 0c90 00        		.byte	0
 6600 0c91 FF        		.byte	-1
 6601 0c92 FF        		.byte	-1
 6602 0c93 C3        		.byte	-61
 6603 0c94 C3        		.byte	-61
 6604 0c95 C3        		.byte	-61
 6605 0c96 C3        		.byte	-61
 6606 0c97 C3        		.byte	-61
 6607 0c98 C3        		.byte	-61
 6608 0c99 03        		.byte	3
 6609 0c9a 03        		.byte	3
 6610 0c9b 00        		.byte	0
 6611 0c9c 00        		.byte	0
 6612 0c9d 3F        		.byte	63
 6613 0c9e 3F        		.byte	63
 6614 0c9f 00        		.byte	0
 6615 0ca0 00        		.byte	0
 6616 0ca1 00        		.byte	0
 6617 0ca2 00        		.byte	0
 6618 0ca3 00        		.byte	0
 6619 0ca4 00        		.byte	0
 6620 0ca5 00        		.byte	0
 6621 0ca6 00        		.byte	0
 6622 0ca7 00        		.byte	0
 6623 0ca8 00        		.byte	0
 6624 0ca9 F0        		.byte	-16
 6625 0caa FC        		.byte	-4
 6626 0cab 0E        		.byte	14
 6627 0cac 07        		.byte	7
 6628 0cad 03        		.byte	3
 6629 0cae C3        		.byte	-61
 6630 0caf C3        		.byte	-61
 6631 0cb0 C3        		.byte	-61
 6632 0cb1 C7        		.byte	-57
 6633 0cb2 C6        		.byte	-58
 6634 0cb3 00        		.byte	0
 6635 0cb4 00        		.byte	0
 6636 0cb5 03        		.byte	3
 6637 0cb6 0F        		.byte	15
 6638 0cb7 1C        		.byte	28
 6639 0cb8 38        		.byte	56
 6640 0cb9 30        		.byte	48
 6641 0cba 30        		.byte	48
 6642 0cbb 30        		.byte	48
 6643 0cbc 30        		.byte	48
 6644 0cbd 3F        		.byte	63
 6645 0cbe 3F        		.byte	63
 6646 0cbf 00        		.byte	0
 6647 0cc0 00        		.byte	0
 6648 0cc1 FF        		.byte	-1
 6649 0cc2 FF        		.byte	-1
 6650 0cc3 C0        		.byte	-64
 6651 0cc4 C0        		.byte	-64
 6652 0cc5 C0        		.byte	-64
 6653 0cc6 C0        		.byte	-64
 6654 0cc7 C0        		.byte	-64
 6655 0cc8 C0        		.byte	-64
 6656 0cc9 FF        		.byte	-1
 6657 0cca FF        		.byte	-1
 6658 0ccb 00        		.byte	0
 6659 0ccc 00        		.byte	0
 6660 0ccd 3F        		.byte	63
 6661 0cce 3F        		.byte	63
 6662 0ccf 00        		.byte	0
 6663 0cd0 00        		.byte	0
 6664 0cd1 00        		.byte	0
 6665 0cd2 00        		.byte	0
 6666 0cd3 00        		.byte	0
 6667 0cd4 00        		.byte	0
 6668 0cd5 3F        		.byte	63
 6669 0cd6 3F        		.byte	63
 6670 0cd7 00        		.byte	0
 6671 0cd8 00        		.byte	0
 6672 0cd9 00        		.byte	0
 6673 0cda 00        		.byte	0
 6674 0cdb 03        		.byte	3
 6675 0cdc 03        		.byte	3
 6676 0cdd FF        		.byte	-1
 6677 0cde FF        		.byte	-1
 6678 0cdf 03        		.byte	3
 6679 0ce0 03        		.byte	3
 6680 0ce1 00        		.byte	0
 6681 0ce2 00        		.byte	0
 6682 0ce3 00        		.byte	0
 6683 0ce4 00        		.byte	0
 6684 0ce5 00        		.byte	0
 6685 0ce6 00        		.byte	0
 6686 0ce7 30        		.byte	48
 6687 0ce8 30        		.byte	48
 6688 0ce9 3F        		.byte	63
 6689 0cea 3F        		.byte	63
 6690 0ceb 30        		.byte	48
 6691 0cec 30        		.byte	48
 6692 0ced 00        		.byte	0
 6693 0cee 00        		.byte	0
 6694 0cef 00        		.byte	0
 6695 0cf0 00        		.byte	0
 6696 0cf1 00        		.byte	0
 6697 0cf2 00        		.byte	0
 6698 0cf3 00        		.byte	0
 6699 0cf4 00        		.byte	0
 6700 0cf5 00        		.byte	0
 6701 0cf6 00        		.byte	0
 6702 0cf7 00        		.byte	0
 6703 0cf8 00        		.byte	0
 6704 0cf9 FF        		.byte	-1
 6705 0cfa FF        		.byte	-1
 6706 0cfb 00        		.byte	0
 6707 0cfc 00        		.byte	0
 6708 0cfd 0E        		.byte	14
 6709 0cfe 1E        		.byte	30
 6710 0cff 38        		.byte	56
 6711 0d00 30        		.byte	48
 6712 0d01 30        		.byte	48
 6713 0d02 30        		.byte	48
 6714 0d03 30        		.byte	48
 6715 0d04 38        		.byte	56
 6716 0d05 1F        		.byte	31
 6717 0d06 07        		.byte	7
 6718 0d07 00        		.byte	0
 6719 0d08 00        		.byte	0
 6720 0d09 FF        		.byte	-1
 6721 0d0a FF        		.byte	-1
 6722 0d0b C0        		.byte	-64
 6723 0d0c E0        		.byte	-32
 6724 0d0d F0        		.byte	-16
 6725 0d0e 38        		.byte	56
 6726 0d0f 1C        		.byte	28
 6727 0d10 0E        		.byte	14
 6728 0d11 07        		.byte	7
 6729 0d12 03        		.byte	3
 6730 0d13 00        		.byte	0
 6731 0d14 00        		.byte	0
 6732 0d15 3F        		.byte	63
 6733 0d16 3F        		.byte	63
 6734 0d17 00        		.byte	0
 6735 0d18 01        		.byte	1
 6736 0d19 03        		.byte	3
 6737 0d1a 07        		.byte	7
 6738 0d1b 0E        		.byte	14
 6739 0d1c 1C        		.byte	28
 6740 0d1d 38        		.byte	56
 6741 0d1e 30        		.byte	48
 6742 0d1f 00        		.byte	0
 6743 0d20 00        		.byte	0
 6744 0d21 FF        		.byte	-1
 6745 0d22 FF        		.byte	-1
 6746 0d23 00        		.byte	0
 6747 0d24 00        		.byte	0
 6748 0d25 00        		.byte	0
 6749 0d26 00        		.byte	0
 6750 0d27 00        		.byte	0
 6751 0d28 00        		.byte	0
 6752 0d29 00        		.byte	0
 6753 0d2a 00        		.byte	0
 6754 0d2b 00        		.byte	0
 6755 0d2c 00        		.byte	0
 6756 0d2d 3F        		.byte	63
 6757 0d2e 3F        		.byte	63
 6758 0d2f 30        		.byte	48
 6759 0d30 30        		.byte	48
 6760 0d31 30        		.byte	48
 6761 0d32 30        		.byte	48
 6762 0d33 30        		.byte	48
 6763 0d34 30        		.byte	48
 6764 0d35 30        		.byte	48
 6765 0d36 30        		.byte	48
 6766 0d37 00        		.byte	0
 6767 0d38 00        		.byte	0
 6768 0d39 FF        		.byte	-1
 6769 0d3a FF        		.byte	-1
 6770 0d3b 1E        		.byte	30
 6771 0d3c 78        		.byte	120
 6772 0d3d E0        		.byte	-32
 6773 0d3e E0        		.byte	-32
 6774 0d3f 78        		.byte	120
 6775 0d40 1E        		.byte	30
 6776 0d41 FF        		.byte	-1
 6777 0d42 FF        		.byte	-1
 6778 0d43 00        		.byte	0
 6779 0d44 00        		.byte	0
 6780 0d45 3F        		.byte	63
 6781 0d46 3F        		.byte	63
 6782 0d47 00        		.byte	0
 6783 0d48 00        		.byte	0
 6784 0d49 01        		.byte	1
 6785 0d4a 01        		.byte	1
 6786 0d4b 00        		.byte	0
 6787 0d4c 00        		.byte	0
 6788 0d4d 3F        		.byte	63
 6789 0d4e 3F        		.byte	63
 6790 0d4f 00        		.byte	0
 6791 0d50 00        		.byte	0
 6792 0d51 FF        		.byte	-1
 6793 0d52 FF        		.byte	-1
 6794 0d53 0E        		.byte	14
 6795 0d54 38        		.byte	56
 6796 0d55 F0        		.byte	-16
 6797 0d56 C0        		.byte	-64
 6798 0d57 00        		.byte	0
 6799 0d58 00        		.byte	0
 6800 0d59 FF        		.byte	-1
 6801 0d5a FF        		.byte	-1
 6802 0d5b 00        		.byte	0
 6803 0d5c 00        		.byte	0
 6804 0d5d 3F        		.byte	63
 6805 0d5e 3F        		.byte	63
 6806 0d5f 00        		.byte	0
 6807 0d60 00        		.byte	0
 6808 0d61 00        		.byte	0
 6809 0d62 03        		.byte	3
 6810 0d63 07        		.byte	7
 6811 0d64 1C        		.byte	28
 6812 0d65 3F        		.byte	63
 6813 0d66 3F        		.byte	63
 6814 0d67 00        		.byte	0
 6815 0d68 00        		.byte	0
 6816 0d69 F0        		.byte	-16
 6817 0d6a FC        		.byte	-4
 6818 0d6b 0E        		.byte	14
 6819 0d6c 07        		.byte	7
 6820 0d6d 03        		.byte	3
 6821 0d6e 03        		.byte	3
 6822 0d6f 07        		.byte	7
 6823 0d70 0E        		.byte	14
 6824 0d71 FC        		.byte	-4
 6825 0d72 F0        		.byte	-16
 6826 0d73 00        		.byte	0
 6827 0d74 00        		.byte	0
 6828 0d75 03        		.byte	3
 6829 0d76 0F        		.byte	15
 6830 0d77 1C        		.byte	28
 6831 0d78 38        		.byte	56
 6832 0d79 30        		.byte	48
 6833 0d7a 30        		.byte	48
 6834 0d7b 38        		.byte	56
 6835 0d7c 1C        		.byte	28
 6836 0d7d 0F        		.byte	15
 6837 0d7e 03        		.byte	3
 6838 0d7f 00        		.byte	0
 6839 0d80 00        		.byte	0
 6840 0d81 FF        		.byte	-1
 6841 0d82 FF        		.byte	-1
 6842 0d83 83        		.byte	-125
 6843 0d84 83        		.byte	-125
 6844 0d85 83        		.byte	-125
 6845 0d86 83        		.byte	-125
 6846 0d87 83        		.byte	-125
 6847 0d88 C7        		.byte	-57
 6848 0d89 FE        		.byte	-2
 6849 0d8a 7C        		.byte	124
 6850 0d8b 00        		.byte	0
 6851 0d8c 00        		.byte	0
 6852 0d8d 3F        		.byte	63
 6853 0d8e 3F        		.byte	63
 6854 0d8f 01        		.byte	1
 6855 0d90 01        		.byte	1
 6856 0d91 01        		.byte	1
 6857 0d92 01        		.byte	1
 6858 0d93 01        		.byte	1
 6859 0d94 01        		.byte	1
 6860 0d95 00        		.byte	0
 6861 0d96 00        		.byte	0
 6862 0d97 00        		.byte	0
 6863 0d98 00        		.byte	0
 6864 0d99 F0        		.byte	-16
 6865 0d9a FC        		.byte	-4
 6866 0d9b 0E        		.byte	14
 6867 0d9c 07        		.byte	7
 6868 0d9d 03        		.byte	3
 6869 0d9e 03        		.byte	3
 6870 0d9f 07        		.byte	7
 6871 0da0 0E        		.byte	14
 6872 0da1 FC        		.byte	-4
 6873 0da2 F0        		.byte	-16
 6874 0da3 00        		.byte	0
 6875 0da4 00        		.byte	0
 6876 0da5 03        		.byte	3
 6877 0da6 0F        		.byte	15
 6878 0da7 1C        		.byte	28
 6879 0da8 38        		.byte	56
 6880 0da9 30        		.byte	48
 6881 0daa 36        		.byte	54
 6882 0dab 3E        		.byte	62
 6883 0dac 1C        		.byte	28
 6884 0dad 3F        		.byte	63
 6885 0dae 33        		.byte	51
 6886 0daf 00        		.byte	0
 6887 0db0 00        		.byte	0
 6888 0db1 FF        		.byte	-1
 6889 0db2 FF        		.byte	-1
 6890 0db3 83        		.byte	-125
 6891 0db4 83        		.byte	-125
 6892 0db5 83        		.byte	-125
 6893 0db6 83        		.byte	-125
 6894 0db7 83        		.byte	-125
 6895 0db8 C7        		.byte	-57
 6896 0db9 FE        		.byte	-2
 6897 0dba 7C        		.byte	124
 6898 0dbb 00        		.byte	0
 6899 0dbc 00        		.byte	0
 6900 0dbd 3F        		.byte	63
 6901 0dbe 3F        		.byte	63
 6902 0dbf 01        		.byte	1
 6903 0dc0 01        		.byte	1
 6904 0dc1 03        		.byte	3
 6905 0dc2 07        		.byte	7
 6906 0dc3 0F        		.byte	15
 6907 0dc4 1D        		.byte	29
 6908 0dc5 38        		.byte	56
 6909 0dc6 30        		.byte	48
 6910 0dc7 00        		.byte	0
 6911 0dc8 00        		.byte	0
 6912 0dc9 3C        		.byte	60
 6913 0dca 7E        		.byte	126
 6914 0dcb E7        		.byte	-25
 6915 0dcc C3        		.byte	-61
 6916 0dcd C3        		.byte	-61
 6917 0dce C3        		.byte	-61
 6918 0dcf C3        		.byte	-61
 6919 0dd0 C7        		.byte	-57
 6920 0dd1 8E        		.byte	-114
 6921 0dd2 0C        		.byte	12
 6922 0dd3 00        		.byte	0
 6923 0dd4 00        		.byte	0
 6924 0dd5 0C        		.byte	12
 6925 0dd6 1C        		.byte	28
 6926 0dd7 38        		.byte	56
 6927 0dd8 30        		.byte	48
 6928 0dd9 30        		.byte	48
 6929 0dda 30        		.byte	48
 6930 0ddb 30        		.byte	48
 6931 0ddc 39        		.byte	57
 6932 0ddd 1F        		.byte	31
 6933 0dde 0F        		.byte	15
 6934 0ddf 00        		.byte	0
 6935 0de0 00        		.byte	0
 6936 0de1 00        		.byte	0
 6937 0de2 03        		.byte	3
 6938 0de3 03        		.byte	3
 6939 0de4 03        		.byte	3
 6940 0de5 FF        		.byte	-1
 6941 0de6 FF        		.byte	-1
 6942 0de7 03        		.byte	3
 6943 0de8 03        		.byte	3
 6944 0de9 03        		.byte	3
 6945 0dea 00        		.byte	0
 6946 0deb 00        		.byte	0
 6947 0dec 00        		.byte	0
 6948 0ded 00        		.byte	0
 6949 0dee 00        		.byte	0
 6950 0def 00        		.byte	0
 6951 0df0 00        		.byte	0
 6952 0df1 3F        		.byte	63
 6953 0df2 3F        		.byte	63
 6954 0df3 00        		.byte	0
 6955 0df4 00        		.byte	0
 6956 0df5 00        		.byte	0
 6957 0df6 00        		.byte	0
 6958 0df7 00        		.byte	0
 6959 0df8 00        		.byte	0
 6960 0df9 FF        		.byte	-1
 6961 0dfa FF        		.byte	-1
 6962 0dfb 00        		.byte	0
 6963 0dfc 00        		.byte	0
 6964 0dfd 00        		.byte	0
 6965 0dfe 00        		.byte	0
 6966 0dff 00        		.byte	0
 6967 0e00 00        		.byte	0
 6968 0e01 FF        		.byte	-1
 6969 0e02 FF        		.byte	-1
 6970 0e03 00        		.byte	0
 6971 0e04 00        		.byte	0
 6972 0e05 07        		.byte	7
 6973 0e06 1F        		.byte	31
 6974 0e07 38        		.byte	56
 6975 0e08 30        		.byte	48
 6976 0e09 30        		.byte	48
 6977 0e0a 30        		.byte	48
 6978 0e0b 30        		.byte	48
 6979 0e0c 38        		.byte	56
 6980 0e0d 1F        		.byte	31
 6981 0e0e 07        		.byte	7
 6982 0e0f 00        		.byte	0
 6983 0e10 00        		.byte	0
 6984 0e11 07        		.byte	7
 6985 0e12 3F        		.byte	63
 6986 0e13 F8        		.byte	-8
 6987 0e14 C0        		.byte	-64
 6988 0e15 00        		.byte	0
 6989 0e16 00        		.byte	0
 6990 0e17 C0        		.byte	-64
 6991 0e18 F8        		.byte	-8
 6992 0e19 3F        		.byte	63
 6993 0e1a 07        		.byte	7
 6994 0e1b 00        		.byte	0
 6995 0e1c 00        		.byte	0
 6996 0e1d 00        		.byte	0
 6997 0e1e 00        		.byte	0
 6998 0e1f 01        		.byte	1
 6999 0e20 0F        		.byte	15
 7000 0e21 3E        		.byte	62
 7001 0e22 3E        		.byte	62
 7002 0e23 0F        		.byte	15
 7003 0e24 01        		.byte	1
 7004 0e25 00        		.byte	0
 7005 0e26 00        		.byte	0
 7006 0e27 00        		.byte	0
 7007 0e28 00        		.byte	0
 7008 0e29 FF        		.byte	-1
 7009 0e2a FF        		.byte	-1
 7010 0e2b 00        		.byte	0
 7011 0e2c 00        		.byte	0
 7012 0e2d 80        		.byte	-128
 7013 0e2e 80        		.byte	-128
 7014 0e2f 00        		.byte	0
 7015 0e30 00        		.byte	0
 7016 0e31 FF        		.byte	-1
 7017 0e32 FF        		.byte	-1
 7018 0e33 00        		.byte	0
 7019 0e34 00        		.byte	0
 7020 0e35 3F        		.byte	63
 7021 0e36 3F        		.byte	63
 7022 0e37 1C        		.byte	28
 7023 0e38 06        		.byte	6
 7024 0e39 03        		.byte	3
 7025 0e3a 03        		.byte	3
 7026 0e3b 06        		.byte	6
 7027 0e3c 1C        		.byte	28
 7028 0e3d 3F        		.byte	63
 7029 0e3e 3F        		.byte	63
 7030 0e3f 00        		.byte	0
 7031 0e40 00        		.byte	0
 7032 0e41 03        		.byte	3
 7033 0e42 0F        		.byte	15
 7034 0e43 1C        		.byte	28
 7035 0e44 30        		.byte	48
 7036 0e45 E0        		.byte	-32
 7037 0e46 E0        		.byte	-32
 7038 0e47 30        		.byte	48
 7039 0e48 1C        		.byte	28
 7040 0e49 0F        		.byte	15
 7041 0e4a 03        		.byte	3
 7042 0e4b 00        		.byte	0
 7043 0e4c 00        		.byte	0
 7044 0e4d 30        		.byte	48
 7045 0e4e 3C        		.byte	60
 7046 0e4f 0E        		.byte	14
 7047 0e50 03        		.byte	3
 7048 0e51 01        		.byte	1
 7049 0e52 01        		.byte	1
 7050 0e53 03        		.byte	3
 7051 0e54 0E        		.byte	14
 7052 0e55 3C        		.byte	60
 7053 0e56 30        		.byte	48
 7054 0e57 00        		.byte	0
 7055 0e58 00        		.byte	0
 7056 0e59 03        		.byte	3
 7057 0e5a 0F        		.byte	15
 7058 0e5b 3C        		.byte	60
 7059 0e5c F0        		.byte	-16
 7060 0e5d C0        		.byte	-64
 7061 0e5e C0        		.byte	-64
 7062 0e5f F0        		.byte	-16
 7063 0e60 3C        		.byte	60
 7064 0e61 0F        		.byte	15
 7065 0e62 03        		.byte	3
 7066 0e63 00        		.byte	0
 7067 0e64 00        		.byte	0
 7068 0e65 00        		.byte	0
 7069 0e66 00        		.byte	0
 7070 0e67 00        		.byte	0
 7071 0e68 00        		.byte	0
 7072 0e69 3F        		.byte	63
 7073 0e6a 3F        		.byte	63
 7074 0e6b 00        		.byte	0
 7075 0e6c 00        		.byte	0
 7076 0e6d 00        		.byte	0
 7077 0e6e 00        		.byte	0
 7078 0e6f 00        		.byte	0
 7079 0e70 00        		.byte	0
 7080 0e71 03        		.byte	3
 7081 0e72 03        		.byte	3
 7082 0e73 03        		.byte	3
 7083 0e74 03        		.byte	3
 7084 0e75 C3        		.byte	-61
 7085 0e76 E3        		.byte	-29
 7086 0e77 33        		.byte	51
 7087 0e78 1F        		.byte	31
 7088 0e79 0F        		.byte	15
 7089 0e7a 03        		.byte	3
 7090 0e7b 00        		.byte	0
 7091 0e7c 00        		.byte	0
 7092 0e7d 30        		.byte	48
 7093 0e7e 3C        		.byte	60
 7094 0e7f 3E        		.byte	62
 7095 0e80 33        		.byte	51
 7096 0e81 31        		.byte	49
 7097 0e82 30        		.byte	48
 7098 0e83 30        		.byte	48
 7099 0e84 30        		.byte	48
 7100 0e85 30        		.byte	48
 7101 0e86 30        		.byte	48
 7102 0e87 00        		.byte	0
 7103 0e88 00        		.byte	0
 7104 0e89 00        		.byte	0
 7105 0e8a 00        		.byte	0
 7106 0e8b FF        		.byte	-1
 7107 0e8c FF        		.byte	-1
 7108 0e8d 03        		.byte	3
 7109 0e8e 03        		.byte	3
 7110 0e8f 03        		.byte	3
 7111 0e90 03        		.byte	3
 7112 0e91 00        		.byte	0
 7113 0e92 00        		.byte	0
 7114 0e93 00        		.byte	0
 7115 0e94 00        		.byte	0
 7116 0e95 00        		.byte	0
 7117 0e96 00        		.byte	0
 7118 0e97 3F        		.byte	63
 7119 0e98 3F        		.byte	63
 7120 0e99 30        		.byte	48
 7121 0e9a 30        		.byte	48
 7122 0e9b 30        		.byte	48
 7123 0e9c 30        		.byte	48
 7124 0e9d 00        		.byte	0
 7125 0e9e 00        		.byte	0
 7126 0e9f 00        		.byte	0
 7127 0ea0 00        		.byte	0
 7128 0ea1 0E        		.byte	14
 7129 0ea2 1C        		.byte	28
 7130 0ea3 38        		.byte	56
 7131 0ea4 70        		.byte	112
 7132 0ea5 E0        		.byte	-32
 7133 0ea6 C0        		.byte	-64
 7134 0ea7 80        		.byte	-128
 7135 0ea8 00        		.byte	0
 7136 0ea9 00        		.byte	0
 7137 0eaa 00        		.byte	0
 7138 0eab 00        		.byte	0
 7139 0eac 00        		.byte	0
 7140 0ead 00        		.byte	0
 7141 0eae 00        		.byte	0
 7142 0eaf 00        		.byte	0
 7143 0eb0 00        		.byte	0
 7144 0eb1 00        		.byte	0
 7145 0eb2 01        		.byte	1
 7146 0eb3 03        		.byte	3
 7147 0eb4 07        		.byte	7
 7148 0eb5 0E        		.byte	14
 7149 0eb6 1C        		.byte	28
 7150 0eb7 18        		.byte	24
 7151 0eb8 00        		.byte	0
 7152 0eb9 00        		.byte	0
 7153 0eba 00        		.byte	0
 7154 0ebb 03        		.byte	3
 7155 0ebc 03        		.byte	3
 7156 0ebd 03        		.byte	3
 7157 0ebe 03        		.byte	3
 7158 0ebf FF        		.byte	-1
 7159 0ec0 FF        		.byte	-1
 7160 0ec1 00        		.byte	0
 7161 0ec2 00        		.byte	0
 7162 0ec3 00        		.byte	0
 7163 0ec4 00        		.byte	0
 7164 0ec5 00        		.byte	0
 7165 0ec6 00        		.byte	0
 7166 0ec7 30        		.byte	48
 7167 0ec8 30        		.byte	48
 7168 0ec9 30        		.byte	48
 7169 0eca 30        		.byte	48
 7170 0ecb 3F        		.byte	63
 7171 0ecc 3F        		.byte	63
 7172 0ecd 00        		.byte	0
 7173 0ece 00        		.byte	0
 7174 0ecf 00        		.byte	0
 7175 0ed0 00        		.byte	0
 7176 0ed1 60        		.byte	96
 7177 0ed2 70        		.byte	112
 7178 0ed3 38        		.byte	56
 7179 0ed4 1C        		.byte	28
 7180 0ed5 0E        		.byte	14
 7181 0ed6 07        		.byte	7
 7182 0ed7 0E        		.byte	14
 7183 0ed8 1C        		.byte	28
 7184 0ed9 38        		.byte	56
 7185 0eda 70        		.byte	112
 7186 0edb 60        		.byte	96
 7187 0edc 00        		.byte	0
 7188 0edd 00        		.byte	0
 7189 0ede 00        		.byte	0
 7190 0edf 00        		.byte	0
 7191 0ee0 00        		.byte	0
 7192 0ee1 00        		.byte	0
 7193 0ee2 00        		.byte	0
 7194 0ee3 00        		.byte	0
 7195 0ee4 00        		.byte	0
 7196 0ee5 00        		.byte	0
 7197 0ee6 00        		.byte	0
 7198 0ee7 00        		.byte	0
 7199 0ee8 00        		.byte	0
 7200 0ee9 00        		.byte	0
 7201 0eea 00        		.byte	0
 7202 0eeb 00        		.byte	0
 7203 0eec 00        		.byte	0
 7204 0eed 00        		.byte	0
 7205 0eee 00        		.byte	0
 7206 0eef 00        		.byte	0
 7207 0ef0 00        		.byte	0
 7208 0ef1 00        		.byte	0
 7209 0ef2 00        		.byte	0
 7210 0ef3 00        		.byte	0
 7211 0ef4 00        		.byte	0
 7212 0ef5 C0        		.byte	-64
 7213 0ef6 C0        		.byte	-64
 7214 0ef7 C0        		.byte	-64
 7215 0ef8 C0        		.byte	-64
 7216 0ef9 C0        		.byte	-64
 7217 0efa C0        		.byte	-64
 7218 0efb C0        		.byte	-64
 7219 0efc C0        		.byte	-64
 7220 0efd C0        		.byte	-64
 7221 0efe C0        		.byte	-64
 7222 0eff C0        		.byte	-64
 7223 0f00 00        		.byte	0
 7224 0f01 00        		.byte	0
 7225 0f02 00        		.byte	0
 7226 0f03 00        		.byte	0
 7227 0f04 00        		.byte	0
 7228 0f05 3E        		.byte	62
 7229 0f06 7E        		.byte	126
 7230 0f07 4E        		.byte	78
 7231 0f08 00        		.byte	0
 7232 0f09 00        		.byte	0
 7233 0f0a 00        		.byte	0
 7234 0f0b 00        		.byte	0
 7235 0f0c 00        		.byte	0
 7236 0f0d 00        		.byte	0
 7237 0f0e 00        		.byte	0
 7238 0f0f 00        		.byte	0
 7239 0f10 00        		.byte	0
 7240 0f11 00        		.byte	0
 7241 0f12 00        		.byte	0
 7242 0f13 00        		.byte	0
 7243 0f14 00        		.byte	0
 7244 0f15 00        		.byte	0
 7245 0f16 00        		.byte	0
 7246 0f17 00        		.byte	0
 7247 0f18 00        		.byte	0
 7248 0f19 00        		.byte	0
 7249 0f1a 40        		.byte	64
 7250 0f1b 60        		.byte	96
 7251 0f1c 60        		.byte	96
 7252 0f1d 60        		.byte	96
 7253 0f1e 60        		.byte	96
 7254 0f1f 60        		.byte	96
 7255 0f20 60        		.byte	96
 7256 0f21 E0        		.byte	-32
 7257 0f22 C0        		.byte	-64
 7258 0f23 00        		.byte	0
 7259 0f24 00        		.byte	0
 7260 0f25 1C        		.byte	28
 7261 0f26 3E        		.byte	62
 7262 0f27 33        		.byte	51
 7263 0f28 33        		.byte	51
 7264 0f29 33        		.byte	51
 7265 0f2a 33        		.byte	51
 7266 0f2b 33        		.byte	51
 7267 0f2c 33        		.byte	51
 7268 0f2d 3F        		.byte	63
 7269 0f2e 3F        		.byte	63
 7270 0f2f 00        		.byte	0
 7271 0f30 00        		.byte	0
 7272 0f31 FF        		.byte	-1
 7273 0f32 FF        		.byte	-1
 7274 0f33 C0        		.byte	-64
 7275 0f34 60        		.byte	96
 7276 0f35 60        		.byte	96
 7277 0f36 60        		.byte	96
 7278 0f37 60        		.byte	96
 7279 0f38 E0        		.byte	-32
 7280 0f39 C0        		.byte	-64
 7281 0f3a 80        		.byte	-128
 7282 0f3b 00        		.byte	0
 7283 0f3c 00        		.byte	0
 7284 0f3d 3F        		.byte	63
 7285 0f3e 3F        		.byte	63
 7286 0f3f 30        		.byte	48
 7287 0f40 30        		.byte	48
 7288 0f41 30        		.byte	48
 7289 0f42 30        		.byte	48
 7290 0f43 30        		.byte	48
 7291 0f44 38        		.byte	56
 7292 0f45 1F        		.byte	31
 7293 0f46 0F        		.byte	15
 7294 0f47 00        		.byte	0
 7295 0f48 00        		.byte	0
 7296 0f49 80        		.byte	-128
 7297 0f4a C0        		.byte	-64
 7298 0f4b E0        		.byte	-32
 7299 0f4c 60        		.byte	96
 7300 0f4d 60        		.byte	96
 7301 0f4e 60        		.byte	96
 7302 0f4f 60        		.byte	96
 7303 0f50 60        		.byte	96
 7304 0f51 C0        		.byte	-64
 7305 0f52 80        		.byte	-128
 7306 0f53 00        		.byte	0
 7307 0f54 00        		.byte	0
 7308 0f55 0F        		.byte	15
 7309 0f56 1F        		.byte	31
 7310 0f57 38        		.byte	56
 7311 0f58 30        		.byte	48
 7312 0f59 30        		.byte	48
 7313 0f5a 30        		.byte	48
 7314 0f5b 30        		.byte	48
 7315 0f5c 30        		.byte	48
 7316 0f5d 18        		.byte	24
 7317 0f5e 08        		.byte	8
 7318 0f5f 00        		.byte	0
 7319 0f60 00        		.byte	0
 7320 0f61 80        		.byte	-128
 7321 0f62 C0        		.byte	-64
 7322 0f63 E0        		.byte	-32
 7323 0f64 60        		.byte	96
 7324 0f65 60        		.byte	96
 7325 0f66 60        		.byte	96
 7326 0f67 E0        		.byte	-32
 7327 0f68 C0        		.byte	-64
 7328 0f69 FF        		.byte	-1
 7329 0f6a FF        		.byte	-1
 7330 0f6b 00        		.byte	0
 7331 0f6c 00        		.byte	0
 7332 0f6d 0F        		.byte	15
 7333 0f6e 1F        		.byte	31
 7334 0f6f 38        		.byte	56
 7335 0f70 30        		.byte	48
 7336 0f71 30        		.byte	48
 7337 0f72 30        		.byte	48
 7338 0f73 30        		.byte	48
 7339 0f74 30        		.byte	48
 7340 0f75 3F        		.byte	63
 7341 0f76 3F        		.byte	63
 7342 0f77 00        		.byte	0
 7343 0f78 00        		.byte	0
 7344 0f79 80        		.byte	-128
 7345 0f7a C0        		.byte	-64
 7346 0f7b E0        		.byte	-32
 7347 0f7c 60        		.byte	96
 7348 0f7d 60        		.byte	96
 7349 0f7e 60        		.byte	96
 7350 0f7f 60        		.byte	96
 7351 0f80 60        		.byte	96
 7352 0f81 C0        		.byte	-64
 7353 0f82 80        		.byte	-128
 7354 0f83 00        		.byte	0
 7355 0f84 00        		.byte	0
 7356 0f85 0F        		.byte	15
 7357 0f86 1F        		.byte	31
 7358 0f87 3B        		.byte	59
 7359 0f88 33        		.byte	51
 7360 0f89 33        		.byte	51
 7361 0f8a 33        		.byte	51
 7362 0f8b 33        		.byte	51
 7363 0f8c 33        		.byte	51
 7364 0f8d 13        		.byte	19
 7365 0f8e 01        		.byte	1
 7366 0f8f 00        		.byte	0
 7367 0f90 00        		.byte	0
 7368 0f91 C0        		.byte	-64
 7369 0f92 C0        		.byte	-64
 7370 0f93 FC        		.byte	-4
 7371 0f94 FE        		.byte	-2
 7372 0f95 C7        		.byte	-57
 7373 0f96 C3        		.byte	-61
 7374 0f97 C3        		.byte	-61
 7375 0f98 03        		.byte	3
 7376 0f99 00        		.byte	0
 7377 0f9a 00        		.byte	0
 7378 0f9b 00        		.byte	0
 7379 0f9c 00        		.byte	0
 7380 0f9d 00        		.byte	0
 7381 0f9e 00        		.byte	0
 7382 0f9f 3F        		.byte	63
 7383 0fa0 3F        		.byte	63
 7384 0fa1 00        		.byte	0
 7385 0fa2 00        		.byte	0
 7386 0fa3 00        		.byte	0
 7387 0fa4 00        		.byte	0
 7388 0fa5 00        		.byte	0
 7389 0fa6 00        		.byte	0
 7390 0fa7 00        		.byte	0
 7391 0fa8 00        		.byte	0
 7392 0fa9 80        		.byte	-128
 7393 0faa C0        		.byte	-64
 7394 0fab E0        		.byte	-32
 7395 0fac 60        		.byte	96
 7396 0fad 60        		.byte	96
 7397 0fae 60        		.byte	96
 7398 0faf 60        		.byte	96
 7399 0fb0 60        		.byte	96
 7400 0fb1 E0        		.byte	-32
 7401 0fb2 E0        		.byte	-32
 7402 0fb3 00        		.byte	0
 7403 0fb4 00        		.byte	0
 7404 0fb5 03        		.byte	3
 7405 0fb6 C7        		.byte	-57
 7406 0fb7 CE        		.byte	-50
 7407 0fb8 CC        		.byte	-52
 7408 0fb9 CC        		.byte	-52
 7409 0fba CC        		.byte	-52
 7410 0fbb CC        		.byte	-52
 7411 0fbc E6        		.byte	-26
 7412 0fbd 7F        		.byte	127
 7413 0fbe 3F        		.byte	63
 7414 0fbf 00        		.byte	0
 7415 0fc0 00        		.byte	0
 7416 0fc1 FF        		.byte	-1
 7417 0fc2 FF        		.byte	-1
 7418 0fc3 C0        		.byte	-64
 7419 0fc4 60        		.byte	96
 7420 0fc5 60        		.byte	96
 7421 0fc6 60        		.byte	96
 7422 0fc7 E0        		.byte	-32
 7423 0fc8 C0        		.byte	-64
 7424 0fc9 80        		.byte	-128
 7425 0fca 00        		.byte	0
 7426 0fcb 00        		.byte	0
 7427 0fcc 00        		.byte	0
 7428 0fcd 3F        		.byte	63
 7429 0fce 3F        		.byte	63
 7430 0fcf 00        		.byte	0
 7431 0fd0 00        		.byte	0
 7432 0fd1 00        		.byte	0
 7433 0fd2 00        		.byte	0
 7434 0fd3 00        		.byte	0
 7435 0fd4 3F        		.byte	63
 7436 0fd5 3F        		.byte	63
 7437 0fd6 00        		.byte	0
 7438 0fd7 00        		.byte	0
 7439 0fd8 00        		.byte	0
 7440 0fd9 00        		.byte	0
 7441 0fda 00        		.byte	0
 7442 0fdb 00        		.byte	0
 7443 0fdc 60        		.byte	96
 7444 0fdd EC        		.byte	-20
 7445 0fde EC        		.byte	-20
 7446 0fdf 00        		.byte	0
 7447 0fe0 00        		.byte	0
 7448 0fe1 00        		.byte	0
 7449 0fe2 00        		.byte	0
 7450 0fe3 00        		.byte	0
 7451 0fe4 00        		.byte	0
 7452 0fe5 00        		.byte	0
 7453 0fe6 00        		.byte	0
 7454 0fe7 30        		.byte	48
 7455 0fe8 30        		.byte	48
 7456 0fe9 3F        		.byte	63
 7457 0fea 3F        		.byte	63
 7458 0feb 30        		.byte	48
 7459 0fec 30        		.byte	48
 7460 0fed 00        		.byte	0
 7461 0fee 00        		.byte	0
 7462 0fef 00        		.byte	0
 7463 0ff0 00        		.byte	0
 7464 0ff1 00        		.byte	0
 7465 0ff2 00        		.byte	0
 7466 0ff3 00        		.byte	0
 7467 0ff4 00        		.byte	0
 7468 0ff5 00        		.byte	0
 7469 0ff6 60        		.byte	96
 7470 0ff7 EC        		.byte	-20
 7471 0ff8 EC        		.byte	-20
 7472 0ff9 00        		.byte	0
 7473 0ffa 00        		.byte	0
 7474 0ffb 00        		.byte	0
 7475 0ffc 00        		.byte	0
 7476 0ffd 00        		.byte	0
 7477 0ffe 00        		.byte	0
 7478 0fff 60        		.byte	96
 7479 1000 E0        		.byte	-32
 7480 1001 C0        		.byte	-64
 7481 1002 C0        		.byte	-64
 7482 1003 FF        		.byte	-1
 7483 1004 7F        		.byte	127
 7484 1005 00        		.byte	0
 7485 1006 00        		.byte	0
 7486 1007 00        		.byte	0
 7487 1008 00        		.byte	0
 7488 1009 00        		.byte	0
 7489 100a FF        		.byte	-1
 7490 100b FF        		.byte	-1
 7491 100c 00        		.byte	0
 7492 100d 80        		.byte	-128
 7493 100e C0        		.byte	-64
 7494 100f E0        		.byte	-32
 7495 1010 60        		.byte	96
 7496 1011 00        		.byte	0
 7497 1012 00        		.byte	0
 7498 1013 00        		.byte	0
 7499 1014 00        		.byte	0
 7500 1015 00        		.byte	0
 7501 1016 3F        		.byte	63
 7502 1017 3F        		.byte	63
 7503 1018 03        		.byte	3
 7504 1019 07        		.byte	7
 7505 101a 0F        		.byte	15
 7506 101b 1C        		.byte	28
 7507 101c 38        		.byte	56
 7508 101d 30        		.byte	48
 7509 101e 00        		.byte	0
 7510 101f 00        		.byte	0
 7511 1020 00        		.byte	0
 7512 1021 00        		.byte	0
 7513 1022 00        		.byte	0
 7514 1023 00        		.byte	0
 7515 1024 03        		.byte	3
 7516 1025 FF        		.byte	-1
 7517 1026 FF        		.byte	-1
 7518 1027 00        		.byte	0
 7519 1028 00        		.byte	0
 7520 1029 00        		.byte	0
 7521 102a 00        		.byte	0
 7522 102b 00        		.byte	0
 7523 102c 00        		.byte	0
 7524 102d 00        		.byte	0
 7525 102e 00        		.byte	0
 7526 102f 30        		.byte	48
 7527 1030 30        		.byte	48
 7528 1031 3F        		.byte	63
 7529 1032 3F        		.byte	63
 7530 1033 30        		.byte	48
 7531 1034 30        		.byte	48
 7532 1035 00        		.byte	0
 7533 1036 00        		.byte	0
 7534 1037 00        		.byte	0
 7535 1038 00        		.byte	0
 7536 1039 E0        		.byte	-32
 7537 103a C0        		.byte	-64
 7538 103b E0        		.byte	-32
 7539 103c E0        		.byte	-32
 7540 103d C0        		.byte	-64
 7541 103e C0        		.byte	-64
 7542 103f E0        		.byte	-32
 7543 1040 E0        		.byte	-32
 7544 1041 C0        		.byte	-64
 7545 1042 80        		.byte	-128
 7546 1043 00        		.byte	0
 7547 1044 00        		.byte	0
 7548 1045 3F        		.byte	63
 7549 1046 3F        		.byte	63
 7550 1047 00        		.byte	0
 7551 1048 00        		.byte	0
 7552 1049 3F        		.byte	63
 7553 104a 3F        		.byte	63
 7554 104b 00        		.byte	0
 7555 104c 00        		.byte	0
 7556 104d 3F        		.byte	63
 7557 104e 3F        		.byte	63
 7558 104f 00        		.byte	0
 7559 1050 00        		.byte	0
 7560 1051 00        		.byte	0
 7561 1052 E0        		.byte	-32
 7562 1053 E0        		.byte	-32
 7563 1054 60        		.byte	96
 7564 1055 60        		.byte	96
 7565 1056 60        		.byte	96
 7566 1057 60        		.byte	96
 7567 1058 E0        		.byte	-32
 7568 1059 C0        		.byte	-64
 7569 105a 80        		.byte	-128
 7570 105b 00        		.byte	0
 7571 105c 00        		.byte	0
 7572 105d 00        		.byte	0
 7573 105e 3F        		.byte	63
 7574 105f 3F        		.byte	63
 7575 1060 00        		.byte	0
 7576 1061 00        		.byte	0
 7577 1062 00        		.byte	0
 7578 1063 00        		.byte	0
 7579 1064 00        		.byte	0
 7580 1065 3F        		.byte	63
 7581 1066 3F        		.byte	63
 7582 1067 00        		.byte	0
 7583 1068 00        		.byte	0
 7584 1069 80        		.byte	-128
 7585 106a C0        		.byte	-64
 7586 106b E0        		.byte	-32
 7587 106c 60        		.byte	96
 7588 106d 60        		.byte	96
 7589 106e 60        		.byte	96
 7590 106f 60        		.byte	96
 7591 1070 E0        		.byte	-32
 7592 1071 C0        		.byte	-64
 7593 1072 80        		.byte	-128
 7594 1073 00        		.byte	0
 7595 1074 00        		.byte	0
 7596 1075 0F        		.byte	15
 7597 1076 1F        		.byte	31
 7598 1077 38        		.byte	56
 7599 1078 30        		.byte	48
 7600 1079 30        		.byte	48
 7601 107a 30        		.byte	48
 7602 107b 30        		.byte	48
 7603 107c 38        		.byte	56
 7604 107d 1F        		.byte	31
 7605 107e 0F        		.byte	15
 7606 107f 00        		.byte	0
 7607 1080 00        		.byte	0
 7608 1081 E0        		.byte	-32
 7609 1082 E0        		.byte	-32
 7610 1083 60        		.byte	96
 7611 1084 60        		.byte	96
 7612 1085 60        		.byte	96
 7613 1086 60        		.byte	96
 7614 1087 60        		.byte	96
 7615 1088 E0        		.byte	-32
 7616 1089 C0        		.byte	-64
 7617 108a 80        		.byte	-128
 7618 108b 00        		.byte	0
 7619 108c 00        		.byte	0
 7620 108d FF        		.byte	-1
 7621 108e FF        		.byte	-1
 7622 108f 0C        		.byte	12
 7623 1090 18        		.byte	24
 7624 1091 18        		.byte	24
 7625 1092 18        		.byte	24
 7626 1093 18        		.byte	24
 7627 1094 1C        		.byte	28
 7628 1095 0F        		.byte	15
 7629 1096 07        		.byte	7
 7630 1097 00        		.byte	0
 7631 1098 00        		.byte	0
 7632 1099 80        		.byte	-128
 7633 109a C0        		.byte	-64
 7634 109b E0        		.byte	-32
 7635 109c 60        		.byte	96
 7636 109d 60        		.byte	96
 7637 109e 60        		.byte	96
 7638 109f 60        		.byte	96
 7639 10a0 60        		.byte	96
 7640 10a1 E0        		.byte	-32
 7641 10a2 E0        		.byte	-32
 7642 10a3 00        		.byte	0
 7643 10a4 00        		.byte	0
 7644 10a5 07        		.byte	7
 7645 10a6 0F        		.byte	15
 7646 10a7 1C        		.byte	28
 7647 10a8 18        		.byte	24
 7648 10a9 18        		.byte	24
 7649 10aa 18        		.byte	24
 7650 10ab 18        		.byte	24
 7651 10ac 0C        		.byte	12
 7652 10ad FF        		.byte	-1
 7653 10ae FF        		.byte	-1
 7654 10af 00        		.byte	0
 7655 10b0 00        		.byte	0
 7656 10b1 00        		.byte	0
 7657 10b2 E0        		.byte	-32
 7658 10b3 E0        		.byte	-32
 7659 10b4 C0        		.byte	-64
 7660 10b5 60        		.byte	96
 7661 10b6 60        		.byte	96
 7662 10b7 60        		.byte	96
 7663 10b8 60        		.byte	96
 7664 10b9 E0        		.byte	-32
 7665 10ba C0        		.byte	-64
 7666 10bb 00        		.byte	0
 7667 10bc 00        		.byte	0
 7668 10bd 00        		.byte	0
 7669 10be 3F        		.byte	63
 7670 10bf 3F        		.byte	63
 7671 10c0 00        		.byte	0
 7672 10c1 00        		.byte	0
 7673 10c2 00        		.byte	0
 7674 10c3 00        		.byte	0
 7675 10c4 00        		.byte	0
 7676 10c5 00        		.byte	0
 7677 10c6 00        		.byte	0
 7678 10c7 00        		.byte	0
 7679 10c8 00        		.byte	0
 7680 10c9 C0        		.byte	-64
 7681 10ca E0        		.byte	-32
 7682 10cb 60        		.byte	96
 7683 10cc 60        		.byte	96
 7684 10cd 60        		.byte	96
 7685 10ce 60        		.byte	96
 7686 10cf 60        		.byte	96
 7687 10d0 40        		.byte	64
 7688 10d1 00        		.byte	0
 7689 10d2 00        		.byte	0
 7690 10d3 00        		.byte	0
 7691 10d4 00        		.byte	0
 7692 10d5 11        		.byte	17
 7693 10d6 33        		.byte	51
 7694 10d7 33        		.byte	51
 7695 10d8 33        		.byte	51
 7696 10d9 33        		.byte	51
 7697 10da 33        		.byte	51
 7698 10db 3F        		.byte	63
 7699 10dc 1E        		.byte	30
 7700 10dd 00        		.byte	0
 7701 10de 00        		.byte	0
 7702 10df 00        		.byte	0
 7703 10e0 00        		.byte	0
 7704 10e1 60        		.byte	96
 7705 10e2 60        		.byte	96
 7706 10e3 FE        		.byte	-2
 7707 10e4 FE        		.byte	-2
 7708 10e5 60        		.byte	96
 7709 10e6 60        		.byte	96
 7710 10e7 60        		.byte	96
 7711 10e8 00        		.byte	0
 7712 10e9 00        		.byte	0
 7713 10ea 00        		.byte	0
 7714 10eb 00        		.byte	0
 7715 10ec 00        		.byte	0
 7716 10ed 00        		.byte	0
 7717 10ee 00        		.byte	0
 7718 10ef 1F        		.byte	31
 7719 10f0 3F        		.byte	63
 7720 10f1 30        		.byte	48
 7721 10f2 30        		.byte	48
 7722 10f3 30        		.byte	48
 7723 10f4 30        		.byte	48
 7724 10f5 00        		.byte	0
 7725 10f6 00        		.byte	0
 7726 10f7 00        		.byte	0
 7727 10f8 00        		.byte	0
 7728 10f9 E0        		.byte	-32
 7729 10fa E0        		.byte	-32
 7730 10fb 00        		.byte	0
 7731 10fc 00        		.byte	0
 7732 10fd 00        		.byte	0
 7733 10fe 00        		.byte	0
 7734 10ff 00        		.byte	0
 7735 1100 00        		.byte	0
 7736 1101 E0        		.byte	-32
 7737 1102 E0        		.byte	-32
 7738 1103 00        		.byte	0
 7739 1104 00        		.byte	0
 7740 1105 0F        		.byte	15
 7741 1106 1F        		.byte	31
 7742 1107 38        		.byte	56
 7743 1108 30        		.byte	48
 7744 1109 30        		.byte	48
 7745 110a 30        		.byte	48
 7746 110b 30        		.byte	48
 7747 110c 18        		.byte	24
 7748 110d 3F        		.byte	63
 7749 110e 3F        		.byte	63
 7750 110f 00        		.byte	0
 7751 1110 00        		.byte	0
 7752 1111 60        		.byte	96
 7753 1112 E0        		.byte	-32
 7754 1113 80        		.byte	-128
 7755 1114 00        		.byte	0
 7756 1115 00        		.byte	0
 7757 1116 00        		.byte	0
 7758 1117 00        		.byte	0
 7759 1118 80        		.byte	-128
 7760 1119 E0        		.byte	-32
 7761 111a 60        		.byte	96
 7762 111b 00        		.byte	0
 7763 111c 00        		.byte	0
 7764 111d 00        		.byte	0
 7765 111e 01        		.byte	1
 7766 111f 07        		.byte	7
 7767 1120 1E        		.byte	30
 7768 1121 38        		.byte	56
 7769 1122 38        		.byte	56
 7770 1123 1E        		.byte	30
 7771 1124 07        		.byte	7
 7772 1125 01        		.byte	1
 7773 1126 00        		.byte	0
 7774 1127 00        		.byte	0
 7775 1128 00        		.byte	0
 7776 1129 E0        		.byte	-32
 7777 112a E0        		.byte	-32
 7778 112b 00        		.byte	0
 7779 112c 00        		.byte	0
 7780 112d E0        		.byte	-32
 7781 112e E0        		.byte	-32
 7782 112f 00        		.byte	0
 7783 1130 00        		.byte	0
 7784 1131 E0        		.byte	-32
 7785 1132 E0        		.byte	-32
 7786 1133 00        		.byte	0
 7787 1134 00        		.byte	0
 7788 1135 07        		.byte	7
 7789 1136 1F        		.byte	31
 7790 1137 38        		.byte	56
 7791 1138 1C        		.byte	28
 7792 1139 0F        		.byte	15
 7793 113a 0F        		.byte	15
 7794 113b 1C        		.byte	28
 7795 113c 38        		.byte	56
 7796 113d 1F        		.byte	31
 7797 113e 07        		.byte	7
 7798 113f 00        		.byte	0
 7799 1140 00        		.byte	0
 7800 1141 60        		.byte	96
 7801 1142 E0        		.byte	-32
 7802 1143 C0        		.byte	-64
 7803 1144 80        		.byte	-128
 7804 1145 00        		.byte	0
 7805 1146 80        		.byte	-128
 7806 1147 C0        		.byte	-64
 7807 1148 E0        		.byte	-32
 7808 1149 60        		.byte	96
 7809 114a 00        		.byte	0
 7810 114b 00        		.byte	0
 7811 114c 00        		.byte	0
 7812 114d 30        		.byte	48
 7813 114e 38        		.byte	56
 7814 114f 1D        		.byte	29
 7815 1150 0F        		.byte	15
 7816 1151 07        		.byte	7
 7817 1152 0F        		.byte	15
 7818 1153 1D        		.byte	29
 7819 1154 38        		.byte	56
 7820 1155 30        		.byte	48
 7821 1156 00        		.byte	0
 7822 1157 00        		.byte	0
 7823 1158 00        		.byte	0
 7824 1159 00        		.byte	0
 7825 115a 60        		.byte	96
 7826 115b E0        		.byte	-32
 7827 115c 80        		.byte	-128
 7828 115d 00        		.byte	0
 7829 115e 00        		.byte	0
 7830 115f 80        		.byte	-128
 7831 1160 E0        		.byte	-32
 7832 1161 60        		.byte	96
 7833 1162 00        		.byte	0
 7834 1163 00        		.byte	0
 7835 1164 00        		.byte	0
 7836 1165 00        		.byte	0
 7837 1166 00        		.byte	0
 7838 1167 81        		.byte	-127
 7839 1168 E7        		.byte	-25
 7840 1169 7E        		.byte	126
 7841 116a 1E        		.byte	30
 7842 116b 07        		.byte	7
 7843 116c 01        		.byte	1
 7844 116d 00        		.byte	0
 7845 116e 00        		.byte	0
 7846 116f 00        		.byte	0
 7847 1170 00        		.byte	0
 7848 1171 60        		.byte	96
 7849 1172 60        		.byte	96
 7850 1173 60        		.byte	96
 7851 1174 60        		.byte	96
 7852 1175 60        		.byte	96
 7853 1176 E0        		.byte	-32
 7854 1177 E0        		.byte	-32
 7855 1178 60        		.byte	96
 7856 1179 20        		.byte	32
 7857 117a 00        		.byte	0
 7858 117b 00        		.byte	0
 7859 117c 00        		.byte	0
 7860 117d 30        		.byte	48
 7861 117e 38        		.byte	56
 7862 117f 3C        		.byte	60
 7863 1180 36        		.byte	54
 7864 1181 33        		.byte	51
 7865 1182 31        		.byte	49
 7866 1183 30        		.byte	48
 7867 1184 30        		.byte	48
 7868 1185 30        		.byte	48
 7869 1186 00        		.byte	0
 7870 1187 00        		.byte	0
 7871 1188 00        		.byte	0
 7872 1189 00        		.byte	0
 7873 118a 80        		.byte	-128
 7874 118b C0        		.byte	-64
 7875 118c FC        		.byte	-4
 7876 118d 7E        		.byte	126
 7877 118e 07        		.byte	7
 7878 118f 03        		.byte	3
 7879 1190 03        		.byte	3
 7880 1191 03        		.byte	3
 7881 1192 00        		.byte	0
 7882 1193 00        		.byte	0
 7883 1194 00        		.byte	0
 7884 1195 00        		.byte	0
 7885 1196 00        		.byte	0
 7886 1197 01        		.byte	1
 7887 1198 1F        		.byte	31
 7888 1199 3F        		.byte	63
 7889 119a 70        		.byte	112
 7890 119b 60        		.byte	96
 7891 119c 60        		.byte	96
 7892 119d 60        		.byte	96
 7893 119e 00        		.byte	0
 7894 119f 00        		.byte	0
 7895 11a0 00        		.byte	0
 7896 11a1 00        		.byte	0
 7897 11a2 00        		.byte	0
 7898 11a3 00        		.byte	0
 7899 11a4 00        		.byte	0
 7900 11a5 FF        		.byte	-1
 7901 11a6 FF        		.byte	-1
 7902 11a7 00        		.byte	0
 7903 11a8 00        		.byte	0
 7904 11a9 00        		.byte	0
 7905 11aa 00        		.byte	0
 7906 11ab 00        		.byte	0
 7907 11ac 00        		.byte	0
 7908 11ad 00        		.byte	0
 7909 11ae 00        		.byte	0
 7910 11af 00        		.byte	0
 7911 11b0 00        		.byte	0
 7912 11b1 3F        		.byte	63
 7913 11b2 3F        		.byte	63
 7914 11b3 00        		.byte	0
 7915 11b4 00        		.byte	0
 7916 11b5 00        		.byte	0
 7917 11b6 00        		.byte	0
 7918 11b7 00        		.byte	0
 7919 11b8 00        		.byte	0
 7920 11b9 00        		.byte	0
 7921 11ba 03        		.byte	3
 7922 11bb 03        		.byte	3
 7923 11bc 03        		.byte	3
 7924 11bd 07        		.byte	7
 7925 11be 7E        		.byte	126
 7926 11bf FC        		.byte	-4
 7927 11c0 C0        		.byte	-64
 7928 11c1 80        		.byte	-128
 7929 11c2 00        		.byte	0
 7930 11c3 00        		.byte	0
 7931 11c4 00        		.byte	0
 7932 11c5 00        		.byte	0
 7933 11c6 60        		.byte	96
 7934 11c7 60        		.byte	96
 7935 11c8 60        		.byte	96
 7936 11c9 70        		.byte	112
 7937 11ca 3F        		.byte	63
 7938 11cb 1F        		.byte	31
 7939 11cc 01        		.byte	1
 7940 11cd 00        		.byte	0
 7941 11ce 00        		.byte	0
 7942 11cf 00        		.byte	0
 7943 11d0 00        		.byte	0
 7944 11d1 10        		.byte	16
 7945 11d2 18        		.byte	24
 7946 11d3 0C        		.byte	12
 7947 11d4 04        		.byte	4
 7948 11d5 0C        		.byte	12
 7949 11d6 18        		.byte	24
 7950 11d7 10        		.byte	16
 7951 11d8 18        		.byte	24
 7952 11d9 0C        		.byte	12
 7953 11da 04        		.byte	4
 7954 11db 00        		.byte	0
 7955 11dc 00        		.byte	0
 7956 11dd 00        		.byte	0
 7957 11de 00        		.byte	0
 7958 11df 00        		.byte	0
 7959 11e0 00        		.byte	0
 7960 11e1 00        		.byte	0
 7961 11e2 00        		.byte	0
 7962 11e3 00        		.byte	0
 7963 11e4 00        		.byte	0
 7964 11e5 00        		.byte	0
 7965 11e6 00        		.byte	0
 7966 11e7 00        		.byte	0
 7967 11e8 00        		.byte	0
 7968 11e9 00        		.byte	0
 7969 11ea 80        		.byte	-128
 7970 11eb C0        		.byte	-64
 7971 11ec 60        		.byte	96
 7972 11ed 30        		.byte	48
 7973 11ee 30        		.byte	48
 7974 11ef 60        		.byte	96
 7975 11f0 C0        		.byte	-64
 7976 11f1 80        		.byte	-128
 7977 11f2 00        		.byte	0
 7978 11f3 00        		.byte	0
 7979 11f4 00        		.byte	0
 7980 11f5 0F        		.byte	15
 7981 11f6 0F        		.byte	15
 7982 11f7 0C        		.byte	12
 7983 11f8 0C        		.byte	12
 7984 11f9 0C        		.byte	12
 7985 11fa 0C        		.byte	12
 7986 11fb 0C        		.byte	12
 7987 11fc 0C        		.byte	12
 7988 11fd 0F        		.byte	15
 7989 11fe 0F        		.byte	15
 7990 11ff 00        		.byte	0
 7991 1200 55        		.byte	85
 7992 1201 00        		.byte	0
 7993 1202 AA        		.byte	-86
 7994 1203 00        		.byte	0
 7995 1204 55        		.byte	85
 7996 1205 00        		.byte	0
 7997 1206 AA        		.byte	-86
 7998 1207 00        		.byte	0
 7999 1208 55        		.byte	85
 8000 1209 00        		.byte	0
 8001 120a AA        		.byte	-86
 8002 120b 00        		.byte	0
 8003 120c 55        		.byte	85
 8004 120d 00        		.byte	0
 8005 120e AA        		.byte	-86
 8006 120f 00        		.byte	0
 8007 1210 55        		.byte	85
 8008 1211 00        		.byte	0
 8009 1212 AA        		.byte	-86
 8010 1213 00        		.byte	0
 8011 1214 55        		.byte	85
 8012 1215 00        		.byte	0
 8013 1216 AA        		.byte	-86
 8014 1217 00        		.byte	0
 8015 1218 AA        		.byte	-86
 8016 1219 55        		.byte	85
 8017 121a AA        		.byte	-86
 8018 121b 55        		.byte	85
 8019 121c AA        		.byte	-86
 8020 121d 55        		.byte	85
 8021 121e AA        		.byte	-86
 8022 121f 55        		.byte	85
 8023 1220 AA        		.byte	-86
 8024 1221 55        		.byte	85
 8025 1222 AA        		.byte	-86
 8026 1223 55        		.byte	85
 8027 1224 AA        		.byte	-86
 8028 1225 55        		.byte	85
 8029 1226 AA        		.byte	-86
 8030 1227 55        		.byte	85
 8031 1228 AA        		.byte	-86
 8032 1229 55        		.byte	85
 8033 122a AA        		.byte	-86
 8034 122b 55        		.byte	85
 8035 122c AA        		.byte	-86
 8036 122d 55        		.byte	85
 8037 122e AA        		.byte	-86
 8038 122f 55        		.byte	85
 8039 1230 AA        		.byte	-86
 8040 1231 FF        		.byte	-1
 8041 1232 55        		.byte	85
 8042 1233 FF        		.byte	-1
 8043 1234 AA        		.byte	-86
 8044 1235 FF        		.byte	-1
 8045 1236 55        		.byte	85
 8046 1237 FF        		.byte	-1
 8047 1238 AA        		.byte	-86
 8048 1239 FF        		.byte	-1
 8049 123a 55        		.byte	85
 8050 123b FF        		.byte	-1
 8051 123c AA        		.byte	-86
 8052 123d FF        		.byte	-1
 8053 123e 55        		.byte	85
 8054 123f FF        		.byte	-1
 8055 1240 AA        		.byte	-86
 8056 1241 FF        		.byte	-1
 8057 1242 55        		.byte	85
 8058 1243 FF        		.byte	-1
 8059 1244 AA        		.byte	-86
 8060 1245 FF        		.byte	-1
 8061 1246 55        		.byte	85
 8062 1247 FF        		.byte	-1
 8063 1248 00        		.byte	0
 8064 1249 00        		.byte	0
 8065 124a 00        		.byte	0
 8066 124b 00        		.byte	0
 8067 124c 00        		.byte	0
 8068 124d FF        		.byte	-1
 8069 124e FF        		.byte	-1
 8070 124f 00        		.byte	0
 8071 1250 00        		.byte	0
 8072 1251 00        		.byte	0
 8073 1252 00        		.byte	0
 8074 1253 00        		.byte	0
 8075 1254 00        		.byte	0
 8076 1255 00        		.byte	0
 8077 1256 00        		.byte	0
 8078 1257 00        		.byte	0
 8079 1258 00        		.byte	0
 8080 1259 FF        		.byte	-1
 8081 125a FF        		.byte	-1
 8082 125b 00        		.byte	0
 8083 125c 00        		.byte	0
 8084 125d 00        		.byte	0
 8085 125e 00        		.byte	0
 8086 125f 00        		.byte	0
 8087 1260 80        		.byte	-128
 8088 1261 80        		.byte	-128
 8089 1262 80        		.byte	-128
 8090 1263 80        		.byte	-128
 8091 1264 80        		.byte	-128
 8092 1265 FF        		.byte	-1
 8093 1266 FF        		.byte	-1
 8094 1267 00        		.byte	0
 8095 1268 00        		.byte	0
 8096 1269 00        		.byte	0
 8097 126a 00        		.byte	0
 8098 126b 00        		.byte	0
 8099 126c 01        		.byte	1
 8100 126d 01        		.byte	1
 8101 126e 01        		.byte	1
 8102 126f 01        		.byte	1
 8103 1270 01        		.byte	1
 8104 1271 FF        		.byte	-1
 8105 1272 FF        		.byte	-1
 8106 1273 00        		.byte	0
 8107 1274 00        		.byte	0
 8108 1275 00        		.byte	0
 8109 1276 00        		.byte	0
 8110 1277 00        		.byte	0
 8111 1278 C0        		.byte	-64
 8112 1279 C0        		.byte	-64
 8113 127a C0        		.byte	-64
 8114 127b C0        		.byte	-64
 8115 127c C0        		.byte	-64
 8116 127d FF        		.byte	-1
 8117 127e FF        		.byte	-1
 8118 127f 00        		.byte	0
 8119 1280 00        		.byte	0
 8120 1281 00        		.byte	0
 8121 1282 00        		.byte	0
 8122 1283 00        		.byte	0
 8123 1284 06        		.byte	6
 8124 1285 06        		.byte	6
 8125 1286 06        		.byte	6
 8126 1287 06        		.byte	6
 8127 1288 06        		.byte	6
 8128 1289 FF        		.byte	-1
 8129 128a FF        		.byte	-1
 8130 128b 00        		.byte	0
 8131 128c 00        		.byte	0
 8132 128d 00        		.byte	0
 8133 128e 00        		.byte	0
 8134 128f 00        		.byte	0
 8135 1290 80        		.byte	-128
 8136 1291 80        		.byte	-128
 8137 1292 FF        		.byte	-1
 8138 1293 FF        		.byte	-1
 8139 1294 00        		.byte	0
 8140 1295 FF        		.byte	-1
 8141 1296 FF        		.byte	-1
 8142 1297 00        		.byte	0
 8143 1298 00        		.byte	0
 8144 1299 00        		.byte	0
 8145 129a 00        		.byte	0
 8146 129b 00        		.byte	0
 8147 129c 01        		.byte	1
 8148 129d 01        		.byte	1
 8149 129e FF        		.byte	-1
 8150 129f FF        		.byte	-1
 8151 12a0 00        		.byte	0
 8152 12a1 FF        		.byte	-1
 8153 12a2 FF        		.byte	-1
 8154 12a3 00        		.byte	0
 8155 12a4 00        		.byte	0
 8156 12a5 00        		.byte	0
 8157 12a6 00        		.byte	0
 8158 12a7 00        		.byte	0
 8159 12a8 80        		.byte	-128
 8160 12a9 80        		.byte	-128
 8161 12aa 80        		.byte	-128
 8162 12ab 80        		.byte	-128
 8163 12ac 80        		.byte	-128
 8164 12ad 80        		.byte	-128
 8165 12ae 80        		.byte	-128
 8166 12af 00        		.byte	0
 8167 12b0 00        		.byte	0
 8168 12b1 00        		.byte	0
 8169 12b2 00        		.byte	0
 8170 12b3 00        		.byte	0
 8171 12b4 01        		.byte	1
 8172 12b5 01        		.byte	1
 8173 12b6 FF        		.byte	-1
 8174 12b7 FF        		.byte	-1
 8175 12b8 01        		.byte	1
 8176 12b9 FF        		.byte	-1
 8177 12ba FF        		.byte	-1
 8178 12bb 00        		.byte	0
 8179 12bc 00        		.byte	0
 8180 12bd 00        		.byte	0
 8181 12be 00        		.byte	0
 8182 12bf 00        		.byte	0
 8183 12c0 C0        		.byte	-64
 8184 12c1 C0        		.byte	-64
 8185 12c2 C0        		.byte	-64
 8186 12c3 C0        		.byte	-64
 8187 12c4 C0        		.byte	-64
 8188 12c5 C0        		.byte	-64
 8189 12c6 C0        		.byte	-64
 8190 12c7 00        		.byte	0
 8191 12c8 00        		.byte	0
 8192 12c9 00        		.byte	0
 8193 12ca 00        		.byte	0
 8194 12cb 00        		.byte	0
 8195 12cc 06        		.byte	6
 8196 12cd 06        		.byte	6
 8197 12ce 06        		.byte	6
 8198 12cf 06        		.byte	6
 8199 12d0 06        		.byte	6
 8200 12d1 FF        		.byte	-1
 8201 12d2 FF        		.byte	-1
 8202 12d3 00        		.byte	0
 8203 12d4 00        		.byte	0
 8204 12d5 00        		.byte	0
 8205 12d6 00        		.byte	0
 8206 12d7 00        		.byte	0
 8207 12d8 C0        		.byte	-64
 8208 12d9 C0        		.byte	-64
 8209 12da FF        		.byte	-1
 8210 12db FF        		.byte	-1
 8211 12dc 00        		.byte	0
 8212 12dd FF        		.byte	-1
 8213 12de FF        		.byte	-1
 8214 12df 00        		.byte	0
 8215 12e0 00        		.byte	0
 8216 12e1 00        		.byte	0
 8217 12e2 00        		.byte	0
 8218 12e3 00        		.byte	0
 8219 12e4 06        		.byte	6
 8220 12e5 06        		.byte	6
 8221 12e6 FE        		.byte	-2
 8222 12e7 FE        		.byte	-2
 8223 12e8 00        		.byte	0
 8224 12e9 FF        		.byte	-1
 8225 12ea FF        		.byte	-1
 8226 12eb 00        		.byte	0
 8227 12ec 00        		.byte	0
 8228 12ed 00        		.byte	0
 8229 12ee 00        		.byte	0
 8230 12ef 00        		.byte	0
 8231 12f0 00        		.byte	0
 8232 12f1 00        		.byte	0
 8233 12f2 FF        		.byte	-1
 8234 12f3 FF        		.byte	-1
 8235 12f4 00        		.byte	0
 8236 12f5 FF        		.byte	-1
 8237 12f6 FF        		.byte	-1
 8238 12f7 00        		.byte	0
 8239 12f8 00        		.byte	0
 8240 12f9 00        		.byte	0
 8241 12fa 00        		.byte	0
 8242 12fb 00        		.byte	0
 8243 12fc 00        		.byte	0
 8244 12fd 00        		.byte	0
 8245 12fe FF        		.byte	-1
 8246 12ff FF        		.byte	-1
 8247 1300 00        		.byte	0
 8248 1301 FF        		.byte	-1
 8249 1302 FF        		.byte	-1
 8250 1303 00        		.byte	0
 8251 1304 00        		.byte	0
 8252 1305 00        		.byte	0
 8253 1306 00        		.byte	0
 8254 1307 00        		.byte	0
 8255 1308 C0        		.byte	-64
 8256 1309 C0        		.byte	-64
 8257 130a C0        		.byte	-64
 8258 130b C0        		.byte	-64
 8259 130c C0        		.byte	-64
 8260 130d C0        		.byte	-64
 8261 130e C0        		.byte	-64
 8262 130f 00        		.byte	0
 8263 1310 00        		.byte	0
 8264 1311 00        		.byte	0
 8265 1312 00        		.byte	0
 8266 1313 00        		.byte	0
 8267 1314 06        		.byte	6
 8268 1315 06        		.byte	6
 8269 1316 FE        		.byte	-2
 8270 1317 FE        		.byte	-2
 8271 1318 00        		.byte	0
 8272 1319 FF        		.byte	-1
 8273 131a FF        		.byte	-1
 8274 131b 00        		.byte	0
 8275 131c 00        		.byte	0
 8276 131d 00        		.byte	0
 8277 131e 00        		.byte	0
 8278 131f 00        		.byte	0
 8279 1320 C0        		.byte	-64
 8280 1321 C0        		.byte	-64
 8281 1322 FF        		.byte	-1
 8282 1323 FF        		.byte	-1
 8283 1324 00        		.byte	0
 8284 1325 FF        		.byte	-1
 8285 1326 FF        		.byte	-1
 8286 1327 00        		.byte	0
 8287 1328 00        		.byte	0
 8288 1329 00        		.byte	0
 8289 132a 00        		.byte	0
 8290 132b 00        		.byte	0
 8291 132c 06        		.byte	6
 8292 132d 06        		.byte	6
 8293 132e 06        		.byte	6
 8294 132f 06        		.byte	6
 8295 1330 06        		.byte	6
 8296 1331 07        		.byte	7
 8297 1332 07        		.byte	7
 8298 1333 00        		.byte	0
 8299 1334 00        		.byte	0
 8300 1335 00        		.byte	0
 8301 1336 00        		.byte	0
 8302 1337 00        		.byte	0
 8303 1338 80        		.byte	-128
 8304 1339 80        		.byte	-128
 8305 133a FF        		.byte	-1
 8306 133b FF        		.byte	-1
 8307 133c 80        		.byte	-128
 8308 133d FF        		.byte	-1
 8309 133e FF        		.byte	-1
 8310 133f 00        		.byte	0
 8311 1340 00        		.byte	0
 8312 1341 00        		.byte	0
 8313 1342 00        		.byte	0
 8314 1343 00        		.byte	0
 8315 1344 01        		.byte	1
 8316 1345 01        		.byte	1
 8317 1346 01        		.byte	1
 8318 1347 01        		.byte	1
 8319 1348 01        		.byte	1
 8320 1349 01        		.byte	1
 8321 134a 01        		.byte	1
 8322 134b 00        		.byte	0
 8323 134c 00        		.byte	0
 8324 134d 00        		.byte	0
 8325 134e 00        		.byte	0
 8326 134f 00        		.byte	0
 8327 1350 C0        		.byte	-64
 8328 1351 C0        		.byte	-64
 8329 1352 C0        		.byte	-64
 8330 1353 C0        		.byte	-64
 8331 1354 C0        		.byte	-64
 8332 1355 FF        		.byte	-1
 8333 1356 FF        		.byte	-1
 8334 1357 00        		.byte	0
 8335 1358 00        		.byte	0
 8336 1359 00        		.byte	0
 8337 135a 00        		.byte	0
 8338 135b 00        		.byte	0
 8339 135c 06        		.byte	6
 8340 135d 06        		.byte	6
 8341 135e 06        		.byte	6
 8342 135f 06        		.byte	6
 8343 1360 06        		.byte	6
 8344 1361 07        		.byte	7
 8345 1362 07        		.byte	7
 8346 1363 00        		.byte	0
 8347 1364 00        		.byte	0
 8348 1365 00        		.byte	0
 8349 1366 00        		.byte	0
 8350 1367 00        		.byte	0
 8351 1368 80        		.byte	-128
 8352 1369 80        		.byte	-128
 8353 136a 80        		.byte	-128
 8354 136b 80        		.byte	-128
 8355 136c 80        		.byte	-128
 8356 136d 80        		.byte	-128
 8357 136e 80        		.byte	-128
 8358 136f 00        		.byte	0
 8359 1370 00        		.byte	0
 8360 1371 00        		.byte	0
 8361 1372 00        		.byte	0
 8362 1373 00        		.byte	0
 8363 1374 01        		.byte	1
 8364 1375 01        		.byte	1
 8365 1376 01        		.byte	1
 8366 1377 01        		.byte	1
 8367 1378 01        		.byte	1
 8368 1379 FF        		.byte	-1
 8369 137a FF        		.byte	-1
 8370 137b 00        		.byte	0
 8371 137c 00        		.byte	0
 8372 137d 00        		.byte	0
 8373 137e 00        		.byte	0
 8374 137f 00        		.byte	0
 8375 1380 00        		.byte	0
 8376 1381 00        		.byte	0
 8377 1382 00        		.byte	0
 8378 1383 00        		.byte	0
 8379 1384 00        		.byte	0
 8380 1385 FF        		.byte	-1
 8381 1386 FF        		.byte	-1
 8382 1387 80        		.byte	-128
 8383 1388 80        		.byte	-128
 8384 1389 80        		.byte	-128
 8385 138a 80        		.byte	-128
 8386 138b 80        		.byte	-128
 8387 138c 00        		.byte	0
 8388 138d 00        		.byte	0
 8389 138e 00        		.byte	0
 8390 138f 00        		.byte	0
 8391 1390 00        		.byte	0
 8392 1391 01        		.byte	1
 8393 1392 01        		.byte	1
 8394 1393 01        		.byte	1
 8395 1394 01        		.byte	1
 8396 1395 01        		.byte	1
 8397 1396 01        		.byte	1
 8398 1397 01        		.byte	1
 8399 1398 80        		.byte	-128
 8400 1399 80        		.byte	-128
 8401 139a 80        		.byte	-128
 8402 139b 80        		.byte	-128
 8403 139c 80        		.byte	-128
 8404 139d FF        		.byte	-1
 8405 139e FF        		.byte	-1
 8406 139f 80        		.byte	-128
 8407 13a0 80        		.byte	-128
 8408 13a1 80        		.byte	-128
 8409 13a2 80        		.byte	-128
 8410 13a3 80        		.byte	-128
 8411 13a4 01        		.byte	1
 8412 13a5 01        		.byte	1
 8413 13a6 01        		.byte	1
 8414 13a7 01        		.byte	1
 8415 13a8 01        		.byte	1
 8416 13a9 01        		.byte	1
 8417 13aa 01        		.byte	1
 8418 13ab 01        		.byte	1
 8419 13ac 01        		.byte	1
 8420 13ad 01        		.byte	1
 8421 13ae 01        		.byte	1
 8422 13af 01        		.byte	1
 8423 13b0 80        		.byte	-128
 8424 13b1 80        		.byte	-128
 8425 13b2 80        		.byte	-128
 8426 13b3 80        		.byte	-128
 8427 13b4 80        		.byte	-128
 8428 13b5 80        		.byte	-128
 8429 13b6 80        		.byte	-128
 8430 13b7 80        		.byte	-128
 8431 13b8 80        		.byte	-128
 8432 13b9 80        		.byte	-128
 8433 13ba 80        		.byte	-128
 8434 13bb 80        		.byte	-128
 8435 13bc 01        		.byte	1
 8436 13bd 01        		.byte	1
 8437 13be 01        		.byte	1
 8438 13bf 01        		.byte	1
 8439 13c0 01        		.byte	1
 8440 13c1 FF        		.byte	-1
 8441 13c2 FF        		.byte	-1
 8442 13c3 01        		.byte	1
 8443 13c4 01        		.byte	1
 8444 13c5 01        		.byte	1
 8445 13c6 01        		.byte	1
 8446 13c7 01        		.byte	1
 8447 13c8 00        		.byte	0
 8448 13c9 00        		.byte	0
 8449 13ca 00        		.byte	0
 8450 13cb 00        		.byte	0
 8451 13cc 00        		.byte	0
 8452 13cd FF        		.byte	-1
 8453 13ce FF        		.byte	-1
 8454 13cf 80        		.byte	-128
 8455 13d0 80        		.byte	-128
 8456 13d1 80        		.byte	-128
 8457 13d2 80        		.byte	-128
 8458 13d3 80        		.byte	-128
 8459 13d4 00        		.byte	0
 8460 13d5 00        		.byte	0
 8461 13d6 00        		.byte	0
 8462 13d7 00        		.byte	0
 8463 13d8 00        		.byte	0
 8464 13d9 FF        		.byte	-1
 8465 13da FF        		.byte	-1
 8466 13db 01        		.byte	1
 8467 13dc 01        		.byte	1
 8468 13dd 01        		.byte	1
 8469 13de 01        		.byte	1
 8470 13df 01        		.byte	1
 8471 13e0 80        		.byte	-128
 8472 13e1 80        		.byte	-128
 8473 13e2 80        		.byte	-128
 8474 13e3 80        		.byte	-128
 8475 13e4 80        		.byte	-128
 8476 13e5 80        		.byte	-128
 8477 13e6 80        		.byte	-128
 8478 13e7 80        		.byte	-128
 8479 13e8 80        		.byte	-128
 8480 13e9 80        		.byte	-128
 8481 13ea 80        		.byte	-128
 8482 13eb 80        		.byte	-128
 8483 13ec 01        		.byte	1
 8484 13ed 01        		.byte	1
 8485 13ee 01        		.byte	1
 8486 13ef 01        		.byte	1
 8487 13f0 01        		.byte	1
 8488 13f1 01        		.byte	1
 8489 13f2 01        		.byte	1
 8490 13f3 01        		.byte	1
 8491 13f4 01        		.byte	1
 8492 13f5 01        		.byte	1
 8493 13f6 01        		.byte	1
 8494 13f7 01        		.byte	1
 8495 13f8 80        		.byte	-128
 8496 13f9 80        		.byte	-128
 8497 13fa 80        		.byte	-128
 8498 13fb 80        		.byte	-128
 8499 13fc 80        		.byte	-128
 8500 13fd FF        		.byte	-1
 8501 13fe FF        		.byte	-1
 8502 13ff 80        		.byte	-128
 8503 1400 80        		.byte	-128
 8504 1401 80        		.byte	-128
 8505 1402 80        		.byte	-128
 8506 1403 80        		.byte	-128
 8507 1404 01        		.byte	1
 8508 1405 01        		.byte	1
 8509 1406 01        		.byte	1
 8510 1407 01        		.byte	1
 8511 1408 01        		.byte	1
 8512 1409 FF        		.byte	-1
 8513 140a FF        		.byte	-1
 8514 140b 01        		.byte	1
 8515 140c 01        		.byte	1
 8516 140d 01        		.byte	1
 8517 140e 01        		.byte	1
 8518 140f 01        		.byte	1
 8519 1410 00        		.byte	0
 8520 1411 00        		.byte	0
 8521 1412 00        		.byte	0
 8522 1413 00        		.byte	0
 8523 1414 00        		.byte	0
 8524 1415 FF        		.byte	-1
 8525 1416 FF        		.byte	-1
 8526 1417 C0        		.byte	-64
 8527 1418 C0        		.byte	-64
 8528 1419 C0        		.byte	-64
 8529 141a C0        		.byte	-64
 8530 141b C0        		.byte	-64
 8531 141c 00        		.byte	0
 8532 141d 00        		.byte	0
 8533 141e 00        		.byte	0
 8534 141f 00        		.byte	0
 8535 1420 00        		.byte	0
 8536 1421 FF        		.byte	-1
 8537 1422 FF        		.byte	-1
 8538 1423 06        		.byte	6
 8539 1424 06        		.byte	6
 8540 1425 06        		.byte	6
 8541 1426 06        		.byte	6
 8542 1427 06        		.byte	6
 8543 1428 00        		.byte	0
 8544 1429 00        		.byte	0
 8545 142a FF        		.byte	-1
 8546 142b FF        		.byte	-1
 8547 142c 00        		.byte	0
 8548 142d FF        		.byte	-1
 8549 142e FF        		.byte	-1
 8550 142f 80        		.byte	-128
 8551 1430 80        		.byte	-128
 8552 1431 80        		.byte	-128
 8553 1432 80        		.byte	-128
 8554 1433 80        		.byte	-128
 8555 1434 00        		.byte	0
 8556 1435 00        		.byte	0
 8557 1436 FF        		.byte	-1
 8558 1437 FF        		.byte	-1
 8559 1438 00        		.byte	0
 8560 1439 FF        		.byte	-1
 8561 143a FF        		.byte	-1
 8562 143b 01        		.byte	1
 8563 143c 01        		.byte	1
 8564 143d 01        		.byte	1
 8565 143e 01        		.byte	1
 8566 143f 01        		.byte	1
 8567 1440 00        		.byte	0
 8568 1441 00        		.byte	0
 8569 1442 FF        		.byte	-1
 8570 1443 FF        		.byte	-1
 8571 1444 00        		.byte	0
 8572 1445 FF        		.byte	-1
 8573 1446 FF        		.byte	-1
 8574 1447 C0        		.byte	-64
 8575 1448 C0        		.byte	-64
 8576 1449 C0        		.byte	-64
 8577 144a C0        		.byte	-64
 8578 144b C0        		.byte	-64
 8579 144c 00        		.byte	0
 8580 144d 00        		.byte	0
 8581 144e 07        		.byte	7
 8582 144f 07        		.byte	7
 8583 1450 06        		.byte	6
 8584 1451 06        		.byte	6
 8585 1452 06        		.byte	6
 8586 1453 06        		.byte	6
 8587 1454 06        		.byte	6
 8588 1455 06        		.byte	6
 8589 1456 06        		.byte	6
 8590 1457 06        		.byte	6
 8591 1458 00        		.byte	0
 8592 1459 00        		.byte	0
 8593 145a C0        		.byte	-64
 8594 145b C0        		.byte	-64
 8595 145c C0        		.byte	-64
 8596 145d C0        		.byte	-64
 8597 145e C0        		.byte	-64
 8598 145f C0        		.byte	-64
 8599 1460 C0        		.byte	-64
 8600 1461 C0        		.byte	-64
 8601 1462 C0        		.byte	-64
 8602 1463 C0        		.byte	-64
 8603 1464 00        		.byte	0
 8604 1465 00        		.byte	0
 8605 1466 FF        		.byte	-1
 8606 1467 FF        		.byte	-1
 8607 1468 00        		.byte	0
 8608 1469 FE        		.byte	-2
 8609 146a FE        		.byte	-2
 8610 146b 06        		.byte	6
 8611 146c 06        		.byte	6
 8612 146d 06        		.byte	6
 8613 146e 06        		.byte	6
 8614 146f 06        		.byte	6
 8615 1470 C0        		.byte	-64
 8616 1471 C0        		.byte	-64
 8617 1472 FF        		.byte	-1
 8618 1473 FF        		.byte	-1
 8619 1474 00        		.byte	0
 8620 1475 FF        		.byte	-1
 8621 1476 FF        		.byte	-1
 8622 1477 C0        		.byte	-64
 8623 1478 C0        		.byte	-64
 8624 1479 C0        		.byte	-64
 8625 147a C0        		.byte	-64
 8626 147b C0        		.byte	-64
 8627 147c 06        		.byte	6
 8628 147d 06        		.byte	6
 8629 147e 06        		.byte	6
 8630 147f 06        		.byte	6
 8631 1480 06        		.byte	6
 8632 1481 06        		.byte	6
 8633 1482 06        		.byte	6
 8634 1483 06        		.byte	6
 8635 1484 06        		.byte	6
 8636 1485 06        		.byte	6
 8637 1486 06        		.byte	6
 8638 1487 06        		.byte	6
 8639 1488 C0        		.byte	-64
 8640 1489 C0        		.byte	-64
 8641 148a C0        		.byte	-64
 8642 148b C0        		.byte	-64
 8643 148c C0        		.byte	-64
 8644 148d C0        		.byte	-64
 8645 148e C0        		.byte	-64
 8646 148f C0        		.byte	-64
 8647 1490 C0        		.byte	-64
 8648 1491 C0        		.byte	-64
 8649 1492 C0        		.byte	-64
 8650 1493 C0        		.byte	-64
 8651 1494 06        		.byte	6
 8652 1495 06        		.byte	6
 8653 1496 FE        		.byte	-2
 8654 1497 FE        		.byte	-2
 8655 1498 00        		.byte	0
 8656 1499 FE        		.byte	-2
 8657 149a FE        		.byte	-2
 8658 149b 06        		.byte	6
 8659 149c 06        		.byte	6
 8660 149d 06        		.byte	6
 8661 149e 06        		.byte	6
 8662 149f 06        		.byte	6
 8663 14a0 00        		.byte	0
 8664 14a1 00        		.byte	0
 8665 14a2 FF        		.byte	-1
 8666 14a3 FF        		.byte	-1
 8667 14a4 00        		.byte	0
 8668 14a5 FF        		.byte	-1
 8669 14a6 FF        		.byte	-1
 8670 14a7 C0        		.byte	-64
 8671 14a8 C0        		.byte	-64
 8672 14a9 C0        		.byte	-64
 8673 14aa C0        		.byte	-64
 8674 14ab C0        		.byte	-64
 8675 14ac 00        		.byte	0
 8676 14ad 00        		.byte	0
 8677 14ae FF        		.byte	-1
 8678 14af FF        		.byte	-1
 8679 14b0 00        		.byte	0
 8680 14b1 FE        		.byte	-2
 8681 14b2 FE        		.byte	-2
 8682 14b3 06        		.byte	6
 8683 14b4 06        		.byte	6
 8684 14b5 06        		.byte	6
 8685 14b6 06        		.byte	6
 8686 14b7 06        		.byte	6
 8687 14b8 C0        		.byte	-64
 8688 14b9 C0        		.byte	-64
 8689 14ba C0        		.byte	-64
 8690 14bb C0        		.byte	-64
 8691 14bc C0        		.byte	-64
 8692 14bd C0        		.byte	-64
 8693 14be C0        		.byte	-64
 8694 14bf C0        		.byte	-64
 8695 14c0 C0        		.byte	-64
 8696 14c1 C0        		.byte	-64
 8697 14c2 C0        		.byte	-64
 8698 14c3 C0        		.byte	-64
 8699 14c4 06        		.byte	6
 8700 14c5 06        		.byte	6
 8701 14c6 06        		.byte	6
 8702 14c7 06        		.byte	6
 8703 14c8 06        		.byte	6
 8704 14c9 06        		.byte	6
 8705 14ca 06        		.byte	6
 8706 14cb 06        		.byte	6
 8707 14cc 06        		.byte	6
 8708 14cd 06        		.byte	6
 8709 14ce 06        		.byte	6
 8710 14cf 06        		.byte	6
 8711 14d0 C0        		.byte	-64
 8712 14d1 C0        		.byte	-64
 8713 14d2 FF        		.byte	-1
 8714 14d3 FF        		.byte	-1
 8715 14d4 00        		.byte	0
 8716 14d5 FF        		.byte	-1
 8717 14d6 FF        		.byte	-1
 8718 14d7 C0        		.byte	-64
 8719 14d8 C0        		.byte	-64
 8720 14d9 C0        		.byte	-64
 8721 14da C0        		.byte	-64
 8722 14db C0        		.byte	-64
 8723 14dc 06        		.byte	6
 8724 14dd 06        		.byte	6
 8725 14de FE        		.byte	-2
 8726 14df FE        		.byte	-2
 8727 14e0 00        		.byte	0
 8728 14e1 FE        		.byte	-2
 8729 14e2 FE        		.byte	-2
 8730 14e3 06        		.byte	6
 8731 14e4 06        		.byte	6
 8732 14e5 06        		.byte	6
 8733 14e6 06        		.byte	6
 8734 14e7 06        		.byte	6
 8735 14e8 C0        		.byte	-64
 8736 14e9 C0        		.byte	-64
 8737 14ea C0        		.byte	-64
 8738 14eb C0        		.byte	-64
 8739 14ec C0        		.byte	-64
 8740 14ed FF        		.byte	-1
 8741 14ee FF        		.byte	-1
 8742 14ef C0        		.byte	-64
 8743 14f0 C0        		.byte	-64
 8744 14f1 C0        		.byte	-64
 8745 14f2 C0        		.byte	-64
 8746 14f3 C0        		.byte	-64
 8747 14f4 06        		.byte	6
 8748 14f5 06        		.byte	6
 8749 14f6 06        		.byte	6
 8750 14f7 06        		.byte	6
 8751 14f8 06        		.byte	6
 8752 14f9 06        		.byte	6
 8753 14fa 06        		.byte	6
 8754 14fb 06        		.byte	6
 8755 14fc 06        		.byte	6
 8756 14fd 06        		.byte	6
 8757 14fe 06        		.byte	6
 8758 14ff 06        		.byte	6
 8759 1500 80        		.byte	-128
 8760 1501 80        		.byte	-128
 8761 1502 FF        		.byte	-1
 8762 1503 FF        		.byte	-1
 8763 1504 80        		.byte	-128
 8764 1505 FF        		.byte	-1
 8765 1506 FF        		.byte	-1
 8766 1507 80        		.byte	-128
 8767 1508 80        		.byte	-128
 8768 1509 80        		.byte	-128
 8769 150a 80        		.byte	-128
 8770 150b 80        		.byte	-128
 8771 150c 01        		.byte	1
 8772 150d 01        		.byte	1
 8773 150e 01        		.byte	1
 8774 150f 01        		.byte	1
 8775 1510 01        		.byte	1
 8776 1511 01        		.byte	1
 8777 1512 01        		.byte	1
 8778 1513 01        		.byte	1
 8779 1514 01        		.byte	1
 8780 1515 01        		.byte	1
 8781 1516 01        		.byte	1
 8782 1517 01        		.byte	1
 8783 1518 C0        		.byte	-64
 8784 1519 C0        		.byte	-64
 8785 151a C0        		.byte	-64
 8786 151b C0        		.byte	-64
 8787 151c C0        		.byte	-64
 8788 151d C0        		.byte	-64
 8789 151e C0        		.byte	-64
 8790 151f C0        		.byte	-64
 8791 1520 C0        		.byte	-64
 8792 1521 C0        		.byte	-64
 8793 1522 C0        		.byte	-64
 8794 1523 C0        		.byte	-64
 8795 1524 06        		.byte	6
 8796 1525 06        		.byte	6
 8797 1526 06        		.byte	6
 8798 1527 06        		.byte	6
 8799 1528 06        		.byte	6
 8800 1529 FE        		.byte	-2
 8801 152a FE        		.byte	-2
 8802 152b 06        		.byte	6
 8803 152c 06        		.byte	6
 8804 152d 06        		.byte	6
 8805 152e 06        		.byte	6
 8806 152f 06        		.byte	6
 8807 1530 80        		.byte	-128
 8808 1531 80        		.byte	-128
 8809 1532 80        		.byte	-128
 8810 1533 80        		.byte	-128
 8811 1534 80        		.byte	-128
 8812 1535 80        		.byte	-128
 8813 1536 80        		.byte	-128
 8814 1537 80        		.byte	-128
 8815 1538 80        		.byte	-128
 8816 1539 80        		.byte	-128
 8817 153a 80        		.byte	-128
 8818 153b 80        		.byte	-128
 8819 153c 01        		.byte	1
 8820 153d 01        		.byte	1
 8821 153e FF        		.byte	-1
 8822 153f FF        		.byte	-1
 8823 1540 01        		.byte	1
 8824 1541 FF        		.byte	-1
 8825 1542 FF        		.byte	-1
 8826 1543 01        		.byte	1
 8827 1544 01        		.byte	1
 8828 1545 01        		.byte	1
 8829 1546 01        		.byte	1
 8830 1547 01        		.byte	1
 8831 1548 00        		.byte	0
 8832 1549 00        		.byte	0
 8833 154a FF        		.byte	-1
 8834 154b FF        		.byte	-1
 8835 154c 80        		.byte	-128
 8836 154d FF        		.byte	-1
 8837 154e FF        		.byte	-1
 8838 154f 80        		.byte	-128
 8839 1550 80        		.byte	-128
 8840 1551 80        		.byte	-128
 8841 1552 80        		.byte	-128
 8842 1553 80        		.byte	-128
 8843 1554 00        		.byte	0
 8844 1555 00        		.byte	0
 8845 1556 01        		.byte	1
 8846 1557 01        		.byte	1
 8847 1558 01        		.byte	1
 8848 1559 01        		.byte	1
 8849 155a 01        		.byte	1
 8850 155b 01        		.byte	1
 8851 155c 01        		.byte	1
 8852 155d 01        		.byte	1
 8853 155e 01        		.byte	1
 8854 155f 01        		.byte	1
 8855 1560 00        		.byte	0
 8856 1561 00        		.byte	0
 8857 1562 00        		.byte	0
 8858 1563 00        		.byte	0
 8859 1564 00        		.byte	0
 8860 1565 FF        		.byte	-1
 8861 1566 FF        		.byte	-1
 8862 1567 C0        		.byte	-64
 8863 1568 C0        		.byte	-64
 8864 1569 C0        		.byte	-64
 8865 156a C0        		.byte	-64
 8866 156b C0        		.byte	-64
 8867 156c 00        		.byte	0
 8868 156d 00        		.byte	0
 8869 156e 00        		.byte	0
 8870 156f 00        		.byte	0
 8871 1570 00        		.byte	0
 8872 1571 07        		.byte	7
 8873 1572 07        		.byte	7
 8874 1573 06        		.byte	6
 8875 1574 06        		.byte	6
 8876 1575 06        		.byte	6
 8877 1576 06        		.byte	6
 8878 1577 06        		.byte	6
 8879 1578 00        		.byte	0
 8880 1579 00        		.byte	0
 8881 157a 00        		.byte	0
 8882 157b 00        		.byte	0
 8883 157c 00        		.byte	0
 8884 157d C0        		.byte	-64
 8885 157e C0        		.byte	-64
 8886 157f C0        		.byte	-64
 8887 1580 C0        		.byte	-64
 8888 1581 C0        		.byte	-64
 8889 1582 C0        		.byte	-64
 8890 1583 C0        		.byte	-64
 8891 1584 00        		.byte	0
 8892 1585 00        		.byte	0
 8893 1586 00        		.byte	0
 8894 1587 00        		.byte	0
 8895 1588 00        		.byte	0
 8896 1589 FF        		.byte	-1
 8897 158a FF        		.byte	-1
 8898 158b 06        		.byte	6
 8899 158c 06        		.byte	6
 8900 158d 06        		.byte	6
 8901 158e 06        		.byte	6
 8902 158f 06        		.byte	6
 8903 1590 00        		.byte	0
 8904 1591 00        		.byte	0
 8905 1592 80        		.byte	-128
 8906 1593 80        		.byte	-128
 8907 1594 80        		.byte	-128
 8908 1595 80        		.byte	-128
 8909 1596 80        		.byte	-128
 8910 1597 80        		.byte	-128
 8911 1598 80        		.byte	-128
 8912 1599 80        		.byte	-128
 8913 159a 80        		.byte	-128
 8914 159b 80        		.byte	-128
 8915 159c 00        		.byte	0
 8916 159d 00        		.byte	0
 8917 159e FF        		.byte	-1
 8918 159f FF        		.byte	-1
 8919 15a0 01        		.byte	1
 8920 15a1 FF        		.byte	-1
 8921 15a2 FF        		.byte	-1
 8922 15a3 01        		.byte	1
 8923 15a4 01        		.byte	1
 8924 15a5 01        		.byte	1
 8925 15a6 01        		.byte	1
 8926 15a7 01        		.byte	1
 8927 15a8 80        		.byte	-128
 8928 15a9 80        		.byte	-128
 8929 15aa FF        		.byte	-1
 8930 15ab FF        		.byte	-1
 8931 15ac 00        		.byte	0
 8932 15ad FF        		.byte	-1
 8933 15ae FF        		.byte	-1
 8934 15af 80        		.byte	-128
 8935 15b0 80        		.byte	-128
 8936 15b1 80        		.byte	-128
 8937 15b2 80        		.byte	-128
 8938 15b3 80        		.byte	-128
 8939 15b4 01        		.byte	1
 8940 15b5 01        		.byte	1
 8941 15b6 FF        		.byte	-1
 8942 15b7 FF        		.byte	-1
 8943 15b8 00        		.byte	0
 8944 15b9 FF        		.byte	-1
 8945 15ba FF        		.byte	-1
 8946 15bb 01        		.byte	1
 8947 15bc 01        		.byte	1
 8948 15bd 01        		.byte	1
 8949 15be 01        		.byte	1
 8950 15bf 01        		.byte	1
 8951 15c0 00        		.byte	0
 8952 15c1 F8        		.byte	-8
 8953 15c2 F8        		.byte	-8
 8954 15c3 9B        		.byte	-101
 8955 15c4 9B        		.byte	-101
 8956 15c5 98        		.byte	-104
 8957 15c6 98        		.byte	-104
 8958 15c7 9B        		.byte	-101
 8959 15c8 9B        		.byte	-101
 8960 15c9 18        		.byte	24
 8961 15ca 18        		.byte	24
 8962 15cb 00        		.byte	0
 8963 15cc 00        		.byte	0
 8964 15cd 3F        		.byte	63
 8965 15ce 3F        		.byte	63
 8966 15cf 31        		.byte	49
 8967 15d0 31        		.byte	49
 8968 15d1 31        		.byte	49
 8969 15d2 31        		.byte	49
 8970 15d3 31        		.byte	49
 8971 15d4 31        		.byte	49
 8972 15d5 30        		.byte	48
 8973 15d6 30        		.byte	48
 8974 15d7 00        		.byte	0
 8975 15d8 C0        		.byte	-64
 8976 15d9 C0        		.byte	-64
 8977 15da C0        		.byte	-64
 8978 15db C0        		.byte	-64
 8979 15dc C0        		.byte	-64
 8980 15dd FF        		.byte	-1
 8981 15de FF        		.byte	-1
 8982 15df C0        		.byte	-64
 8983 15e0 C0        		.byte	-64
 8984 15e1 C0        		.byte	-64
 8985 15e2 C0        		.byte	-64
 8986 15e3 C0        		.byte	-64
 8987 15e4 06        		.byte	6
 8988 15e5 06        		.byte	6
 8989 15e6 06        		.byte	6
 8990 15e7 06        		.byte	6
 8991 15e8 06        		.byte	6
 8992 15e9 FE        		.byte	-2
 8993 15ea FE        		.byte	-2
 8994 15eb 06        		.byte	6
 8995 15ec 06        		.byte	6
 8996 15ed 06        		.byte	6
 8997 15ee 06        		.byte	6
 8998 15ef 06        		.byte	6
 8999 15f0 80        		.byte	-128
 9000 15f1 80        		.byte	-128
 9001 15f2 80        		.byte	-128
 9002 15f3 80        		.byte	-128
 9003 15f4 80        		.byte	-128
 9004 15f5 FF        		.byte	-1
 9005 15f6 FF        		.byte	-1
 9006 15f7 00        		.byte	0
 9007 15f8 00        		.byte	0
 9008 15f9 00        		.byte	0
 9009 15fa 00        		.byte	0
 9010 15fb 00        		.byte	0
 9011 15fc 01        		.byte	1
 9012 15fd 01        		.byte	1
 9013 15fe 01        		.byte	1
 9014 15ff 01        		.byte	1
 9015 1600 01        		.byte	1
 9016 1601 01        		.byte	1
 9017 1602 01        		.byte	1
 9018 1603 00        		.byte	0
 9019 1604 00        		.byte	0
 9020 1605 00        		.byte	0
 9021 1606 00        		.byte	0
 9022 1607 00        		.byte	0
 9023 1608 00        		.byte	0
 9024 1609 00        		.byte	0
 9025 160a 00        		.byte	0
 9026 160b 00        		.byte	0
 9027 160c 00        		.byte	0
 9028 160d 80        		.byte	-128
 9029 160e 80        		.byte	-128
 9030 160f 80        		.byte	-128
 9031 1610 80        		.byte	-128
 9032 1611 80        		.byte	-128
 9033 1612 80        		.byte	-128
 9034 1613 80        		.byte	-128
 9035 1614 00        		.byte	0
 9036 1615 00        		.byte	0
 9037 1616 00        		.byte	0
 9038 1617 00        		.byte	0
 9039 1618 00        		.byte	0
 9040 1619 FF        		.byte	-1
 9041 161a FF        		.byte	-1
 9042 161b 01        		.byte	1
 9043 161c 01        		.byte	1
 9044 161d 01        		.byte	1
 9045 161e 01        		.byte	1
 9046 161f 01        		.byte	1
 9047 1620 FF        		.byte	-1
 9048 1621 FF        		.byte	-1
 9049 1622 FF        		.byte	-1
 9050 1623 FF        		.byte	-1
 9051 1624 FF        		.byte	-1
 9052 1625 FF        		.byte	-1
 9053 1626 FF        		.byte	-1
 9054 1627 FF        		.byte	-1
 9055 1628 FF        		.byte	-1
 9056 1629 FF        		.byte	-1
 9057 162a FF        		.byte	-1
 9058 162b FF        		.byte	-1
 9059 162c FF        		.byte	-1
 9060 162d FF        		.byte	-1
 9061 162e FF        		.byte	-1
 9062 162f FF        		.byte	-1
 9063 1630 FF        		.byte	-1
 9064 1631 FF        		.byte	-1
 9065 1632 FF        		.byte	-1
 9066 1633 FF        		.byte	-1
 9067 1634 FF        		.byte	-1
 9068 1635 FF        		.byte	-1
 9069 1636 FF        		.byte	-1
 9070 1637 FF        		.byte	-1
 9071 1638 00        		.byte	0
 9072 1639 00        		.byte	0
 9073 163a 00        		.byte	0
 9074 163b 00        		.byte	0
 9075 163c 00        		.byte	0
 9076 163d 00        		.byte	0
 9077 163e 00        		.byte	0
 9078 163f 00        		.byte	0
 9079 1640 00        		.byte	0
 9080 1641 00        		.byte	0
 9081 1642 00        		.byte	0
 9082 1643 00        		.byte	0
 9083 1644 FF        		.byte	-1
 9084 1645 FF        		.byte	-1
 9085 1646 FF        		.byte	-1
 9086 1647 FF        		.byte	-1
 9087 1648 FF        		.byte	-1
 9088 1649 FF        		.byte	-1
 9089 164a FF        		.byte	-1
 9090 164b FF        		.byte	-1
 9091 164c FF        		.byte	-1
 9092 164d FF        		.byte	-1
 9093 164e FF        		.byte	-1
 9094 164f FF        		.byte	-1
 9095 1650 FF        		.byte	-1
 9096 1651 FF        		.byte	-1
 9097 1652 FF        		.byte	-1
 9098 1653 FF        		.byte	-1
 9099 1654 FF        		.byte	-1
 9100 1655 FF        		.byte	-1
 9101 1656 00        		.byte	0
 9102 1657 00        		.byte	0
 9103 1658 00        		.byte	0
 9104 1659 00        		.byte	0
 9105 165a 00        		.byte	0
 9106 165b 00        		.byte	0
 9107 165c FF        		.byte	-1
 9108 165d FF        		.byte	-1
 9109 165e FF        		.byte	-1
 9110 165f FF        		.byte	-1
 9111 1660 FF        		.byte	-1
 9112 1661 FF        		.byte	-1
 9113 1662 00        		.byte	0
 9114 1663 00        		.byte	0
 9115 1664 00        		.byte	0
 9116 1665 00        		.byte	0
 9117 1666 00        		.byte	0
 9118 1667 00        		.byte	0
 9119 1668 00        		.byte	0
 9120 1669 00        		.byte	0
 9121 166a 00        		.byte	0
 9122 166b 00        		.byte	0
 9123 166c 00        		.byte	0
 9124 166d 00        		.byte	0
 9125 166e FF        		.byte	-1
 9126 166f FF        		.byte	-1
 9127 1670 FF        		.byte	-1
 9128 1671 FF        		.byte	-1
 9129 1672 FF        		.byte	-1
 9130 1673 FF        		.byte	-1
 9131 1674 00        		.byte	0
 9132 1675 00        		.byte	0
 9133 1676 00        		.byte	0
 9134 1677 00        		.byte	0
 9135 1678 00        		.byte	0
 9136 1679 00        		.byte	0
 9137 167a FF        		.byte	-1
 9138 167b FF        		.byte	-1
 9139 167c FF        		.byte	-1
 9140 167d FF        		.byte	-1
 9141 167e FF        		.byte	-1
 9142 167f FF        		.byte	-1
 9143 1680 FF        		.byte	-1
 9144 1681 FF        		.byte	-1
 9145 1682 FF        		.byte	-1
 9146 1683 FF        		.byte	-1
 9147 1684 FF        		.byte	-1
 9148 1685 FF        		.byte	-1
 9149 1686 FF        		.byte	-1
 9150 1687 FF        		.byte	-1
 9151 1688 FF        		.byte	-1
 9152 1689 FF        		.byte	-1
 9153 168a FF        		.byte	-1
 9154 168b FF        		.byte	-1
 9155 168c 00        		.byte	0
 9156 168d 00        		.byte	0
 9157 168e 00        		.byte	0
 9158 168f 00        		.byte	0
 9159 1690 00        		.byte	0
 9160 1691 00        		.byte	0
 9161 1692 00        		.byte	0
 9162 1693 00        		.byte	0
 9163 1694 00        		.byte	0
 9164 1695 00        		.byte	0
 9165 1696 00        		.byte	0
 9166 1697 00        		.byte	0
 9167 1698 00        		.byte	0
 9168 1699 00        		.byte	0
 9169 169a F0        		.byte	-16
 9170 169b 08        		.byte	8
 9171 169c 08        		.byte	8
 9172 169d 10        		.byte	16
 9173 169e 20        		.byte	32
 9174 169f 10        		.byte	16
 9175 16a0 08        		.byte	8
 9176 16a1 08        		.byte	8
 9177 16a2 F0        		.byte	-16
 9178 16a3 00        		.byte	0
 9179 16a4 00        		.byte	0
 9180 16a5 00        		.byte	0
 9181 16a6 00        		.byte	0
 9182 16a7 01        		.byte	1
 9183 16a8 02        		.byte	2
 9184 16a9 04        		.byte	4
 9185 16aa 08        		.byte	8
 9186 16ab 04        		.byte	4
 9187 16ac 02        		.byte	2
 9188 16ad 01        		.byte	1
 9189 16ae 00        		.byte	0
 9190 16af 00        		.byte	0
 9191 16b0 00        		.byte	0
 9192 16b1 E0        		.byte	-32
 9193 16b2 F0        		.byte	-16
 9194 16b3 F0        		.byte	-16
 9195 16b4 F0        		.byte	-16
 9196 16b5 E8        		.byte	-24
 9197 16b6 E4        		.byte	-28
 9198 16b7 E4        		.byte	-28
 9199 16b8 E4        		.byte	-28
 9200 16b9 E4        		.byte	-28
 9201 16ba E8        		.byte	-24
 9202 16bb F0        		.byte	-16
 9203 16bc 00        		.byte	0
 9204 16bd 01        		.byte	1
 9205 16be 03        		.byte	3
 9206 16bf 07        		.byte	7
 9207 16c0 07        		.byte	7
 9208 16c1 07        		.byte	7
 9209 16c2 07        		.byte	7
 9210 16c3 07        		.byte	7
 9211 16c4 07        		.byte	7
 9212 16c5 07        		.byte	7
 9213 16c6 03        		.byte	3
 9214 16c7 01        		.byte	1
 9215 16c8 00        		.byte	0
 9216 16c9 E0        		.byte	-32
 9217 16ca 30        		.byte	48
 9218 16cb 30        		.byte	48
 9219 16cc 30        		.byte	48
 9220 16cd 28        		.byte	40
 9221 16ce 24        		.byte	36
 9222 16cf 24        		.byte	36
 9223 16d0 24        		.byte	36
 9224 16d1 24        		.byte	36
 9225 16d2 28        		.byte	40
 9226 16d3 F0        		.byte	-16
 9227 16d4 00        		.byte	0
 9228 16d5 01        		.byte	1
 9229 16d6 02        		.byte	2
 9230 16d7 04        		.byte	4
 9231 16d8 04        		.byte	4
 9232 16d9 04        		.byte	4
 9233 16da 04        		.byte	4
 9234 16db 04        		.byte	4
 9235 16dc 04        		.byte	4
 9236 16dd 04        		.byte	4
 9237 16de 02        		.byte	2
 9238 16df 01        		.byte	1
 9239 16e0 00        		.byte	0
 9240 16e1 00        		.byte	0
 9241 16e2 00        		.byte	0
 9242 16e3 00        		.byte	0
 9243 16e4 80        		.byte	-128
 9244 16e5 70        		.byte	112
 9245 16e6 08        		.byte	8
 9246 16e7 F8        		.byte	-8
 9247 16e8 00        		.byte	0
 9248 16e9 00        		.byte	0
 9249 16ea 00        		.byte	0
 9250 16eb 00        		.byte	0
 9251 16ec 00        		.byte	0
 9252 16ed 00        		.byte	0
 9253 16ee 00        		.byte	0
 9254 16ef 00        		.byte	0
 9255 16f0 00        		.byte	0
 9256 16f1 00        		.byte	0
 9257 16f2 00        		.byte	0
 9258 16f3 00        		.byte	0
 9259 16f4 00        		.byte	0
 9260 16f5 00        		.byte	0
 9261 16f6 00        		.byte	0
 9262 16f7 00        		.byte	0
 9263 16f8 00        		.byte	0
 9264 16f9 80        		.byte	-128
 9265 16fa 80        		.byte	-128
 9266 16fb 80        		.byte	-128
 9267 16fc A0        		.byte	-96
 9268 16fd 9C        		.byte	-100
 9269 16fe 82        		.byte	-126
 9270 16ff BE        		.byte	-66
 9271 1700 80        		.byte	-128
 9272 1701 80        		.byte	-128
 9273 1702 80        		.byte	-128
 9274 1703 00        		.byte	0
 9275 1704 00        		.byte	0
 9276 1705 00        		.byte	0
 9277 1706 00        		.byte	0
 9278 1707 00        		.byte	0
 9279 1708 06        		.byte	6
 9280 1709 08        		.byte	8
 9281 170a 08        		.byte	8
 9282 170b 3E        		.byte	62
 9283 170c 00        		.byte	0
 9284 170d 00        		.byte	0
 9285 170e 00        		.byte	0
 9286 170f 00        		.byte	0
 9287 1710 00        		.byte	0
 9288 1711 00        		.byte	0
 9289 1712 60        		.byte	96
 9290 1713 E8        		.byte	-24
 9291 1714 88        		.byte	-120
 9292 1715 10        		.byte	16
 9293 1716 10        		.byte	16
 9294 1717 88        		.byte	-120
 9295 1718 E8        		.byte	-24
 9296 1719 60        		.byte	96
 9297 171a 00        		.byte	0
 9298 171b 00        		.byte	0
 9299 171c 00        		.byte	0
 9300 171d 00        		.byte	0
 9301 171e 00        		.byte	0
 9302 171f 81        		.byte	-127
 9303 1720 E7        		.byte	-25
 9304 1721 7E        		.byte	126
 9305 1722 1E        		.byte	30
 9306 1723 07        		.byte	7
 9307 1724 01        		.byte	1
 9308 1725 00        		.byte	0
 9309 1726 00        		.byte	0
 9310 1727 00        		.byte	0
 9311 1728 00        		.byte	0
 9312 1729 00        		.byte	0
 9313 172a 00        		.byte	0
 9314 172b 1E        		.byte	30
 9315 172c 3F        		.byte	63
 9316 172d 33        		.byte	51
 9317 172e 33        		.byte	51
 9318 172f 3F        		.byte	63
 9319 1730 1E        		.byte	30
 9320 1731 00        		.byte	0
 9321 1732 00        		.byte	0
 9322 1733 00        		.byte	0
 9323 1734 00        		.byte	0
 9324 1735 00        		.byte	0
 9325 1736 00        		.byte	0
 9326 1737 00        		.byte	0
 9327 1738 00        		.byte	0
 9328 1739 00        		.byte	0
 9329 173a 00        		.byte	0
 9330 173b 00        		.byte	0
 9331 173c 00        		.byte	0
 9332 173d 00        		.byte	0
 9333 173e 00        		.byte	0
 9334 173f 00        		.byte	0
 9335 1740 00        		.byte	0
 9336 1741 80        		.byte	-128
 9337 1742 C0        		.byte	-64
 9338 1743 EC        		.byte	-20
 9339 1744 6C        		.byte	108
 9340 1745 60        		.byte	96
 9341 1746 60        		.byte	96
 9342 1747 6C        		.byte	108
 9343 1748 6C        		.byte	108
 9344 1749 C0        		.byte	-64
 9345 174a 80        		.byte	-128
 9346 174b 00        		.byte	0
 9347 174c 00        		.byte	0
 9348 174d 0F        		.byte	15
 9349 174e 1F        		.byte	31
 9350 174f 33        		.byte	51
 9351 1750 33        		.byte	51
 9352 1751 33        		.byte	51
 9353 1752 33        		.byte	51
 9354 1753 33        		.byte	51
 9355 1754 33        		.byte	51
 9356 1755 13        		.byte	19
 9357 1756 03        		.byte	3
 9358 1757 00        		.byte	0
 9359 1758 00        		.byte	0
 9360 1759 00        		.byte	0
 9361 175a 00        		.byte	0
 9362 175b C0        		.byte	-64
 9363 175c E0        		.byte	-32
 9364 175d E0        		.byte	-32
 9365 175e E0        		.byte	-32
 9366 175f E0        		.byte	-32
 9367 1760 C0        		.byte	-64
 9368 1761 00        		.byte	0
 9369 1762 00        		.byte	0
 9370 1763 00        		.byte	0
 9371 1764 00        		.byte	0
 9372 1765 00        		.byte	0
 9373 1766 00        		.byte	0
 9374 1767 03        		.byte	3
 9375 1768 07        		.byte	7
 9376 1769 07        		.byte	7
 9377 176a 07        		.byte	7
 9378 176b 07        		.byte	7
 9379 176c 03        		.byte	3
 9380 176d 00        		.byte	0
 9381 176e 00        		.byte	0
 9382 176f 00        		.byte	0
 9383 1770 00        		.byte	0
 9384 1771 00        		.byte	0
 9385 1772 00        		.byte	0
 9386 1773 00        		.byte	0
 9387 1774 00        		.byte	0
 9388 1775 80        		.byte	-128
 9389 1776 C0        		.byte	-64
 9390 1777 80        		.byte	-128
 9391 1778 00        		.byte	0
 9392 1779 00        		.byte	0
 9393 177a 00        		.byte	0
 9394 177b 00        		.byte	0
 9395 177c 00        		.byte	0
 9396 177d 00        		.byte	0
 9397 177e 00        		.byte	0
 9398 177f 00        		.byte	0
 9399 1780 00        		.byte	0
 9400 1781 01        		.byte	1
 9401 1782 03        		.byte	3
 9402 1783 01        		.byte	1
 9403 1784 00        		.byte	0
 9404 1785 00        		.byte	0
 9405 1786 00        		.byte	0
 9406 1787 00        		.byte	0
 9407 1788 00        		.byte	0
 9408 1789 00        		.byte	0
 9409 178a 00        		.byte	0
 9410 178b 00        		.byte	0
 9411 178c 00        		.byte	0
 9412 178d 00        		.byte	0
 9413 178e FE        		.byte	-2
 9414 178f FE        		.byte	-2
 9415 1790 06        		.byte	6
 9416 1791 06        		.byte	6
 9417 1792 06        		.byte	6
 9418 1793 06        		.byte	6
 9419 1794 00        		.byte	0
 9420 1795 00        		.byte	0
 9421 1796 03        		.byte	3
 9422 1797 06        		.byte	6
 9423 1798 0C        		.byte	12
 9424 1799 18        		.byte	24
 9425 179a 3F        		.byte	63
 9426 179b 3F        		.byte	63
 9427 179c 00        		.byte	0
 9428 179d 00        		.byte	0
 9429 179e 00        		.byte	0
 9430 179f 00        		.byte	0
 9431 17a0 FF        		.byte	-1
 9432 17a1 FF        		.byte	-1
 9433 17a2 1E        		.byte	30
 9434 17a3 F0        		.byte	-16
 9435 17a4 80        		.byte	-128
 9436 17a5 00        		.byte	0
 9437 17a6 FF        		.byte	-1
 9438 17a7 FF        		.byte	-1
 9439 17a8 1C        		.byte	28
 9440 17a9 36        		.byte	54
 9441 17aa 36        		.byte	54
 9442 17ab 1C        		.byte	28
 9443 17ac 3F        		.byte	63
 9444 17ad 3F        		.byte	63
 9445 17ae 00        		.byte	0
 9446 17af 00        		.byte	0
 9447 17b0 03        		.byte	3
 9448 17b1 1E        		.byte	30
 9449 17b2 3F        		.byte	63
 9450 17b3 3F        		.byte	63
 9451 17b4 03        		.byte	3
 9452 17b5 03        		.byte	3
 9453 17b6 03        		.byte	3
 9454 17b7 03        		.byte	3
 9455 17b8 00        		.byte	0
 9456 17b9 F6        		.byte	-10
 9457 17ba FE        		.byte	-2
 9458 17bb 18        		.byte	24
 9459 17bc 0C        		.byte	12
 9460 17bd 0C        		.byte	12
 9461 17be 0C        		.byte	12
 9462 17bf 0C        		.byte	12
 9463 17c0 18        		.byte	24
 9464 17c1 FE        		.byte	-2
 9465 17c2 F6        		.byte	-10
 9466 17c3 00        		.byte	0
 9467 17c4 00        		.byte	0
 9468 17c5 1B        		.byte	27
 9469 17c6 1F        		.byte	31
 9470 17c7 06        		.byte	6
 9471 17c8 0C        		.byte	12
 9472 17c9 0C        		.byte	12
 9473 17ca 0C        		.byte	12
 9474 17cb 0C        		.byte	12
 9475 17cc 06        		.byte	6
 9476 17cd 1F        		.byte	31
 9477 17ce 1B        		.byte	27
 9478 17cf 00        		.byte	0
 9479 17d0 00        		.byte	0
 9480 17d1 00        		.byte	0
 9481 17d2 00        		.byte	0
 9482 17d3 00        		.byte	0
 9483 17d4 F0        		.byte	-16
 9484 17d5 F0        		.byte	-16
 9485 17d6 F0        		.byte	-16
 9486 17d7 F0        		.byte	-16
 9487 17d8 00        		.byte	0
 9488 17d9 00        		.byte	0
 9489 17da 00        		.byte	0
 9490 17db 00        		.byte	0
 9491 17dc 00        		.byte	0
 9492 17dd 00        		.byte	0
 9493 17de 00        		.byte	0
 9494 17df 00        		.byte	0
 9495 17e0 03        		.byte	3
 9496 17e1 03        		.byte	3
 9497 17e2 03        		.byte	3
 9498 17e3 03        		.byte	3
 9499 17e4 00        		.byte	0
 9500 17e5 00        		.byte	0
 9501 17e6 00        		.byte	0
 9502 17e7 00        		.byte	0
 9503 17e8 00        		.byte	0
 9504 17e9 00        		.byte	0
 9505 17ea 00        		.byte	0
 9506 17eb 00        		.byte	0
 9507 17ec 00        		.byte	0
 9508 17ed 00        		.byte	0
 9509 17ee 00        		.byte	0
 9510 17ef 00        		.byte	0
 9511 17f0 00        		.byte	0
 9512 17f1 00        		.byte	0
 9513 17f2 00        		.byte	0
 9514 17f3 00        		.byte	0
 9515 17f4 00        		.byte	0
 9516 17f5 00        		.byte	0
 9517 17f6 00        		.byte	0
 9518 17f7 00        		.byte	0
 9519 17f8 00        		.byte	0
 9520 17f9 00        		.byte	0
 9521 17fa 00        		.byte	0
 9522 17fb 00        		.byte	0
 9523 17fc 00        		.byte	0
 9524 17fd 00        		.byte	0
 9525 17fe 00        		.byte	0
 9526 17ff 00        		.byte	0
 9527 1800 00        		.byte	0
 9528 1801 F0        		.byte	-16
 9529 1802 FC        		.byte	-4
 9530 1803 0E        		.byte	14
 9531 1804 07        		.byte	7
 9532 1805 03        		.byte	3
 9533 1806 03        		.byte	3
 9534 1807 03        		.byte	3
 9535 1808 03        		.byte	3
 9536 1809 FF        		.byte	-1
 9537 180a FF        		.byte	-1
 9538 180b 00        		.byte	0
 9539 180c 00        		.byte	0
 9540 180d 3F        		.byte	63
 9541 180e 3F        		.byte	63
 9542 180f 03        		.byte	3
 9543 1810 03        		.byte	3
 9544 1811 03        		.byte	3
 9545 1812 03        		.byte	3
 9546 1813 03        		.byte	3
 9547 1814 03        		.byte	3
 9548 1815 3F        		.byte	63
 9549 1816 3F        		.byte	63
 9550 1817 00        		.byte	0
 9551 1818 00        		.byte	0
 9552 1819 FF        		.byte	-1
 9553 181a FF        		.byte	-1
 9554 181b C3        		.byte	-61
 9555 181c C3        		.byte	-61
 9556 181d C3        		.byte	-61
 9557 181e C3        		.byte	-61
 9558 181f C3        		.byte	-61
 9559 1820 C3        		.byte	-61
 9560 1821 83        		.byte	-125
 9561 1822 03        		.byte	3
 9562 1823 00        		.byte	0
 9563 1824 00        		.byte	0
 9564 1825 3F        		.byte	63
 9565 1826 3F        		.byte	63
 9566 1827 30        		.byte	48
 9567 1828 30        		.byte	48
 9568 1829 30        		.byte	48
 9569 182a 30        		.byte	48
 9570 182b 30        		.byte	48
 9571 182c 39        		.byte	57
 9572 182d 1F        		.byte	31
 9573 182e 0F        		.byte	15
 9574 182f 00        		.byte	0
 9575 1830 00        		.byte	0
 9576 1831 FF        		.byte	-1
 9577 1832 FF        		.byte	-1
 9578 1833 C3        		.byte	-61
 9579 1834 C3        		.byte	-61
 9580 1835 C3        		.byte	-61
 9581 1836 C3        		.byte	-61
 9582 1837 E7        		.byte	-25
 9583 1838 FE        		.byte	-2
 9584 1839 BC        		.byte	-68
 9585 183a 00        		.byte	0
 9586 183b 00        		.byte	0
 9587 183c 00        		.byte	0
 9588 183d 3F        		.byte	63
 9589 183e 3F        		.byte	63
 9590 183f 30        		.byte	48
 9591 1840 30        		.byte	48
 9592 1841 30        		.byte	48
 9593 1842 30        		.byte	48
 9594 1843 30        		.byte	48
 9595 1844 39        		.byte	57
 9596 1845 1F        		.byte	31
 9597 1846 0F        		.byte	15
 9598 1847 00        		.byte	0
 9599 1848 00        		.byte	0
 9600 1849 FF        		.byte	-1
 9601 184a FF        		.byte	-1
 9602 184b 03        		.byte	3
 9603 184c 03        		.byte	3
 9604 184d 03        		.byte	3
 9605 184e 03        		.byte	3
 9606 184f 03        		.byte	3
 9607 1850 03        		.byte	3
 9608 1851 03        		.byte	3
 9609 1852 03        		.byte	3
 9610 1853 00        		.byte	0
 9611 1854 00        		.byte	0
 9612 1855 3F        		.byte	63
 9613 1856 3F        		.byte	63
 9614 1857 00        		.byte	0
 9615 1858 00        		.byte	0
 9616 1859 00        		.byte	0
 9617 185a 00        		.byte	0
 9618 185b 00        		.byte	0
 9619 185c 00        		.byte	0
 9620 185d 00        		.byte	0
 9621 185e 00        		.byte	0
 9622 185f 00        		.byte	0
 9623 1860 00        		.byte	0
 9624 1861 F0        		.byte	-16
 9625 1862 FC        		.byte	-4
 9626 1863 0E        		.byte	14
 9627 1864 07        		.byte	7
 9628 1865 03        		.byte	3
 9629 1866 03        		.byte	3
 9630 1867 03        		.byte	3
 9631 1868 03        		.byte	3
 9632 1869 FF        		.byte	-1
 9633 186a FF        		.byte	-1
 9634 186b 00        		.byte	0
 9635 186c F0        		.byte	-16
 9636 186d FF        		.byte	-1
 9637 186e 3F        		.byte	63
 9638 186f 30        		.byte	48
 9639 1870 30        		.byte	48
 9640 1871 30        		.byte	48
 9641 1872 30        		.byte	48
 9642 1873 30        		.byte	48
 9643 1874 30        		.byte	48
 9644 1875 3F        		.byte	63
 9645 1876 FF        		.byte	-1
 9646 1877 F0        		.byte	-16
 9647 1878 00        		.byte	0
 9648 1879 FF        		.byte	-1
 9649 187a FF        		.byte	-1
 9650 187b C3        		.byte	-61
 9651 187c C3        		.byte	-61
 9652 187d C3        		.byte	-61
 9653 187e C3        		.byte	-61
 9654 187f C3        		.byte	-61
 9655 1880 C3        		.byte	-61
 9656 1881 03        		.byte	3
 9657 1882 03        		.byte	3
 9658 1883 00        		.byte	0
 9659 1884 00        		.byte	0
 9660 1885 3F        		.byte	63
 9661 1886 3F        		.byte	63
 9662 1887 30        		.byte	48
 9663 1888 30        		.byte	48
 9664 1889 30        		.byte	48
 9665 188a 30        		.byte	48
 9666 188b 30        		.byte	48
 9667 188c 30        		.byte	48
 9668 188d 30        		.byte	48
 9669 188e 30        		.byte	48
 9670 188f 00        		.byte	0
 9671 1890 0F        		.byte	15
 9672 1891 3E        		.byte	62
 9673 1892 F8        		.byte	-8
 9674 1893 E0        		.byte	-32
 9675 1894 C0        		.byte	-64
 9676 1895 FF        		.byte	-1
 9677 1896 FF        		.byte	-1
 9678 1897 C0        		.byte	-64
 9679 1898 E0        		.byte	-32
 9680 1899 F8        		.byte	-8
 9681 189a 1E        		.byte	30
 9682 189b 07        		.byte	7
 9683 189c 3C        		.byte	60
 9684 189d 1F        		.byte	31
 9685 189e 07        		.byte	7
 9686 189f 01        		.byte	1
 9687 18a0 00        		.byte	0
 9688 18a1 3F        		.byte	63
 9689 18a2 3F        		.byte	63
 9690 18a3 00        		.byte	0
 9691 18a4 01        		.byte	1
 9692 18a5 07        		.byte	7
 9693 18a6 1F        		.byte	31
 9694 18a7 3C        		.byte	60
 9695 18a8 00        		.byte	0
 9696 18a9 0C        		.byte	12
 9697 18aa 0E        		.byte	14
 9698 18ab 07        		.byte	7
 9699 18ac C3        		.byte	-61
 9700 18ad C3        		.byte	-61
 9701 18ae C3        		.byte	-61
 9702 18af C3        		.byte	-61
 9703 18b0 C3        		.byte	-61
 9704 18b1 E7        		.byte	-25
 9705 18b2 7E        		.byte	126
 9706 18b3 3C        		.byte	60
 9707 18b4 00        		.byte	0
 9708 18b5 0C        		.byte	12
 9709 18b6 1C        		.byte	28
 9710 18b7 38        		.byte	56
 9711 18b8 30        		.byte	48
 9712 18b9 30        		.byte	48
 9713 18ba 30        		.byte	48
 9714 18bb 30        		.byte	48
 9715 18bc 30        		.byte	48
 9716 18bd 39        		.byte	57
 9717 18be 1F        		.byte	31
 9718 18bf 0E        		.byte	14
 9719 18c0 00        		.byte	0
 9720 18c1 FF        		.byte	-1
 9721 18c2 FF        		.byte	-1
 9722 18c3 00        		.byte	0
 9723 18c4 00        		.byte	0
 9724 18c5 C0        		.byte	-64
 9725 18c6 F0        		.byte	-16
 9726 18c7 38        		.byte	56
 9727 18c8 0E        		.byte	14
 9728 18c9 FF        		.byte	-1
 9729 18ca FF        		.byte	-1
 9730 18cb 00        		.byte	0
 9731 18cc 00        		.byte	0
 9732 18cd 3F        		.byte	63
 9733 18ce 3F        		.byte	63
 9734 18cf 1C        		.byte	28
 9735 18d0 07        		.byte	7
 9736 18d1 03        		.byte	3
 9737 18d2 00        		.byte	0
 9738 18d3 00        		.byte	0
 9739 18d4 00        		.byte	0
 9740 18d5 3F        		.byte	63
 9741 18d6 3F        		.byte	63
 9742 18d7 00        		.byte	0
 9743 18d8 00        		.byte	0
 9744 18d9 FF        		.byte	-1
 9745 18da FF        		.byte	-1
 9746 18db 00        		.byte	0
 9747 18dc 00        		.byte	0
 9748 18dd C6        		.byte	-58
 9749 18de F3        		.byte	-13
 9750 18df 38        		.byte	56
 9751 18e0 0E        		.byte	14
 9752 18e1 FF        		.byte	-1
 9753 18e2 FF        		.byte	-1
 9754 18e3 00        		.byte	0
 9755 18e4 00        		.byte	0
 9756 18e5 3F        		.byte	63
 9757 18e6 3F        		.byte	63
 9758 18e7 1C        		.byte	28
 9759 18e8 07        		.byte	7
 9760 18e9 03        		.byte	3
 9761 18ea 00        		.byte	0
 9762 18eb 00        		.byte	0
 9763 18ec 00        		.byte	0
 9764 18ed 3F        		.byte	63
 9765 18ee 3F        		.byte	63
 9766 18ef 00        		.byte	0
 9767 18f0 00        		.byte	0
 9768 18f1 FF        		.byte	-1
 9769 18f2 FF        		.byte	-1
 9770 18f3 C0        		.byte	-64
 9771 18f4 E0        		.byte	-32
 9772 18f5 F0        		.byte	-16
 9773 18f6 38        		.byte	56
 9774 18f7 1C        		.byte	28
 9775 18f8 0E        		.byte	14
 9776 18f9 07        		.byte	7
 9777 18fa 03        		.byte	3
 9778 18fb 00        		.byte	0
 9779 18fc 00        		.byte	0
 9780 18fd 3F        		.byte	63
 9781 18fe 3F        		.byte	63
 9782 18ff 00        		.byte	0
 9783 1900 01        		.byte	1
 9784 1901 03        		.byte	3
 9785 1902 07        		.byte	7
 9786 1903 0E        		.byte	14
 9787 1904 1C        		.byte	28
 9788 1905 38        		.byte	56
 9789 1906 30        		.byte	48
 9790 1907 00        		.byte	0
 9791 1908 00        		.byte	0
 9792 1909 F0        		.byte	-16
 9793 190a FC        		.byte	-4
 9794 190b 0E        		.byte	14
 9795 190c 07        		.byte	7
 9796 190d 03        		.byte	3
 9797 190e 03        		.byte	3
 9798 190f 03        		.byte	3
 9799 1910 03        		.byte	3
 9800 1911 FF        		.byte	-1
 9801 1912 FF        		.byte	-1
 9802 1913 00        		.byte	0
 9803 1914 00        		.byte	0
 9804 1915 3F        		.byte	63
 9805 1916 3F        		.byte	63
 9806 1917 00        		.byte	0
 9807 1918 00        		.byte	0
 9808 1919 00        		.byte	0
 9809 191a 00        		.byte	0
 9810 191b 00        		.byte	0
 9811 191c 00        		.byte	0
 9812 191d 3F        		.byte	63
 9813 191e 3F        		.byte	63
 9814 191f 00        		.byte	0
 9815 1920 00        		.byte	0
 9816 1921 FF        		.byte	-1
 9817 1922 FF        		.byte	-1
 9818 1923 1E        		.byte	30
 9819 1924 78        		.byte	120
 9820 1925 E0        		.byte	-32
 9821 1926 E0        		.byte	-32
 9822 1927 78        		.byte	120
 9823 1928 1E        		.byte	30
 9824 1929 FF        		.byte	-1
 9825 192a FF        		.byte	-1
 9826 192b 00        		.byte	0
 9827 192c 00        		.byte	0
 9828 192d 3F        		.byte	63
 9829 192e 3F        		.byte	63
 9830 192f 00        		.byte	0
 9831 1930 00        		.byte	0
 9832 1931 01        		.byte	1
 9833 1932 01        		.byte	1
 9834 1933 00        		.byte	0
 9835 1934 00        		.byte	0
 9836 1935 3F        		.byte	63
 9837 1936 3F        		.byte	63
 9838 1937 00        		.byte	0
 9839 1938 00        		.byte	0
 9840 1939 FF        		.byte	-1
 9841 193a FF        		.byte	-1
 9842 193b C0        		.byte	-64
 9843 193c C0        		.byte	-64
 9844 193d C0        		.byte	-64
 9845 193e C0        		.byte	-64
 9846 193f C0        		.byte	-64
 9847 1940 C0        		.byte	-64
 9848 1941 FF        		.byte	-1
 9849 1942 FF        		.byte	-1
 9850 1943 00        		.byte	0
 9851 1944 00        		.byte	0
 9852 1945 3F        		.byte	63
 9853 1946 3F        		.byte	63
 9854 1947 00        		.byte	0
 9855 1948 00        		.byte	0
 9856 1949 00        		.byte	0
 9857 194a 00        		.byte	0
 9858 194b 00        		.byte	0
 9859 194c 00        		.byte	0
 9860 194d 3F        		.byte	63
 9861 194e 3F        		.byte	63
 9862 194f 00        		.byte	0
 9863 1950 00        		.byte	0
 9864 1951 F0        		.byte	-16
 9865 1952 FC        		.byte	-4
 9866 1953 0E        		.byte	14
 9867 1954 07        		.byte	7
 9868 1955 03        		.byte	3
 9869 1956 03        		.byte	3
 9870 1957 07        		.byte	7
 9871 1958 0E        		.byte	14
 9872 1959 FC        		.byte	-4
 9873 195a F0        		.byte	-16
 9874 195b 00        		.byte	0
 9875 195c 00        		.byte	0
 9876 195d 03        		.byte	3
 9877 195e 0F        		.byte	15
 9878 195f 1C        		.byte	28
 9879 1960 38        		.byte	56
 9880 1961 30        		.byte	48
 9881 1962 30        		.byte	48
 9882 1963 38        		.byte	56
 9883 1964 1C        		.byte	28
 9884 1965 0F        		.byte	15
 9885 1966 03        		.byte	3
 9886 1967 00        		.byte	0
 9887 1968 00        		.byte	0
 9888 1969 FF        		.byte	-1
 9889 196a FF        		.byte	-1
 9890 196b 03        		.byte	3
 9891 196c 03        		.byte	3
 9892 196d 03        		.byte	3
 9893 196e 03        		.byte	3
 9894 196f 03        		.byte	3
 9895 1970 03        		.byte	3
 9896 1971 FF        		.byte	-1
 9897 1972 FF        		.byte	-1
 9898 1973 00        		.byte	0
 9899 1974 00        		.byte	0
 9900 1975 3F        		.byte	63
 9901 1976 3F        		.byte	63
 9902 1977 00        		.byte	0
 9903 1978 00        		.byte	0
 9904 1979 00        		.byte	0
 9905 197a 00        		.byte	0
 9906 197b 00        		.byte	0
 9907 197c 00        		.byte	0
 9908 197d 3F        		.byte	63
 9909 197e 3F        		.byte	63
 9910 197f 00        		.byte	0
 9911 1980 00        		.byte	0
 9912 1981 FF        		.byte	-1
 9913 1982 FF        		.byte	-1
 9914 1983 83        		.byte	-125
 9915 1984 83        		.byte	-125
 9916 1985 83        		.byte	-125
 9917 1986 83        		.byte	-125
 9918 1987 83        		.byte	-125
 9919 1988 C7        		.byte	-57
 9920 1989 FE        		.byte	-2
 9921 198a 7C        		.byte	124
 9922 198b 00        		.byte	0
 9923 198c 00        		.byte	0
 9924 198d 3F        		.byte	63
 9925 198e 3F        		.byte	63
 9926 198f 01        		.byte	1
 9927 1990 01        		.byte	1
 9928 1991 01        		.byte	1
 9929 1992 01        		.byte	1
 9930 1993 01        		.byte	1
 9931 1994 01        		.byte	1
 9932 1995 00        		.byte	0
 9933 1996 00        		.byte	0
 9934 1997 00        		.byte	0
 9935 1998 00        		.byte	0
 9936 1999 F0        		.byte	-16
 9937 199a FC        		.byte	-4
 9938 199b 0E        		.byte	14
 9939 199c 07        		.byte	7
 9940 199d 03        		.byte	3
 9941 199e 03        		.byte	3
 9942 199f 03        		.byte	3
 9943 19a0 07        		.byte	7
 9944 19a1 0E        		.byte	14
 9945 19a2 0C        		.byte	12
 9946 19a3 00        		.byte	0
 9947 19a4 00        		.byte	0
 9948 19a5 03        		.byte	3
 9949 19a6 0F        		.byte	15
 9950 19a7 1C        		.byte	28
 9951 19a8 38        		.byte	56
 9952 19a9 30        		.byte	48
 9953 19aa 30        		.byte	48
 9954 19ab 30        		.byte	48
 9955 19ac 38        		.byte	56
 9956 19ad 1C        		.byte	28
 9957 19ae 0C        		.byte	12
 9958 19af 00        		.byte	0
 9959 19b0 00        		.byte	0
 9960 19b1 00        		.byte	0
 9961 19b2 03        		.byte	3
 9962 19b3 03        		.byte	3
 9963 19b4 03        		.byte	3
 9964 19b5 FF        		.byte	-1
 9965 19b6 FF        		.byte	-1
 9966 19b7 03        		.byte	3
 9967 19b8 03        		.byte	3
 9968 19b9 03        		.byte	3
 9969 19ba 00        		.byte	0
 9970 19bb 00        		.byte	0
 9971 19bc 00        		.byte	0
 9972 19bd 00        		.byte	0
 9973 19be 00        		.byte	0
 9974 19bf 00        		.byte	0
 9975 19c0 00        		.byte	0
 9976 19c1 3F        		.byte	63
 9977 19c2 3F        		.byte	63
 9978 19c3 00        		.byte	0
 9979 19c4 00        		.byte	0
 9980 19c5 00        		.byte	0
 9981 19c6 00        		.byte	0
 9982 19c7 00        		.byte	0
 9983 19c8 00        		.byte	0
 9984 19c9 7F        		.byte	127
 9985 19ca FF        		.byte	-1
 9986 19cb C0        		.byte	-64
 9987 19cc C0        		.byte	-64
 9988 19cd C0        		.byte	-64
 9989 19ce C0        		.byte	-64
 9990 19cf C0        		.byte	-64
 9991 19d0 C0        		.byte	-64
 9992 19d1 FF        		.byte	-1
 9993 19d2 FF        		.byte	-1
 9994 19d3 00        		.byte	0
 9995 19d4 00        		.byte	0
 9996 19d5 18        		.byte	24
 9997 19d6 38        		.byte	56
 9998 19d7 30        		.byte	48
 9999 19d8 30        		.byte	48
 10000 19d9 30        		.byte	48
 10001 19da 30        		.byte	48
 10002 19db 30        		.byte	48
 10003 19dc 38        		.byte	56
 10004 19dd 1F        		.byte	31
 10005 19de 07        		.byte	7
 10006 19df 00        		.byte	0
 10007 19e0 00        		.byte	0
 10008 19e1 F8        		.byte	-8
 10009 19e2 FC        		.byte	-4
 10010 19e3 0C        		.byte	12
 10011 19e4 0C        		.byte	12
 10012 19e5 FF        		.byte	-1
 10013 19e6 FF        		.byte	-1
 10014 19e7 0C        		.byte	12
 10015 19e8 0C        		.byte	12
 10016 19e9 FC        		.byte	-4
 10017 19ea F8        		.byte	-8
 10018 19eb 00        		.byte	0
 10019 19ec 00        		.byte	0
 10020 19ed 03        		.byte	3
 10021 19ee 07        		.byte	7
 10022 19ef 06        		.byte	6
 10023 19f0 06        		.byte	6
 10024 19f1 3F        		.byte	63
 10025 19f2 3F        		.byte	63
 10026 19f3 06        		.byte	6
 10027 19f4 06        		.byte	6
 10028 19f5 07        		.byte	7
 10029 19f6 03        		.byte	3
 10030 19f7 00        		.byte	0
 10031 19f8 00        		.byte	0
 10032 19f9 03        		.byte	3
 10033 19fa 0F        		.byte	15
 10034 19fb 1C        		.byte	28
 10035 19fc 30        		.byte	48
 10036 19fd E0        		.byte	-32
 10037 19fe E0        		.byte	-32
 10038 19ff 30        		.byte	48
 10039 1a00 1C        		.byte	28
 10040 1a01 0F        		.byte	15
 10041 1a02 03        		.byte	3
 10042 1a03 00        		.byte	0
 10043 1a04 00        		.byte	0
 10044 1a05 30        		.byte	48
 10045 1a06 3C        		.byte	60
 10046 1a07 0E        		.byte	14
 10047 1a08 03        		.byte	3
 10048 1a09 01        		.byte	1
 10049 1a0a 01        		.byte	1
 10050 1a0b 03        		.byte	3
 10051 1a0c 0E        		.byte	14
 10052 1a0d 3C        		.byte	60
 10053 1a0e 30        		.byte	48
 10054 1a0f 00        		.byte	0
 10055 1a10 00        		.byte	0
 10056 1a11 FF        		.byte	-1
 10057 1a12 FF        		.byte	-1
 10058 1a13 00        		.byte	0
 10059 1a14 00        		.byte	0
 10060 1a15 00        		.byte	0
 10061 1a16 00        		.byte	0
 10062 1a17 00        		.byte	0
 10063 1a18 FF        		.byte	-1
 10064 1a19 FF        		.byte	-1
 10065 1a1a 00        		.byte	0
 10066 1a1b 00        		.byte	0
 10067 1a1c 00        		.byte	0
 10068 1a1d 3F        		.byte	63
 10069 1a1e 3F        		.byte	63
 10070 1a1f 30        		.byte	48
 10071 1a20 30        		.byte	48
 10072 1a21 30        		.byte	48
 10073 1a22 30        		.byte	48
 10074 1a23 30        		.byte	48
 10075 1a24 3F        		.byte	63
 10076 1a25 FF        		.byte	-1
 10077 1a26 F0        		.byte	-16
 10078 1a27 00        		.byte	0
 10079 1a28 00        		.byte	0
 10080 1a29 7F        		.byte	127
 10081 1a2a FF        		.byte	-1
 10082 1a2b C0        		.byte	-64
 10083 1a2c C0        		.byte	-64
 10084 1a2d C0        		.byte	-64
 10085 1a2e C0        		.byte	-64
 10086 1a2f C0        		.byte	-64
 10087 1a30 C0        		.byte	-64
 10088 1a31 FF        		.byte	-1
 10089 1a32 FF        		.byte	-1
 10090 1a33 00        		.byte	0
 10091 1a34 00        		.byte	0
 10092 1a35 00        		.byte	0
 10093 1a36 00        		.byte	0
 10094 1a37 00        		.byte	0
 10095 1a38 00        		.byte	0
 10096 1a39 00        		.byte	0
 10097 1a3a 00        		.byte	0
 10098 1a3b 00        		.byte	0
 10099 1a3c 00        		.byte	0
 10100 1a3d 3F        		.byte	63
 10101 1a3e 3F        		.byte	63
 10102 1a3f 00        		.byte	0
 10103 1a40 00        		.byte	0
 10104 1a41 FF        		.byte	-1
 10105 1a42 FF        		.byte	-1
 10106 1a43 00        		.byte	0
 10107 1a44 00        		.byte	0
 10108 1a45 FF        		.byte	-1
 10109 1a46 FF        		.byte	-1
 10110 1a47 00        		.byte	0
 10111 1a48 00        		.byte	0
 10112 1a49 FF        		.byte	-1
 10113 1a4a FF        		.byte	-1
 10114 1a4b 00        		.byte	0
 10115 1a4c 00        		.byte	0
 10116 1a4d 3F        		.byte	63
 10117 1a4e 3F        		.byte	63
 10118 1a4f 30        		.byte	48
 10119 1a50 30        		.byte	48
 10120 1a51 3F        		.byte	63
 10121 1a52 3F        		.byte	63
 10122 1a53 30        		.byte	48
 10123 1a54 30        		.byte	48
 10124 1a55 3F        		.byte	63
 10125 1a56 3F        		.byte	63
 10126 1a57 00        		.byte	0
 10127 1a58 00        		.byte	0
 10128 1a59 FF        		.byte	-1
 10129 1a5a FF        		.byte	-1
 10130 1a5b 00        		.byte	0
 10131 1a5c 00        		.byte	0
 10132 1a5d FF        		.byte	-1
 10133 1a5e FF        		.byte	-1
 10134 1a5f 00        		.byte	0
 10135 1a60 00        		.byte	0
 10136 1a61 FF        		.byte	-1
 10137 1a62 FF        		.byte	-1
 10138 1a63 00        		.byte	0
 10139 1a64 00        		.byte	0
 10140 1a65 3F        		.byte	63
 10141 1a66 3F        		.byte	63
 10142 1a67 30        		.byte	48
 10143 1a68 30        		.byte	48
 10144 1a69 3F        		.byte	63
 10145 1a6a 3F        		.byte	63
 10146 1a6b 30        		.byte	48
 10147 1a6c 30        		.byte	48
 10148 1a6d 3F        		.byte	63
 10149 1a6e FF        		.byte	-1
 10150 1a6f F0        		.byte	-16
 10151 1a70 0F        		.byte	15
 10152 1a71 0F        		.byte	15
 10153 1a72 03        		.byte	3
 10154 1a73 FF        		.byte	-1
 10155 1a74 FF        		.byte	-1
 10156 1a75 60        		.byte	96
 10157 1a76 60        		.byte	96
 10158 1a77 60        		.byte	96
 10159 1a78 E0        		.byte	-32
 10160 1a79 C0        		.byte	-64
 10161 1a7a 80        		.byte	-128
 10162 1a7b 00        		.byte	0
 10163 1a7c 00        		.byte	0
 10164 1a7d 00        		.byte	0
 10165 1a7e 00        		.byte	0
 10166 1a7f 3F        		.byte	63
 10167 1a80 3F        		.byte	63
 10168 1a81 30        		.byte	48
 10169 1a82 30        		.byte	48
 10170 1a83 30        		.byte	48
 10171 1a84 38        		.byte	56
 10172 1a85 1F        		.byte	31
 10173 1a86 0F        		.byte	15
 10174 1a87 00        		.byte	0
 10175 1a88 00        		.byte	0
 10176 1a89 FF        		.byte	-1
 10177 1a8a FF        		.byte	-1
 10178 1a8b 60        		.byte	96
 10179 1a8c 60        		.byte	96
 10180 1a8d E0        		.byte	-32
 10181 1a8e C0        		.byte	-64
 10182 1a8f 80        		.byte	-128
 10183 1a90 00        		.byte	0
 10184 1a91 FF        		.byte	-1
 10185 1a92 FF        		.byte	-1
 10186 1a93 00        		.byte	0
 10187 1a94 00        		.byte	0
 10188 1a95 3F        		.byte	63
 10189 1a96 3F        		.byte	63
 10190 1a97 30        		.byte	48
 10191 1a98 30        		.byte	48
 10192 1a99 38        		.byte	56
 10193 1a9a 1F        		.byte	31
 10194 1a9b 0F        		.byte	15
 10195 1a9c 00        		.byte	0
 10196 1a9d 3F        		.byte	63
 10197 1a9e 3F        		.byte	63
 10198 1a9f 00        		.byte	0
 10199 1aa0 00        		.byte	0
 10200 1aa1 FF        		.byte	-1
 10201 1aa2 FF        		.byte	-1
 10202 1aa3 60        		.byte	96
 10203 1aa4 60        		.byte	96
 10204 1aa5 60        		.byte	96
 10205 1aa6 60        		.byte	96
 10206 1aa7 60        		.byte	96
 10207 1aa8 E0        		.byte	-32
 10208 1aa9 C0        		.byte	-64
 10209 1aaa 80        		.byte	-128
 10210 1aab 00        		.byte	0
 10211 1aac 00        		.byte	0
 10212 1aad 3F        		.byte	63
 10213 1aae 3F        		.byte	63
 10214 1aaf 30        		.byte	48
 10215 1ab0 30        		.byte	48
 10216 1ab1 30        		.byte	48
 10217 1ab2 30        		.byte	48
 10218 1ab3 30        		.byte	48
 10219 1ab4 38        		.byte	56
 10220 1ab5 1F        		.byte	31
 10221 1ab6 0F        		.byte	15
 10222 1ab7 00        		.byte	0
 10223 1ab8 00        		.byte	0
 10224 1ab9 0C        		.byte	12
 10225 1aba 0E        		.byte	14
 10226 1abb 07        		.byte	7
 10227 1abc C3        		.byte	-61
 10228 1abd C3        		.byte	-61
 10229 1abe C3        		.byte	-61
 10230 1abf C7        		.byte	-57
 10231 1ac0 CE        		.byte	-50
 10232 1ac1 FC        		.byte	-4
 10233 1ac2 F0        		.byte	-16
 10234 1ac3 00        		.byte	0
 10235 1ac4 00        		.byte	0
 10236 1ac5 0C        		.byte	12
 10237 1ac6 1C        		.byte	28
 10238 1ac7 38        		.byte	56
 10239 1ac8 30        		.byte	48
 10240 1ac9 30        		.byte	48
 10241 1aca 30        		.byte	48
 10242 1acb 38        		.byte	56
 10243 1acc 1C        		.byte	28
 10244 1acd 0F        		.byte	15
 10245 1ace 03        		.byte	3
 10246 1acf 00        		.byte	0
 10247 1ad0 FF        		.byte	-1
 10248 1ad1 FF        		.byte	-1
 10249 1ad2 C0        		.byte	-64
 10250 1ad3 F0        		.byte	-16
 10251 1ad4 FC        		.byte	-4
 10252 1ad5 0E        		.byte	14
 10253 1ad6 07        		.byte	7
 10254 1ad7 03        		.byte	3
 10255 1ad8 07        		.byte	7
 10256 1ad9 0E        		.byte	14
 10257 1ada FC        		.byte	-4
 10258 1adb F0        		.byte	-16
 10259 1adc 3F        		.byte	63
 10260 1add 3F        		.byte	63
 10261 1ade 00        		.byte	0
 10262 1adf 03        		.byte	3
 10263 1ae0 0F        		.byte	15
 10264 1ae1 1C        		.byte	28
 10265 1ae2 38        		.byte	56
 10266 1ae3 30        		.byte	48
 10267 1ae4 38        		.byte	56
 10268 1ae5 1C        		.byte	28
 10269 1ae6 0F        		.byte	15
 10270 1ae7 03        		.byte	3
 10271 1ae8 00        		.byte	0
 10272 1ae9 7C        		.byte	124
 10273 1aea FE        		.byte	-2
 10274 1aeb C7        		.byte	-57
 10275 1aec 83        		.byte	-125
 10276 1aed 83        		.byte	-125
 10277 1aee 83        		.byte	-125
 10278 1aef 83        		.byte	-125
 10279 1af0 83        		.byte	-125
 10280 1af1 FF        		.byte	-1
 10281 1af2 FF        		.byte	-1
 10282 1af3 00        		.byte	0
 10283 1af4 00        		.byte	0
 10284 1af5 30        		.byte	48
 10285 1af6 38        		.byte	56
 10286 1af7 1D        		.byte	29
 10287 1af8 0F        		.byte	15
 10288 1af9 07        		.byte	7
 10289 1afa 03        		.byte	3
 10290 1afb 01        		.byte	1
 10291 1afc 01        		.byte	1
 10292 1afd 3F        		.byte	63
 10293 1afe 3F        		.byte	63
 10294 1aff 00        		.byte	0
 10295 1b00 00        		.byte	0
 10296 1b01 00        		.byte	0
 10297 1b02 40        		.byte	64
 10298 1b03 60        		.byte	96
 10299 1b04 60        		.byte	96
 10300 1b05 60        		.byte	96
 10301 1b06 60        		.byte	96
 10302 1b07 60        		.byte	96
 10303 1b08 60        		.byte	96
 10304 1b09 E0        		.byte	-32
 10305 1b0a C0        		.byte	-64
 10306 1b0b 00        		.byte	0
 10307 1b0c 00        		.byte	0
 10308 1b0d 1C        		.byte	28
 10309 1b0e 3E        		.byte	62
 10310 1b0f 33        		.byte	51
 10311 1b10 33        		.byte	51
 10312 1b11 33        		.byte	51
 10313 1b12 33        		.byte	51
 10314 1b13 33        		.byte	51
 10315 1b14 33        		.byte	51
 10316 1b15 3F        		.byte	63
 10317 1b16 3F        		.byte	63
 10318 1b17 00        		.byte	0
 10319 1b18 00        		.byte	0
 10320 1b19 F0        		.byte	-16
 10321 1b1a F8        		.byte	-8
 10322 1b1b 98        		.byte	-104
 10323 1b1c D8        		.byte	-40
 10324 1b1d D8        		.byte	-40
 10325 1b1e D8        		.byte	-40
 10326 1b1f D8        		.byte	-40
 10327 1b20 D8        		.byte	-40
 10328 1b21 8C        		.byte	-116
 10329 1b22 00        		.byte	0
 10330 1b23 00        		.byte	0
 10331 1b24 00        		.byte	0
 10332 1b25 1F        		.byte	31
 10333 1b26 3F        		.byte	63
 10334 1b27 31        		.byte	49
 10335 1b28 30        		.byte	48
 10336 1b29 30        		.byte	48
 10337 1b2a 30        		.byte	48
 10338 1b2b 30        		.byte	48
 10339 1b2c 39        		.byte	57
 10340 1b2d 1F        		.byte	31
 10341 1b2e 0F        		.byte	15
 10342 1b2f 00        		.byte	0
 10343 1b30 00        		.byte	0
 10344 1b31 00        		.byte	0
 10345 1b32 E0        		.byte	-32
 10346 1b33 E0        		.byte	-32
 10347 1b34 60        		.byte	96
 10348 1b35 60        		.byte	96
 10349 1b36 60        		.byte	96
 10350 1b37 60        		.byte	96
 10351 1b38 E0        		.byte	-32
 10352 1b39 C0        		.byte	-64
 10353 1b3a 00        		.byte	0
 10354 1b3b 00        		.byte	0
 10355 1b3c 00        		.byte	0
 10356 1b3d 00        		.byte	0
 10357 1b3e 3F        		.byte	63
 10358 1b3f 3F        		.byte	63
 10359 1b40 32        		.byte	50
 10360 1b41 32        		.byte	50
 10361 1b42 32        		.byte	50
 10362 1b43 32        		.byte	50
 10363 1b44 3F        		.byte	63
 10364 1b45 1D        		.byte	29
 10365 1b46 00        		.byte	0
 10366 1b47 00        		.byte	0
 10367 1b48 00        		.byte	0
 10368 1b49 00        		.byte	0
 10369 1b4a E0        		.byte	-32
 10370 1b4b E0        		.byte	-32
 10371 1b4c 60        		.byte	96
 10372 1b4d 60        		.byte	96
 10373 1b4e 60        		.byte	96
 10374 1b4f 60        		.byte	96
 10375 1b50 60        		.byte	96
 10376 1b51 60        		.byte	96
 10377 1b52 00        		.byte	0
 10378 1b53 00        		.byte	0
 10379 1b54 00        		.byte	0
 10380 1b55 00        		.byte	0
 10381 1b56 3F        		.byte	63
 10382 1b57 3F        		.byte	63
 10383 1b58 00        		.byte	0
 10384 1b59 00        		.byte	0
 10385 1b5a 00        		.byte	0
 10386 1b5b 00        		.byte	0
 10387 1b5c 00        		.byte	0
 10388 1b5d 00        		.byte	0
 10389 1b5e 00        		.byte	0
 10390 1b5f 00        		.byte	0
 10391 1b60 00        		.byte	0
 10392 1b61 00        		.byte	0
 10393 1b62 80        		.byte	-128
 10394 1b63 C0        		.byte	-64
 10395 1b64 60        		.byte	96
 10396 1b65 60        		.byte	96
 10397 1b66 60        		.byte	96
 10398 1b67 60        		.byte	96
 10399 1b68 E0        		.byte	-32
 10400 1b69 E0        		.byte	-32
 10401 1b6a 00        		.byte	0
 10402 1b6b 00        		.byte	0
 10403 1b6c 00        		.byte	0
 10404 1b6d F0        		.byte	-16
 10405 1b6e FF        		.byte	-1
 10406 1b6f 3F        		.byte	63
 10407 1b70 30        		.byte	48
 10408 1b71 30        		.byte	48
 10409 1b72 30        		.byte	48
 10410 1b73 30        		.byte	48
 10411 1b74 3F        		.byte	63
 10412 1b75 FF        		.byte	-1
 10413 1b76 F0        		.byte	-16
 10414 1b77 00        		.byte	0
 10415 1b78 00        		.byte	0
 10416 1b79 80        		.byte	-128
 10417 1b7a C0        		.byte	-64
 10418 1b7b E0        		.byte	-32
 10419 1b7c 60        		.byte	96
 10420 1b7d 60        		.byte	96
 10421 1b7e 60        		.byte	96
 10422 1b7f 60        		.byte	96
 10423 1b80 60        		.byte	96
 10424 1b81 C0        		.byte	-64
 10425 1b82 80        		.byte	-128
 10426 1b83 00        		.byte	0
 10427 1b84 00        		.byte	0
 10428 1b85 0F        		.byte	15
 10429 1b86 1F        		.byte	31
 10430 1b87 3B        		.byte	59
 10431 1b88 33        		.byte	51
 10432 1b89 33        		.byte	51
 10433 1b8a 33        		.byte	51
 10434 1b8b 33        		.byte	51
 10435 1b8c 33        		.byte	51
 10436 1b8d 13        		.byte	19
 10437 1b8e 01        		.byte	1
 10438 1b8f 00        		.byte	0
 10439 1b90 60        		.byte	96
 10440 1b91 E0        		.byte	-32
 10441 1b92 C0        		.byte	-64
 10442 1b93 80        		.byte	-128
 10443 1b94 00        		.byte	0
 10444 1b95 E0        		.byte	-32
 10445 1b96 E0        		.byte	-32
 10446 1b97 00        		.byte	0
 10447 1b98 80        		.byte	-128
 10448 1b99 C0        		.byte	-64
 10449 1b9a E0        		.byte	-32
 10450 1b9b 60        		.byte	96
 10451 1b9c 30        		.byte	48
 10452 1b9d 38        		.byte	56
 10453 1b9e 1F        		.byte	31
 10454 1b9f 07        		.byte	7
 10455 1ba0 03        		.byte	3
 10456 1ba1 3F        		.byte	63
 10457 1ba2 3F        		.byte	63
 10458 1ba3 03        		.byte	3
 10459 1ba4 07        		.byte	7
 10460 1ba5 1F        		.byte	31
 10461 1ba6 38        		.byte	56
 10462 1ba7 30        		.byte	48
 10463 1ba8 00        		.byte	0
 10464 1ba9 00        		.byte	0
 10465 1baa 80        		.byte	-128
 10466 1bab C0        		.byte	-64
 10467 1bac 60        		.byte	96
 10468 1bad 60        		.byte	96
 10469 1bae 60        		.byte	96
 10470 1baf 60        		.byte	96
 10471 1bb0 C0        		.byte	-64
 10472 1bb1 80        		.byte	-128
 10473 1bb2 00        		.byte	0
 10474 1bb3 00        		.byte	0
 10475 1bb4 00        		.byte	0
 10476 1bb5 00        		.byte	0
 10477 1bb6 08        		.byte	8
 10478 1bb7 18        		.byte	24
 10479 1bb8 30        		.byte	48
 10480 1bb9 32        		.byte	50
 10481 1bba 32        		.byte	50
 10482 1bbb 32        		.byte	50
 10483 1bbc 1F        		.byte	31
 10484 1bbd 0D        		.byte	13
 10485 1bbe 00        		.byte	0
 10486 1bbf 00        		.byte	0
 10487 1bc0 00        		.byte	0
 10488 1bc1 00        		.byte	0
 10489 1bc2 E0        		.byte	-32
 10490 1bc3 E0        		.byte	-32
 10491 1bc4 00        		.byte	0
 10492 1bc5 00        		.byte	0
 10493 1bc6 00        		.byte	0
 10494 1bc7 00        		.byte	0
 10495 1bc8 80        		.byte	-128
 10496 1bc9 E0        		.byte	-32
 10497 1bca E0        		.byte	-32
 10498 1bcb 00        		.byte	0
 10499 1bcc 00        		.byte	0
 10500 1bcd 00        		.byte	0
 10501 1bce 3F        		.byte	63
 10502 1bcf 3F        		.byte	63
 10503 1bd0 18        		.byte	24
 10504 1bd1 0C        		.byte	12
 10505 1bd2 06        		.byte	6
 10506 1bd3 03        		.byte	3
 10507 1bd4 01        		.byte	1
 10508 1bd5 3F        		.byte	63
 10509 1bd6 3F        		.byte	63
 10510 1bd7 00        		.byte	0
 10511 1bd8 00        		.byte	0
 10512 1bd9 00        		.byte	0
 10513 1bda E0        		.byte	-32
 10514 1bdb E0        		.byte	-32
 10515 1bdc 00        		.byte	0
 10516 1bdd 00        		.byte	0
 10517 1bde 18        		.byte	24
 10518 1bdf 0C        		.byte	12
 10519 1be0 80        		.byte	-128
 10520 1be1 E0        		.byte	-32
 10521 1be2 E0        		.byte	-32
 10522 1be3 00        		.byte	0
 10523 1be4 00        		.byte	0
 10524 1be5 00        		.byte	0
 10525 1be6 3F        		.byte	63
 10526 1be7 3F        		.byte	63
 10527 1be8 18        		.byte	24
 10528 1be9 0C        		.byte	12
 10529 1bea 06        		.byte	6
 10530 1beb 03        		.byte	3
 10531 1bec 01        		.byte	1
 10532 1bed 3F        		.byte	63
 10533 1bee 3F        		.byte	63
 10534 1bef 00        		.byte	0
 10535 1bf0 00        		.byte	0
 10536 1bf1 00        		.byte	0
 10537 1bf2 E0        		.byte	-32
 10538 1bf3 E0        		.byte	-32
 10539 1bf4 00        		.byte	0
 10540 1bf5 80        		.byte	-128
 10541 1bf6 C0        		.byte	-64
 10542 1bf7 E0        		.byte	-32
 10543 1bf8 60        		.byte	96
 10544 1bf9 00        		.byte	0
 10545 1bfa 00        		.byte	0
 10546 1bfb 00        		.byte	0
 10547 1bfc 00        		.byte	0
 10548 1bfd 00        		.byte	0
 10549 1bfe 3F        		.byte	63
 10550 1bff 3F        		.byte	63
 10551 1c00 03        		.byte	3
 10552 1c01 07        		.byte	7
 10553 1c02 0F        		.byte	15
 10554 1c03 1C        		.byte	28
 10555 1c04 38        		.byte	56
 10556 1c05 30        		.byte	48
 10557 1c06 00        		.byte	0
 10558 1c07 00        		.byte	0
 10559 1c08 00        		.byte	0
 10560 1c09 00        		.byte	0
 10561 1c0a 80        		.byte	-128
 10562 1c0b C0        		.byte	-64
 10563 1c0c 60        		.byte	96
 10564 1c0d 60        		.byte	96
 10565 1c0e 60        		.byte	96
 10566 1c0f 60        		.byte	96
 10567 1c10 E0        		.byte	-32
 10568 1c11 E0        		.byte	-32
 10569 1c12 00        		.byte	0
 10570 1c13 00        		.byte	0
 10571 1c14 00        		.byte	0
 10572 1c15 00        		.byte	0
 10573 1c16 3F        		.byte	63
 10574 1c17 3F        		.byte	63
 10575 1c18 00        		.byte	0
 10576 1c19 00        		.byte	0
 10577 1c1a 00        		.byte	0
 10578 1c1b 00        		.byte	0
 10579 1c1c 3F        		.byte	63
 10580 1c1d 3F        		.byte	63
 10581 1c1e 00        		.byte	0
 10582 1c1f 00        		.byte	0
 10583 1c20 00        		.byte	0
 10584 1c21 E0        		.byte	-32
 10585 1c22 E0        		.byte	-32
 10586 1c23 E0        		.byte	-32
 10587 1c24 C0        		.byte	-64
 10588 1c25 00        		.byte	0
 10589 1c26 00        		.byte	0
 10590 1c27 C0        		.byte	-64
 10591 1c28 E0        		.byte	-32
 10592 1c29 E0        		.byte	-32
 10593 1c2a E0        		.byte	-32
 10594 1c2b 00        		.byte	0
 10595 1c2c 00        		.byte	0
 10596 1c2d 3F        		.byte	63
 10597 1c2e 3F        		.byte	63
 10598 1c2f 00        		.byte	0
 10599 1c30 01        		.byte	1
 10600 1c31 03        		.byte	3
 10601 1c32 03        		.byte	3
 10602 1c33 01        		.byte	1
 10603 1c34 00        		.byte	0
 10604 1c35 3F        		.byte	63
 10605 1c36 3F        		.byte	63
 10606 1c37 00        		.byte	0
 10607 1c38 00        		.byte	0
 10608 1c39 00        		.byte	0
 10609 1c3a E0        		.byte	-32
 10610 1c3b E0        		.byte	-32
 10611 1c3c 00        		.byte	0
 10612 1c3d 00        		.byte	0
 10613 1c3e 00        		.byte	0
 10614 1c3f 00        		.byte	0
 10615 1c40 00        		.byte	0
 10616 1c41 E0        		.byte	-32
 10617 1c42 E0        		.byte	-32
 10618 1c43 00        		.byte	0
 10619 1c44 00        		.byte	0
 10620 1c45 00        		.byte	0
 10621 1c46 3F        		.byte	63
 10622 1c47 3F        		.byte	63
 10623 1c48 06        		.byte	6
 10624 1c49 06        		.byte	6
 10625 1c4a 06        		.byte	6
 10626 1c4b 06        		.byte	6
 10627 1c4c 06        		.byte	6
 10628 1c4d 3F        		.byte	63
 10629 1c4e 3F        		.byte	63
 10630 1c4f 00        		.byte	0
 10631 1c50 00        		.byte	0
 10632 1c51 80        		.byte	-128
 10633 1c52 C0        		.byte	-64
 10634 1c53 E0        		.byte	-32
 10635 1c54 60        		.byte	96
 10636 1c55 60        		.byte	96
 10637 1c56 60        		.byte	96
 10638 1c57 60        		.byte	96
 10639 1c58 E0        		.byte	-32
 10640 1c59 C0        		.byte	-64
 10641 1c5a 80        		.byte	-128
 10642 1c5b 00        		.byte	0
 10643 1c5c 00        		.byte	0
 10644 1c5d 0F        		.byte	15
 10645 1c5e 1F        		.byte	31
 10646 1c5f 38        		.byte	56
 10647 1c60 30        		.byte	48
 10648 1c61 30        		.byte	48
 10649 1c62 30        		.byte	48
 10650 1c63 30        		.byte	48
 10651 1c64 38        		.byte	56
 10652 1c65 1F        		.byte	31
 10653 1c66 0F        		.byte	15
 10654 1c67 00        		.byte	0
 10655 1c68 00        		.byte	0
 10656 1c69 00        		.byte	0
 10657 1c6a E0        		.byte	-32
 10658 1c6b E0        		.byte	-32
 10659 1c6c 60        		.byte	96
 10660 1c6d 60        		.byte	96
 10661 1c6e 60        		.byte	96
 10662 1c6f 60        		.byte	96
 10663 1c70 60        		.byte	96
 10664 1c71 E0        		.byte	-32
 10665 1c72 E0        		.byte	-32
 10666 1c73 00        		.byte	0
 10667 1c74 00        		.byte	0
 10668 1c75 00        		.byte	0
 10669 1c76 3F        		.byte	63
 10670 1c77 3F        		.byte	63
 10671 1c78 00        		.byte	0
 10672 1c79 00        		.byte	0
 10673 1c7a 00        		.byte	0
 10674 1c7b 00        		.byte	0
 10675 1c7c 00        		.byte	0
 10676 1c7d 3F        		.byte	63
 10677 1c7e 3F        		.byte	63
 10678 1c7f 00        		.byte	0
 10679 1c80 00        		.byte	0
 10680 1c81 E0        		.byte	-32
 10681 1c82 E0        		.byte	-32
 10682 1c83 60        		.byte	96
 10683 1c84 60        		.byte	96
 10684 1c85 60        		.byte	96
 10685 1c86 60        		.byte	96
 10686 1c87 60        		.byte	96
 10687 1c88 E0        		.byte	-32
 10688 1c89 C0        		.byte	-64
 10689 1c8a 80        		.byte	-128
 10690 1c8b 00        		.byte	0
 10691 1c8c 00        		.byte	0
 10692 1c8d FF        		.byte	-1
 10693 1c8e FF        		.byte	-1
 10694 1c8f 0C        		.byte	12
 10695 1c90 18        		.byte	24
 10696 1c91 18        		.byte	24
 10697 1c92 18        		.byte	24
 10698 1c93 18        		.byte	24
 10699 1c94 1C        		.byte	28
 10700 1c95 0F        		.byte	15
 10701 1c96 07        		.byte	7
 10702 1c97 00        		.byte	0
 10703 1c98 00        		.byte	0
 10704 1c99 80        		.byte	-128
 10705 1c9a C0        		.byte	-64
 10706 1c9b E0        		.byte	-32
 10707 1c9c 60        		.byte	96
 10708 1c9d 60        		.byte	96
 10709 1c9e 60        		.byte	96
 10710 1c9f 60        		.byte	96
 10711 1ca0 60        		.byte	96
 10712 1ca1 C0        		.byte	-64
 10713 1ca2 80        		.byte	-128
 10714 1ca3 00        		.byte	0
 10715 1ca4 00        		.byte	0
 10716 1ca5 0F        		.byte	15
 10717 1ca6 1F        		.byte	31
 10718 1ca7 38        		.byte	56
 10719 1ca8 30        		.byte	48
 10720 1ca9 30        		.byte	48
 10721 1caa 30        		.byte	48
 10722 1cab 30        		.byte	48
 10723 1cac 30        		.byte	48
 10724 1cad 18        		.byte	24
 10725 1cae 08        		.byte	8
 10726 1caf 00        		.byte	0
 10727 1cb0 00        		.byte	0
 10728 1cb1 00        		.byte	0
 10729 1cb2 60        		.byte	96
 10730 1cb3 60        		.byte	96
 10731 1cb4 60        		.byte	96
 10732 1cb5 E0        		.byte	-32
 10733 1cb6 E0        		.byte	-32
 10734 1cb7 60        		.byte	96
 10735 1cb8 60        		.byte	96
 10736 1cb9 60        		.byte	96
 10737 1cba 00        		.byte	0
 10738 1cbb 00        		.byte	0
 10739 1cbc 00        		.byte	0
 10740 1cbd 00        		.byte	0
 10741 1cbe 00        		.byte	0
 10742 1cbf 00        		.byte	0
 10743 1cc0 00        		.byte	0
 10744 1cc1 3F        		.byte	63
 10745 1cc2 3F        		.byte	63
 10746 1cc3 00        		.byte	0
 10747 1cc4 00        		.byte	0
 10748 1cc5 00        		.byte	0
 10749 1cc6 00        		.byte	0
 10750 1cc7 00        		.byte	0
 10751 1cc8 00        		.byte	0
 10752 1cc9 00        		.byte	0
 10753 1cca 60        		.byte	96
 10754 1ccb E0        		.byte	-32
 10755 1ccc 80        		.byte	-128
 10756 1ccd 00        		.byte	0
 10757 1cce 00        		.byte	0
 10758 1ccf 80        		.byte	-128
 10759 1cd0 E0        		.byte	-32
 10760 1cd1 60        		.byte	96
 10761 1cd2 00        		.byte	0
 10762 1cd3 00        		.byte	0
 10763 1cd4 00        		.byte	0
 10764 1cd5 00        		.byte	0
 10765 1cd6 00        		.byte	0
 10766 1cd7 81        		.byte	-127
 10767 1cd8 E7        		.byte	-25
 10768 1cd9 7E        		.byte	126
 10769 1cda 1E        		.byte	30
 10770 1cdb 07        		.byte	7
 10771 1cdc 01        		.byte	1
 10772 1cdd 00        		.byte	0
 10773 1cde 00        		.byte	0
 10774 1cdf 00        		.byte	0
 10775 1ce0 00        		.byte	0
 10776 1ce1 80        		.byte	-128
 10777 1ce2 C0        		.byte	-64
 10778 1ce3 C0        		.byte	-64
 10779 1ce4 C0        		.byte	-64
 10780 1ce5 E0        		.byte	-32
 10781 1ce6 E0        		.byte	-32
 10782 1ce7 C0        		.byte	-64
 10783 1ce8 C0        		.byte	-64
 10784 1ce9 C0        		.byte	-64
 10785 1cea 80        		.byte	-128
 10786 1ceb 00        		.byte	0
 10787 1cec 00        		.byte	0
 10788 1ced 1F        		.byte	31
 10789 1cee 3F        		.byte	63
 10790 1cef 30        		.byte	48
 10791 1cf0 30        		.byte	48
 10792 1cf1 FF        		.byte	-1
 10793 1cf2 FF        		.byte	-1
 10794 1cf3 30        		.byte	48
 10795 1cf4 30        		.byte	48
 10796 1cf5 3F        		.byte	63
 10797 1cf6 1F        		.byte	31
 10798 1cf7 00        		.byte	0
 10799 1cf8 00        		.byte	0
 10800 1cf9 60        		.byte	96
 10801 1cfa E0        		.byte	-32
 10802 1cfb C0        		.byte	-64
 10803 1cfc 80        		.byte	-128
 10804 1cfd 00        		.byte	0
 10805 1cfe 80        		.byte	-128
 10806 1cff C0        		.byte	-64
 10807 1d00 E0        		.byte	-32
 10808 1d01 60        		.byte	96
 10809 1d02 00        		.byte	0
 10810 1d03 00        		.byte	0
 10811 1d04 00        		.byte	0
 10812 1d05 30        		.byte	48
 10813 1d06 38        		.byte	56
 10814 1d07 1D        		.byte	29
 10815 1d08 0F        		.byte	15
 10816 1d09 07        		.byte	7
 10817 1d0a 0F        		.byte	15
 10818 1d0b 1D        		.byte	29
 10819 1d0c 38        		.byte	56
 10820 1d0d 30        		.byte	48
 10821 1d0e 00        		.byte	0
 10822 1d0f 00        		.byte	0
 10823 1d10 00        		.byte	0
 10824 1d11 00        		.byte	0
 10825 1d12 E0        		.byte	-32
 10826 1d13 E0        		.byte	-32
 10827 1d14 00        		.byte	0
 10828 1d15 00        		.byte	0
 10829 1d16 00        		.byte	0
 10830 1d17 00        		.byte	0
 10831 1d18 E0        		.byte	-32
 10832 1d19 E0        		.byte	-32
 10833 1d1a 00        		.byte	0
 10834 1d1b 00        		.byte	0
 10835 1d1c 00        		.byte	0
 10836 1d1d 00        		.byte	0
 10837 1d1e 3F        		.byte	63
 10838 1d1f 3F        		.byte	63
 10839 1d20 30        		.byte	48
 10840 1d21 30        		.byte	48
 10841 1d22 30        		.byte	48
 10842 1d23 30        		.byte	48
 10843 1d24 3F        		.byte	63
 10844 1d25 FF        		.byte	-1
 10845 1d26 F0        		.byte	-16
 10846 1d27 00        		.byte	0
 10847 1d28 00        		.byte	0
 10848 1d29 00        		.byte	0
 10849 1d2a E0        		.byte	-32
 10850 1d2b E0        		.byte	-32
 10851 1d2c 00        		.byte	0
 10852 1d2d 00        		.byte	0
 10853 1d2e 00        		.byte	0
 10854 1d2f 00        		.byte	0
 10855 1d30 E0        		.byte	-32
 10856 1d31 E0        		.byte	-32
 10857 1d32 00        		.byte	0
 10858 1d33 00        		.byte	0
 10859 1d34 00        		.byte	0
 10860 1d35 00        		.byte	0
 10861 1d36 03        		.byte	3
 10862 1d37 07        		.byte	7
 10863 1d38 06        		.byte	6
 10864 1d39 06        		.byte	6
 10865 1d3a 06        		.byte	6
 10866 1d3b 06        		.byte	6
 10867 1d3c 3F        		.byte	63
 10868 1d3d 3F        		.byte	63
 10869 1d3e 00        		.byte	0
 10870 1d3f 00        		.byte	0
 10871 1d40 00        		.byte	0
 10872 1d41 E0        		.byte	-32
 10873 1d42 E0        		.byte	-32
 10874 1d43 00        		.byte	0
 10875 1d44 00        		.byte	0
 10876 1d45 E0        		.byte	-32
 10877 1d46 E0        		.byte	-32
 10878 1d47 00        		.byte	0
 10879 1d48 00        		.byte	0
 10880 1d49 E0        		.byte	-32
 10881 1d4a E0        		.byte	-32
 10882 1d4b 00        		.byte	0
 10883 1d4c 00        		.byte	0
 10884 1d4d 3F        		.byte	63
 10885 1d4e 3F        		.byte	63
 10886 1d4f 30        		.byte	48
 10887 1d50 30        		.byte	48
 10888 1d51 3F        		.byte	63
 10889 1d52 3F        		.byte	63
 10890 1d53 30        		.byte	48
 10891 1d54 30        		.byte	48
 10892 1d55 3F        		.byte	63
 10893 1d56 3F        		.byte	63
 10894 1d57 00        		.byte	0
 10895 1d58 00        		.byte	0
 10896 1d59 E0        		.byte	-32
 10897 1d5a E0        		.byte	-32
 10898 1d5b 00        		.byte	0
 10899 1d5c 00        		.byte	0
 10900 1d5d E0        		.byte	-32
 10901 1d5e E0        		.byte	-32
 10902 1d5f 00        		.byte	0
 10903 1d60 00        		.byte	0
 10904 1d61 E0        		.byte	-32
 10905 1d62 E0        		.byte	-32
 10906 1d63 00        		.byte	0
 10907 1d64 00        		.byte	0
 10908 1d65 3F        		.byte	63
 10909 1d66 3F        		.byte	63
 10910 1d67 30        		.byte	48
 10911 1d68 30        		.byte	48
 10912 1d69 3F        		.byte	63
 10913 1d6a 3F        		.byte	63
 10914 1d6b 30        		.byte	48
 10915 1d6c 30        		.byte	48
 10916 1d6d 3F        		.byte	63
 10917 1d6e FF        		.byte	-1
 10918 1d6f F0        		.byte	-16
 10919 1d70 00        		.byte	0
 10920 1d71 E0        		.byte	-32
 10921 1d72 E0        		.byte	-32
 10922 1d73 60        		.byte	96
 10923 1d74 E0        		.byte	-32
 10924 1d75 E0        		.byte	-32
 10925 1d76 00        		.byte	0
 10926 1d77 00        		.byte	0
 10927 1d78 00        		.byte	0
 10928 1d79 00        		.byte	0
 10929 1d7a 00        		.byte	0
 10930 1d7b 00        		.byte	0
 10931 1d7c 00        		.byte	0
 10932 1d7d 00        		.byte	0
 10933 1d7e 00        		.byte	0
 10934 1d7f 00        		.byte	0
 10935 1d80 3F        		.byte	63
 10936 1d81 3F        		.byte	63
 10937 1d82 33        		.byte	51
 10938 1d83 33        		.byte	51
 10939 1d84 33        		.byte	51
 10940 1d85 3F        		.byte	63
 10941 1d86 1E        		.byte	30
 10942 1d87 00        		.byte	0
 10943 1d88 00        		.byte	0
 10944 1d89 E0        		.byte	-32
 10945 1d8a E0        		.byte	-32
 10946 1d8b 00        		.byte	0
 10947 1d8c 00        		.byte	0
 10948 1d8d 00        		.byte	0
 10949 1d8e 00        		.byte	0
 10950 1d8f 00        		.byte	0
 10951 1d90 00        		.byte	0
 10952 1d91 E0        		.byte	-32
 10953 1d92 E0        		.byte	-32
 10954 1d93 00        		.byte	0
 10955 1d94 00        		.byte	0
 10956 1d95 3F        		.byte	63
 10957 1d96 3F        		.byte	63
 10958 1d97 33        		.byte	51
 10959 1d98 33        		.byte	51
 10960 1d99 33        		.byte	51
 10961 1d9a 3F        		.byte	63
 10962 1d9b 1E        		.byte	30
 10963 1d9c 00        		.byte	0
 10964 1d9d 3F        		.byte	63
 10965 1d9e 3F        		.byte	63
 10966 1d9f 00        		.byte	0
 10967 1da0 00        		.byte	0
 10968 1da1 00        		.byte	0
 10969 1da2 E0        		.byte	-32
 10970 1da3 E0        		.byte	-32
 10971 1da4 00        		.byte	0
 10972 1da5 00        		.byte	0
 10973 1da6 00        		.byte	0
 10974 1da7 00        		.byte	0
 10975 1da8 00        		.byte	0
 10976 1da9 00        		.byte	0
 10977 1daa 00        		.byte	0
 10978 1dab 00        		.byte	0
 10979 1dac 00        		.byte	0
 10980 1dad 00        		.byte	0
 10981 1dae 3F        		.byte	63
 10982 1daf 3F        		.byte	63
 10983 1db0 33        		.byte	51
 10984 1db1 33        		.byte	51
 10985 1db2 33        		.byte	51
 10986 1db3 33        		.byte	51
 10987 1db4 3F        		.byte	63
 10988 1db5 1E        		.byte	30
 10989 1db6 00        		.byte	0
 10990 1db7 00        		.byte	0
 10991 1db8 00        		.byte	0
 10992 1db9 80        		.byte	-128
 10993 1dba C0        		.byte	-64
 10994 1dbb 60        		.byte	96
 10995 1dbc 60        		.byte	96
 10996 1dbd 60        		.byte	96
 10997 1dbe 60        		.byte	96
 10998 1dbf 60        		.byte	96
 10999 1dc0 C0        		.byte	-64
 11000 1dc1 80        		.byte	-128
 11001 1dc2 00        		.byte	0
 11002 1dc3 00        		.byte	0
 11003 1dc4 00        		.byte	0
 11004 1dc5 08        		.byte	8
 11005 1dc6 18        		.byte	24
 11006 1dc7 30        		.byte	48
 11007 1dc8 30        		.byte	48
 11008 1dc9 33        		.byte	51
 11009 1dca 33        		.byte	51
 11010 1dcb 3B        		.byte	59
 11011 1dcc 1F        		.byte	31
 11012 1dcd 0F        		.byte	15
 11013 1dce 00        		.byte	0
 11014 1dcf 00        		.byte	0
 11015 1dd0 00        		.byte	0
 11016 1dd1 E0        		.byte	-32
 11017 1dd2 E0        		.byte	-32
 11018 1dd3 00        		.byte	0
 11019 1dd4 80        		.byte	-128
 11020 1dd5 C0        		.byte	-64
 11021 1dd6 E0        		.byte	-32
 11022 1dd7 60        		.byte	96
 11023 1dd8 E0        		.byte	-32
 11024 1dd9 C0        		.byte	-64
 11025 1dda 80        		.byte	-128
 11026 1ddb 00        		.byte	0
 11027 1ddc 00        		.byte	0
 11028 1ddd 3F        		.byte	63
 11029 1dde 3F        		.byte	63
 11030 1ddf 03        		.byte	3
 11031 1de0 0F        		.byte	15
 11032 1de1 1F        		.byte	31
 11033 1de2 38        		.byte	56
 11034 1de3 30        		.byte	48
 11035 1de4 38        		.byte	56
 11036 1de5 1F        		.byte	31
 11037 1de6 0F        		.byte	15
 11038 1de7 00        		.byte	0
 11039 1de8 00        		.byte	0
 11040 1de9 00        		.byte	0
 11041 1dea C0        		.byte	-64
 11042 1deb E0        		.byte	-32
 11043 1dec 60        		.byte	96
 11044 1ded 60        		.byte	96
 11045 1dee 60        		.byte	96
 11046 1def 60        		.byte	96
 11047 1df0 E0        		.byte	-32
 11048 1df1 E0        		.byte	-32
 11049 1df2 00        		.byte	0
 11050 1df3 00        		.byte	0
 11051 1df4 00        		.byte	0
 11052 1df5 00        		.byte	0
 11053 1df6 31        		.byte	49
 11054 1df7 3B        		.byte	59
 11055 1df8 1E        		.byte	30
 11056 1df9 0E        		.byte	14
 11057 1dfa 06        		.byte	6
 11058 1dfb 02        		.byte	2
 11059 1dfc 3F        		.byte	63
 11060 1dfd 3F        		.byte	63
 11061 1dfe 00        		.byte	0
 11062 1dff 00        		.byte	0
 11063               	.global	STATUS
 11064               	.global	STATUS
 11065               		.section .bss
 11068               	STATUS:
 11069 0000 00        		.skip 1,0
 11070               	.global	BUTTON
 11071               	.global	BUTTON
 11074               	BUTTON:
 11075 0001 00        		.skip 1,0
 11076               	.global	CountMUL_BTN_WAIT
 11077               	.global	CountMUL_BTN_WAIT
 11080               	CountMUL_BTN_WAIT:
 11081 0002 00        		.skip 1,0
 11082               	.global	MENU
 11083               	.global	MENU
 11086               	MENU:
 11087 0003 00        		.skip 1,0
 11088               	.global	CountMUL_MENU_WAIT
 11089               	.global	CountMUL_MENU_WAIT
 11092               	CountMUL_MENU_WAIT:
 11093 0004 00        		.skip 1,0
 11094               	.global	STATUS_DS
 11095               	.global	STATUS_DS
 11098               	STATUS_DS:
 11099 0005 00        		.skip 1,0
 11100               	.global	STATUS_TC1
 11101               	.global	STATUS_TC1
 11104               	STATUS_TC1:
 11105 0006 00        		.skip 1,0
 11106               	.global	VALUE_TC1
 11107               	.global	VALUE_TC1
 11110               	VALUE_TC1:
 11111 0007 0000      		.skip 2,0
 11112               	.global	STATUS_TC2
 11113               	.global	STATUS_TC2
 11116               	STATUS_TC2:
 11117 0009 00        		.skip 1,0
 11118               	.global	VALUE_TC2
 11119               	.global	VALUE_TC2
 11122               	VALUE_TC2:
 11123 000a 0000      		.skip 2,0
 11124               	.global	ui8_PWM1_LEVEL
 11125               	.global	ui8_PWM1_LEVEL
 11128               	ui8_PWM1_LEVEL:
 11129 000c 00        		.skip 1,0
 11130               	.global	ui8_PWM2_LEVEL
 11131               	.global	ui8_PWM2_LEVEL
 11134               	ui8_PWM2_LEVEL:
 11135 000d 00        		.skip 1,0
 11136               	.global	ui8_PWM3_LEVEL
 11137               	.global	ui8_PWM3_LEVEL
 11140               	ui8_PWM3_LEVEL:
 11141 000e 00        		.skip 1,0
 11142               	.global	dbl_PWM1_LEVEL
 11143               	.global	dbl_PWM1_LEVEL
 11146               	dbl_PWM1_LEVEL:
 11147 000f 0000 0000 		.skip 4,0
 11148               	.global	dbl_PWM2_LEVEL
 11149               	.global	dbl_PWM2_LEVEL
 11152               	dbl_PWM2_LEVEL:
 11153 0013 0000 0000 		.skip 4,0
 11154               	.global	ui8_M12_STATUS
 11155               	.global	ui8_M12_STATUS
 11158               	ui8_M12_STATUS:
 11159 0017 00        		.skip 1,0
 11160               	.global	ui16_M12_CNT
 11161               	.global	ui16_M12_CNT
 11164               	ui16_M12_CNT:
 11165 0018 0000      		.skip 2,0
 11166               	.global	ui8_PWM1_Start_Discret
 11167               	.global	ui8_PWM1_Start_Discret
 11170               	ui8_PWM1_Start_Discret:
 11171 001a 00        		.skip 1,0
 11172               	.global	ui8_PWM2_Start_Discret
 11173               	.global	ui8_PWM2_Start_Discret
 11176               	ui8_PWM2_Start_Discret:
 11177 001b 00        		.skip 1,0
 11178               	.global	ui8_PWM3_Start_Discret
 11179               	.global	ui8_PWM3_Start_Discret
 11182               	ui8_PWM3_Start_Discret:
 11183 001c 00        		.skip 1,0
 11184               	.global	dbl_PWM1_Step_Start_Discret
 11185               	.global	dbl_PWM1_Step_Start_Discret
 11188               	dbl_PWM1_Step_Start_Discret:
 11189 001d 0000 0000 		.skip 4,0
 11190               	.global	dbl_PWM1_Step_Stop_Discret
 11191               	.global	dbl_PWM1_Step_Stop_Discret
 11194               	dbl_PWM1_Step_Stop_Discret:
 11195 0021 0000 0000 		.skip 4,0
 11196               	.global	dbl_PWM2_Step_Discret
 11197               	.global	dbl_PWM2_Step_Discret
 11200               	dbl_PWM2_Step_Discret:
 11201 0025 0000 0000 		.skip 4,0
 11202               	.global	dbl_PWM3_Step_Discret
 11203               	.global	dbl_PWM3_Step_Discret
 11206               	dbl_PWM3_Step_Discret:
 11207 0029 0000 0000 		.skip 4,0
 11208               	.global	EE_LED_LIGTH
 11209               		.section	.eeprom,"aw",@progbits
 11212               	EE_LED_LIGTH:
 11213 0000 01        		.byte	1
 11214               	.global	EE_SETVAL_TEMP_ROOM
 11217               	EE_SETVAL_TEMP_ROOM:
 11218 0001 19        		.byte	25
 11219               	.global	EE_SETVAL_DELTA_TEMP_ROOM
 11222               	EE_SETVAL_DELTA_TEMP_ROOM:
 11223 0002 02        		.byte	2
 11224               	.global	EE_SETVAL_TEMP_TOP_OVEN
 11227               	EE_SETVAL_TEMP_TOP_OVEN:
 11228 0003 64        		.byte	100
 11229               	.global	EE_SETVAL_DELTA_TEMP_TOP_OVEN
 11232               	EE_SETVAL_DELTA_TEMP_TOP_OVEN:
 11233 0004 0A        		.byte	10
 11234               	.global	EE_SETVAL_TEMP_PYROLYS_START
 11237               	EE_SETVAL_TEMP_PYROLYS_START:
 11238 0005 9001      		.word	400
 11239               	.global	EE_SETVAL_TEMP_PYROLYS_FULL
 11242               	EE_SETVAL_TEMP_PYROLYS_FULL:
 11243 0007 5802      		.word	600
 11244               	.global	EE_SETVAL_DELTA_TEMP_SHUTDOWN
 11247               	EE_SETVAL_DELTA_TEMP_SHUTDOWN:
 11248 0009 0A        		.byte	10
 11249               	.global	EE_SETVAL_PWM_FAN1_START
 11252               	EE_SETVAL_PWM_FAN1_START:
 11253 000a 02        		.byte	2
 11254               	.global	EE_SETVAL_PWM_FAN2_START
 11257               	EE_SETVAL_PWM_FAN2_START:
 11258 000b 02        		.byte	2
 11259               	.global	EE_SETVAL_PWM_FAN3_START
 11262               	EE_SETVAL_PWM_FAN3_START:
 11263 000c 02        		.byte	2
 11264               	.global	EE_SETVAL_M1_START_PERIOD
 11267               	EE_SETVAL_M1_START_PERIOD:
 11268 000d 0A        		.byte	10
 11269               	.global	EE_SETVAL_M1_STOP_PERIOD
 11272               	EE_SETVAL_M1_STOP_PERIOD:
 11273 000e 0A        		.byte	10
 11274               	.global	LabelT1
 11275               		.section	.progmem.data
 11278               	LabelT1:
 11279 1e00 04        		.byte	4
 11280 1e01 54        		.byte	84
 11281 1e02 31        		.byte	49
 11282 1e03 3A        		.byte	58
 11283 1e04 20        		.byte	32
 11284               	.global	LabelT2
 11287               	LabelT2:
 11288 1e05 04        		.byte	4
 11289 1e06 54        		.byte	84
 11290 1e07 32        		.byte	50
 11291 1e08 3A        		.byte	58
 11292 1e09 20        		.byte	32
 11293               	.global	LabelT3
 11296               	LabelT3:
 11297 1e0a 04        		.byte	4
 11298 1e0b 54        		.byte	84
 11299 1e0c 33        		.byte	51
 11300 1e0d 3A        		.byte	58
 11301 1e0e 20        		.byte	32
 11302               	.global	LabelM1
 11305               	LabelM1:
 11306 1e0f 04        		.byte	4
 11307 1e10 CC        		.byte	-52
 11308 1e11 31        		.byte	49
 11309 1e12 3A        		.byte	58
 11310 1e13 20        		.byte	32
 11311               	.global	LabelM2
 11314               	LabelM2:
 11315 1e14 04        		.byte	4
 11316 1e15 CC        		.byte	-52
 11317 1e16 32        		.byte	50
 11318 1e17 3A        		.byte	58
 11319 1e18 20        		.byte	32
 11320               	.global	LabelM3
 11323               	LabelM3:
 11324 1e19 04        		.byte	4
 11325 1e1a CC        		.byte	-52
 11326 1e1b 33        		.byte	51
 11327 1e1c 3A        		.byte	58
 11328 1e1d 20        		.byte	32
 11329               	.global	LabelUNC
 11332               	LabelUNC:
 11333 1e1e 03        		.byte	3
 11334 1e1f 55        		.byte	85
 11335 1e20 4E        		.byte	78
 11336 1e21 43        		.byte	67
 11337               	.global	LabelBRK
 11340               	LabelBRK:
 11341 1e22 05        		.byte	5
 11342 1e23 42        		.byte	66
 11343 1e24 52        		.byte	82
 11344 1e25 45        		.byte	69
 11345 1e26 41        		.byte	65
 11346 1e27 4B        		.byte	75
 11347               	.global	LabelOVR
 11350               	LabelOVR:
 11351 1e28 04        		.byte	4
 11352 1e29 4F        		.byte	79
 11353 1e2a 56        		.byte	86
 11354 1e2b 45        		.byte	69
 11355 1e2c 52        		.byte	82
 11356               	.global	LabelERR
 11359               	LabelERR:
 11360 1e2d 05        		.byte	5
 11361 1e2e 45        		.byte	69
 11362 1e2f 52        		.byte	82
 11363 1e30 52        		.byte	82
 11364 1e31 4F        		.byte	79
 11365 1e32 52        		.byte	82
 11366               	.global	LabelCC
 11369               	LabelCC:
 11370 1e33 02        		.byte	2
 11371 1e34 B7        		.byte	-73
 11372 1e35 43        		.byte	67
 11373               	.global	LabelSetting
 11376               	LabelSetting:
 11377 1e36 09        		.byte	9
 11378 1e37 CD        		.byte	-51
 11379 1e38 E0        		.byte	-32
 11380 1e39 F1        		.byte	-15
 11381 1e3a F2        		.byte	-14
 11382 1e3b F0        		.byte	-16
 11383 1e3c EE        		.byte	-18
 11384 1e3d E9        		.byte	-23
 11385 1e3e EA        		.byte	-22
 11386 1e3f E0        		.byte	-32
 11387               	.global	Label_TEMP
 11390               	Label_TEMP:
 11391 1e40 0B        		.byte	11
 11392 1e41 D2        		.byte	-46
 11393 1e42 E5        		.byte	-27
 11394 1e43 EC        		.byte	-20
 11395 1e44 EF        		.byte	-17
 11396 1e45 E5        		.byte	-27
 11397 1e46 F0        		.byte	-16
 11398 1e47 E0        		.byte	-32
 11399 1e48 F2        		.byte	-14
 11400 1e49 F3        		.byte	-13
 11401 1e4a F0        		.byte	-16
 11402 1e4b E0        		.byte	-32
 11403               	.global	Label_ROOM
 11406               	Label_ROOM:
 11407 1e4c 09        		.byte	9
 11408 1e4d EF        		.byte	-17
 11409 1e4e EE        		.byte	-18
 11410 1e4f EC        		.byte	-20
 11411 1e50 E5        		.byte	-27
 11412 1e51 F9        		.byte	-7
 11413 1e52 E5        		.byte	-27
 11414 1e53 ED        		.byte	-19
 11415 1e54 E8        		.byte	-24
 11416 1e55 FF        		.byte	-1
 11417               	.global	Label_DELTA_TEMP
 11420               	Label_DELTA_TEMP:
 11421 1e56 0E        		.byte	14
 11422 1e57 C4        		.byte	-60
 11423 1e58 E5        		.byte	-27
 11424 1e59 EB        		.byte	-21
 11425 1e5a FC        		.byte	-4
 11426 1e5b F2        		.byte	-14
 11427 1e5c E0        		.byte	-32
 11428 1e5d 20        		.byte	32
 11429 1e5e F2        		.byte	-14
 11430 1e5f E5        		.byte	-27
 11431 1e60 EC        		.byte	-20
 11432 1e61 EF        		.byte	-17
 11433 1e62 E5        		.byte	-27
 11434 1e63 F0        		.byte	-16
 11435 1e64 2E        		.byte	46
 11436               	.global	Label_TOP_OVEN
 11439               	Label_TOP_OVEN:
 11440 1e65 0D        		.byte	13
 11441 1e66 EF        		.byte	-17
 11442 1e67 EE        		.byte	-18
 11443 1e68 E2        		.byte	-30
 11444 1e69 E5        		.byte	-27
 11445 1e6a F0        		.byte	-16
 11446 1e6b F5        		.byte	-11
 11447 1e6c ED        		.byte	-19
 11448 1e6d 2E        		.byte	46
 11449 1e6e 20        		.byte	32
 11450 1e6f EF        		.byte	-17
 11451 1e70 E5        		.byte	-27
 11452 1e71 F7        		.byte	-9
 11453 1e72 E8        		.byte	-24
 11454               	.global	Label_START_PYROLYS
 11457               	Label_START_PYROLYS:
 11458 1e73 0E        		.byte	14
 11459 1e74 F1        		.byte	-15
 11460 1e75 F2        		.byte	-14
 11461 1e76 E0        		.byte	-32
 11462 1e77 F0        		.byte	-16
 11463 1e78 F2        		.byte	-14
 11464 1e79 E0        		.byte	-32
 11465 1e7a 20        		.byte	32
 11466 1e7b EF        		.byte	-17
 11467 1e7c E8        		.byte	-24
 11468 1e7d F0        		.byte	-16
 11469 1e7e EE        		.byte	-18
 11470 1e7f EB        		.byte	-21
 11471 1e80 E8        		.byte	-24
 11472 1e81 E7        		.byte	-25
 11473               	.global	Label_FULL_PYROLYS
 11476               	Label_FULL_PYROLYS:
 11477 1e82 0E        		.byte	14
 11478 1e83 EF        		.byte	-17
 11479 1e84 EE        		.byte	-18
 11480 1e85 EB        		.byte	-21
 11481 1e86 ED        		.byte	-19
 11482 1e87 FB        		.byte	-5
 11483 1e88 E9        		.byte	-23
 11484 1e89 20        		.byte	32
 11485 1e8a EF        		.byte	-17
 11486 1e8b E8        		.byte	-24
 11487 1e8c F0        		.byte	-16
 11488 1e8d EE        		.byte	-18
 11489 1e8e EB        		.byte	-21
 11490 1e8f E8        		.byte	-24
 11491 1e90 E7        		.byte	-25
 11492               	.global	Label_RAZN_TEMP
 11495               	Label_RAZN_TEMP:
 11496 1e91 0E        		.byte	14
 11497 1e92 D0        		.byte	-48
 11498 1e93 E0        		.byte	-32
 11499 1e94 E7        		.byte	-25
 11500 1e95 ED        		.byte	-19
 11501 1e96 EE        		.byte	-18
 11502 1e97 F1        		.byte	-15
 11503 1e98 F2        		.byte	-14
 11504 1e99 FC        		.byte	-4
 11505 1e9a 20        		.byte	32
 11506 1e9b F2        		.byte	-14
 11507 1e9c E5        		.byte	-27
 11508 1e9d EC        		.byte	-20
 11509 1e9e EF        		.byte	-17
 11510 1e9f 2E        		.byte	46
 11511               	.global	Label_SHUTDOWN
 11514               	Label_SHUTDOWN:
 11515 1ea0 0E        		.byte	14
 11516 1ea1 E2        		.byte	-30
 11517 1ea2 FB        		.byte	-5
 11518 1ea3 EA        		.byte	-22
 11519 1ea4 EB        		.byte	-21
 11520 1ea5 FE        		.byte	-2
 11521 1ea6 F7        		.byte	-9
 11522 1ea7 E5        		.byte	-27
 11523 1ea8 ED        		.byte	-19
 11524 1ea9 E8        		.byte	-24
 11525 1eaa FF        		.byte	-1
 11526 1eab 20        		.byte	32
 11527 1eac E0        		.byte	-32
 11528 1ead E2        		.byte	-30
 11529 1eae F2        		.byte	-14
 11530               	.global	Label_PWM_START
 11533               	Label_PWM_START:
 11534 1eaf 0C        		.byte	12
 11535 1eb0 CC        		.byte	-52
 11536 1eb1 EE        		.byte	-18
 11537 1eb2 F9        		.byte	-7
 11538 1eb3 ED        		.byte	-19
 11539 1eb4 2E        		.byte	46
 11540 1eb5 20        		.byte	32
 11541 1eb6 F1        		.byte	-15
 11542 1eb7 F2        		.byte	-14
 11543 1eb8 E0        		.byte	-32
 11544 1eb9 F0        		.byte	-16
 11545 1eba F2        		.byte	-14
 11546 1ebb E0        		.byte	-32
 11547               	.global	Label_FAN
 11550               	Label_FAN:
 11551 1ebc 0C        		.byte	12
 11552 1ebd E2        		.byte	-30
 11553 1ebe E5        		.byte	-27
 11554 1ebf ED        		.byte	-19
 11555 1ec0 F2        		.byte	-14
 11556 1ec1 E8        		.byte	-24
 11557 1ec2 EB        		.byte	-21
 11558 1ec3 FF        		.byte	-1
 11559 1ec4 F2        		.byte	-14
 11560 1ec5 EE        		.byte	-18
 11561 1ec6 F0        		.byte	-16
 11562 1ec7 E0        		.byte	-32
 11563 1ec8 20        		.byte	32
 11564               	.global	Label_TIME_START
 11567               	Label_TIME_START:
 11568 1ec9 0D        		.byte	13
 11569 1eca C2        		.byte	-62
 11570 1ecb F0        		.byte	-16
 11571 1ecc E5        		.byte	-27
 11572 1ecd EC        		.byte	-20
 11573 1ece FF        		.byte	-1
 11574 1ecf 20        		.byte	32
 11575 1ed0 F0        		.byte	-16
 11576 1ed1 E0        		.byte	-32
 11577 1ed2 E7        		.byte	-25
 11578 1ed3 E3        		.byte	-29
 11579 1ed4 EE        		.byte	-18
 11580 1ed5 ED        		.byte	-19
 11581 1ed6 E0        		.byte	-32
 11582               	.global	Label_TIME_STOP
 11585               	Label_TIME_STOP:
 11586 1ed7 0E        		.byte	14
 11587 1ed8 C2        		.byte	-62
 11588 1ed9 F0        		.byte	-16
 11589 1eda E5        		.byte	-27
 11590 1edb EC        		.byte	-20
 11591 1edc FF        		.byte	-1
 11592 1edd 20        		.byte	32
 11593 1ede EE        		.byte	-18
 11594 1edf F1        		.byte	-15
 11595 1ee0 F2        		.byte	-14
 11596 1ee1 E0        		.byte	-32
 11597 1ee2 ED        		.byte	-19
 11598 1ee3 EE        		.byte	-18
 11599 1ee4 E2        		.byte	-30
 11600 1ee5 2E        		.byte	46
 11601               	.global	Label_MIN
 11604               	Label_MIN:
 11605 1ee6 03        		.byte	3
 11606 1ee7 EC        		.byte	-20
 11607 1ee8 E8        		.byte	-24
 11608 1ee9 ED        		.byte	-19
 11609               		.comm DS_TempData,9,1
 11610               		.comm DS_Temp,4,1
 11611               		.comm LED_LIGTH,1,1
 11612               		.comm SETVAL_TEMP_ROOM,1,1
 11613               		.comm SETVAL_DELTA_TEMP_ROOM,1,1
 11614               		.comm SETVAL_TEMP_TOP_OVEN,1,1
 11615               		.comm SETVAL_DELTA_TEMP_TOP_OVEN,1,1
 11616               		.comm SETVAL_TEMP_PYROLYS_START,2,1
 11617               		.comm SETVAL_TEMP_PYROLYS_FULL,2,1
 11618               		.comm SETVAL_DELTA_TEMP_SHUTDOWN,1,1
 11619               		.comm SETVAL_PWM_FAN1_START,1,1
 11620               		.comm SETVAL_PWM_FAN2_START,1,1
 11621               		.comm SETVAL_PWM_FAN3_START,1,1
 11622               		.comm SETVAL_M1_START_PERIOD,1,1
 11623               		.comm SETVAL_M1_STOP_PERIOD,1,1
 11624               	.global __do_clear_bss
DEFINED SYMBOLS
                            *ABS*:00000000 main.c
C:\Users\9E8E~1\AppData\Local\Temp/ccrJWyWV.s:2      *ABS*:0000003f __SREG__
C:\Users\9E8E~1\AppData\Local\Temp/ccrJWyWV.s:3      *ABS*:0000003e __SP_H__
C:\Users\9E8E~1\AppData\Local\Temp/ccrJWyWV.s:4      *ABS*:0000003d __SP_L__
C:\Users\9E8E~1\AppData\Local\Temp/ccrJWyWV.s:5      *ABS*:00000034 __CCP__
C:\Users\9E8E~1\AppData\Local\Temp/ccrJWyWV.s:6      *ABS*:00000000 __tmp_reg__
C:\Users\9E8E~1\AppData\Local\Temp/ccrJWyWV.s:7      *ABS*:00000001 __zero_reg__
C:\Users\9E8E~1\AppData\Local\Temp/ccrJWyWV.s:11     .text:00000000 CalculateCoefficients
                            *COM*:00000001 SETVAL_PWM_FAN1_START
C:\Users\9E8E~1\AppData\Local\Temp/ccrJWyWV.s:11170  .bss:0000001a ui8_PWM1_Start_Discret
                            *COM*:00000001 SETVAL_M1_START_PERIOD
C:\Users\9E8E~1\AppData\Local\Temp/ccrJWyWV.s:11188  .bss:0000001d dbl_PWM1_Step_Start_Discret
                            *COM*:00000001 SETVAL_M1_STOP_PERIOD
C:\Users\9E8E~1\AppData\Local\Temp/ccrJWyWV.s:11194  .bss:00000021 dbl_PWM1_Step_Stop_Discret
                            *COM*:00000001 SETVAL_PWM_FAN2_START
C:\Users\9E8E~1\AppData\Local\Temp/ccrJWyWV.s:11176  .bss:0000001b ui8_PWM2_Start_Discret
C:\Users\9E8E~1\AppData\Local\Temp/ccrJWyWV.s:11200  .bss:00000025 dbl_PWM2_Step_Discret
                            *COM*:00000001 SETVAL_PWM_FAN3_START
C:\Users\9E8E~1\AppData\Local\Temp/ccrJWyWV.s:11182  .bss:0000001c ui8_PWM3_Start_Discret
                            *COM*:00000002 SETVAL_TEMP_PYROLYS_FULL
                            *COM*:00000002 SETVAL_TEMP_PYROLYS_START
C:\Users\9E8E~1\AppData\Local\Temp/ccrJWyWV.s:11206  .bss:00000029 dbl_PWM3_Step_Discret
C:\Users\9E8E~1\AppData\Local\Temp/ccrJWyWV.s:229    .text:0000021c __vector_7
C:\Users\9E8E~1\AppData\Local\Temp/ccrJWyWV.s:11068  .bss:00000000 STATUS
C:\Users\9E8E~1\AppData\Local\Temp/ccrJWyWV.s:253    .text:00000242 __vector_5
C:\Users\9E8E~1\AppData\Local\Temp/ccrJWyWV.s:11080  .bss:00000002 CountMUL_BTN_WAIT
C:\Users\9E8E~1\AppData\Local\Temp/ccrJWyWV.s:283    .text:00000278 init
                            *COM*:00000001 LED_LIGTH
C:\Users\9E8E~1\AppData\Local\Temp/ccrJWyWV.s:354    .text:000002ee LCD_sendByte
C:\Users\9E8E~1\AppData\Local\Temp/ccrJWyWV.s:388    .text:00000318 LCD_gotoXY
C:\Users\9E8E~1\AppData\Local\Temp/ccrJWyWV.s:406    .text:00000332 LCD_clear
C:\Users\9E8E~1\AppData\Local\Temp/ccrJWyWV.s:441    .text:00000368 LCD_init
C:\Users\9E8E~1\AppData\Local\Temp/ccrJWyWV.s:493    .text:000003b8 LCD_OutChar6x8
C:\Users\9E8E~1\AppData\Local\Temp/ccrJWyWV.s:3378   .progmem.data:00000000 Font_6x8_Data
C:\Users\9E8E~1\AppData\Local\Temp/ccrJWyWV.s:528    .text:000003e6 LCD_OutString6x8
C:\Users\9E8E~1\AppData\Local\Temp/ccrJWyWV.s:570    .text:00000416 LCD_OutChar12x16
C:\Users\9E8E~1\AppData\Local\Temp/ccrJWyWV.s:4918   .progmem.data:00000600 Font_12x16_Data
C:\Users\9E8E~1\AppData\Local\Temp/ccrJWyWV.s:648    .text:00000494 LCD_OutString12x16
C:\Users\9E8E~1\AppData\Local\Temp/ccrJWyWV.s:700    .text:000004d8 LCD_OutNumber12x16
C:\Users\9E8E~1\AppData\Local\Temp/ccrJWyWV.s:761    .text:00000548 LCD_OutBigNumber12x16
C:\Users\9E8E~1\AppData\Local\Temp/ccrJWyWV.s:904    .text:00000660 ReadMAX6675
C:\Users\9E8E~1\AppData\Local\Temp/ccrJWyWV.s:11104  .bss:00000006 STATUS_TC1
C:\Users\9E8E~1\AppData\Local\Temp/ccrJWyWV.s:11116  .bss:00000009 STATUS_TC2
C:\Users\9E8E~1\AppData\Local\Temp/ccrJWyWV.s:11110  .bss:00000007 VALUE_TC1
C:\Users\9E8E~1\AppData\Local\Temp/ccrJWyWV.s:11122  .bss:0000000a VALUE_TC2
C:\Users\9E8E~1\AppData\Local\Temp/ccrJWyWV.s:983    .text:000006ea OutMenuToLCD
C:\Users\9E8E~1\AppData\Local\Temp/ccrJWyWV.s:11376  .progmem.data:00001e36 LabelSetting
C:\Users\9E8E~1\AppData\Local\Temp/ccrJWyWV.s:11086  .bss:00000003 MENU
C:\Users\9E8E~1\AppData\Local\Temp/ccrJWyWV.s:11390  .progmem.data:00001e40 Label_TEMP
C:\Users\9E8E~1\AppData\Local\Temp/ccrJWyWV.s:11406  .progmem.data:00001e4c Label_ROOM
                            *COM*:00000001 SETVAL_TEMP_ROOM
C:\Users\9E8E~1\AppData\Local\Temp/ccrJWyWV.s:11420  .progmem.data:00001e56 Label_DELTA_TEMP
                            *COM*:00000001 SETVAL_DELTA_TEMP_ROOM
C:\Users\9E8E~1\AppData\Local\Temp/ccrJWyWV.s:11439  .progmem.data:00001e65 Label_TOP_OVEN
                            *COM*:00000001 SETVAL_TEMP_TOP_OVEN
                            *COM*:00000001 SETVAL_DELTA_TEMP_TOP_OVEN
C:\Users\9E8E~1\AppData\Local\Temp/ccrJWyWV.s:11457  .progmem.data:00001e73 Label_START_PYROLYS
C:\Users\9E8E~1\AppData\Local\Temp/ccrJWyWV.s:11476  .progmem.data:00001e82 Label_FULL_PYROLYS
C:\Users\9E8E~1\AppData\Local\Temp/ccrJWyWV.s:11495  .progmem.data:00001e91 Label_RAZN_TEMP
C:\Users\9E8E~1\AppData\Local\Temp/ccrJWyWV.s:11514  .progmem.data:00001ea0 Label_SHUTDOWN
                            *COM*:00000001 SETVAL_DELTA_TEMP_SHUTDOWN
C:\Users\9E8E~1\AppData\Local\Temp/ccrJWyWV.s:11369  .progmem.data:00001e33 LabelCC
C:\Users\9E8E~1\AppData\Local\Temp/ccrJWyWV.s:11533  .progmem.data:00001eaf Label_PWM_START
C:\Users\9E8E~1\AppData\Local\Temp/ccrJWyWV.s:11550  .progmem.data:00001ebc Label_FAN
C:\Users\9E8E~1\AppData\Local\Temp/ccrJWyWV.s:11567  .progmem.data:00001ec9 Label_TIME_START
C:\Users\9E8E~1\AppData\Local\Temp/ccrJWyWV.s:11585  .progmem.data:00001ed7 Label_TIME_STOP
C:\Users\9E8E~1\AppData\Local\Temp/ccrJWyWV.s:11604  .progmem.data:00001ee6 Label_MIN
C:\Users\9E8E~1\AppData\Local\Temp/ccrJWyWV.s:1288   .text:000009aa ExecuteButton
C:\Users\9E8E~1\AppData\Local\Temp/ccrJWyWV.s:11092  .bss:00000004 CountMUL_MENU_WAIT
C:\Users\9E8E~1\AppData\Local\Temp/ccrJWyWV.s:11074  .bss:00000001 BUTTON
C:\Users\9E8E~1\AppData\Local\Temp/ccrJWyWV.s:1717   .text:00000da2 CalculatePercent
C:\Users\9E8E~1\AppData\Local\Temp/ccrJWyWV.s:1746   .text:00000dd6 OutTemperatureTC
C:\Users\9E8E~1\AppData\Local\Temp/ccrJWyWV.s:11332  .progmem.data:00001e1e LabelUNC
C:\Users\9E8E~1\AppData\Local\Temp/ccrJWyWV.s:11340  .progmem.data:00001e22 LabelBRK
C:\Users\9E8E~1\AppData\Local\Temp/ccrJWyWV.s:11350  .progmem.data:00001e28 LabelOVR
C:\Users\9E8E~1\AppData\Local\Temp/ccrJWyWV.s:11359  .progmem.data:00001e2d LabelERR
C:\Users\9E8E~1\AppData\Local\Temp/ccrJWyWV.s:1835   .text:00000e74 OutTemperatureDS
                            *COM*:00000004 DS_Temp
C:\Users\9E8E~1\AppData\Local\Temp/ccrJWyWV.s:11098  .bss:00000005 STATUS_DS
C:\Users\9E8E~1\AppData\Local\Temp/ccrJWyWV.s:1942   .text:00000f68 OutUI8_6x8
C:\Users\9E8E~1\AppData\Local\Temp/ccrJWyWV.s:1988   .text:00000fba OutInfoToLCD
C:\Users\9E8E~1\AppData\Local\Temp/ccrJWyWV.s:11278  .progmem.data:00001e00 LabelT1
C:\Users\9E8E~1\AppData\Local\Temp/ccrJWyWV.s:11287  .progmem.data:00001e05 LabelT2
C:\Users\9E8E~1\AppData\Local\Temp/ccrJWyWV.s:11296  .progmem.data:00001e0a LabelT3
C:\Users\9E8E~1\AppData\Local\Temp/ccrJWyWV.s:11305  .progmem.data:00001e0f LabelM1
C:\Users\9E8E~1\AppData\Local\Temp/ccrJWyWV.s:11128  .bss:0000000c ui8_PWM1_LEVEL
C:\Users\9E8E~1\AppData\Local\Temp/ccrJWyWV.s:11314  .progmem.data:00001e14 LabelM2
C:\Users\9E8E~1\AppData\Local\Temp/ccrJWyWV.s:11134  .bss:0000000d ui8_PWM2_LEVEL
C:\Users\9E8E~1\AppData\Local\Temp/ccrJWyWV.s:11323  .progmem.data:00001e19 LabelM3
C:\Users\9E8E~1\AppData\Local\Temp/ccrJWyWV.s:11140  .bss:0000000e ui8_PWM3_LEVEL
C:\Users\9E8E~1\AppData\Local\Temp/ccrJWyWV.s:2058   .text:0000107c CheckButton
C:\Users\9E8E~1\AppData\Local\Temp/ccrJWyWV.s:2105   .text:000010e6 DS18B20_init
C:\Users\9E8E~1\AppData\Local\Temp/ccrJWyWV.s:2163   .text:00001126 DS18B20_send
C:\Users\9E8E~1\AppData\Local\Temp/ccrJWyWV.s:2213   .text:0000115c DS_calcCRC8
C:\Users\9E8E~1\AppData\Local\Temp/ccrJWyWV.s:2243   .text:00001182 DS18B20_read
                            *COM*:00000009 DS_TempData
C:\Users\9E8E~1\AppData\Local\Temp/ccrJWyWV.s:2279   .text:000011bc DS18B20_SetResolution
C:\Users\9E8E~1\AppData\Local\Temp/ccrJWyWV.s:2306   .text:000011f6 DS18B20_convertTemp
C:\Users\9E8E~1\AppData\Local\Temp/ccrJWyWV.s:2323   .text:00001212 DS18B20_getTemp
C:\Users\9E8E~1\AppData\Local\Temp/ccrJWyWV.s:2417   .text:000012f6 PWM_sendByte
C:\Users\9E8E~1\AppData\Local\Temp/ccrJWyWV.s:2472   .text:0000132e PWM_send
C:\Users\9E8E~1\AppData\Local\Temp/ccrJWyWV.s:2500   .text:00001356 Work_T3_M3
C:\Users\9E8E~1\AppData\Local\Temp/ccrJWyWV.s:2634   .text:00001492 Work_T12_M12
C:\Users\9E8E~1\AppData\Local\Temp/ccrJWyWV.s:11158  .bss:00000017 ui8_M12_STATUS
C:\Users\9E8E~1\AppData\Local\Temp/ccrJWyWV.s:11146  .bss:0000000f dbl_PWM1_LEVEL
C:\Users\9E8E~1\AppData\Local\Temp/ccrJWyWV.s:11164  .bss:00000018 ui16_M12_CNT
C:\Users\9E8E~1\AppData\Local\Temp/ccrJWyWV.s:11152  .bss:00000013 dbl_PWM2_LEVEL
C:\Users\9E8E~1\AppData\Local\Temp/ccrJWyWV.s:3119   .text:000019cc UpdateValuesFromEEPROM
C:\Users\9E8E~1\AppData\Local\Temp/ccrJWyWV.s:11212  .eeprom:00000000 EE_LED_LIGTH
C:\Users\9E8E~1\AppData\Local\Temp/ccrJWyWV.s:11217  .eeprom:00000001 EE_SETVAL_TEMP_ROOM
C:\Users\9E8E~1\AppData\Local\Temp/ccrJWyWV.s:11222  .eeprom:00000002 EE_SETVAL_DELTA_TEMP_ROOM
C:\Users\9E8E~1\AppData\Local\Temp/ccrJWyWV.s:11227  .eeprom:00000003 EE_SETVAL_TEMP_TOP_OVEN
C:\Users\9E8E~1\AppData\Local\Temp/ccrJWyWV.s:11232  .eeprom:00000004 EE_SETVAL_DELTA_TEMP_TOP_OVEN
C:\Users\9E8E~1\AppData\Local\Temp/ccrJWyWV.s:11237  .eeprom:00000005 EE_SETVAL_TEMP_PYROLYS_START
C:\Users\9E8E~1\AppData\Local\Temp/ccrJWyWV.s:11242  .eeprom:00000007 EE_SETVAL_TEMP_PYROLYS_FULL
C:\Users\9E8E~1\AppData\Local\Temp/ccrJWyWV.s:11247  .eeprom:00000009 EE_SETVAL_DELTA_TEMP_SHUTDOWN
C:\Users\9E8E~1\AppData\Local\Temp/ccrJWyWV.s:11252  .eeprom:0000000a EE_SETVAL_PWM_FAN1_START
C:\Users\9E8E~1\AppData\Local\Temp/ccrJWyWV.s:11257  .eeprom:0000000b EE_SETVAL_PWM_FAN2_START
C:\Users\9E8E~1\AppData\Local\Temp/ccrJWyWV.s:11262  .eeprom:0000000c EE_SETVAL_PWM_FAN3_START
C:\Users\9E8E~1\AppData\Local\Temp/ccrJWyWV.s:11267  .eeprom:0000000d EE_SETVAL_M1_START_PERIOD
C:\Users\9E8E~1\AppData\Local\Temp/ccrJWyWV.s:11272  .eeprom:0000000e EE_SETVAL_M1_STOP_PERIOD
C:\Users\9E8E~1\AppData\Local\Temp/ccrJWyWV.s:3181   .text:00001a72 LoadValuesFromEEPROM
C:\Users\9E8E~1\AppData\Local\Temp/ccrJWyWV.s:3243   .text:00001b18 main

UNDEFINED SYMBOLS
__floatsisf
__mulsf3
__divsf3
__fixunssfsi
__subsf3
__floatunsisf
__udivmodqi4
__udivmodhi4
__addsf3
__gtsf2
__gesf2
__eeupd_byte_m32
__eeupd_word_m32
__eerd_byte_m32
__eerd_word_m32
__do_clear_bss
