   1               		.file	"main.c"
   2               	__SREG__ = 0x3f
   3               	__SP_H__ = 0x3e
   4               	__SP_L__ = 0x3d
   5               	__CCP__  = 0x34
   6               	__tmp_reg__ = 0
   7               	__zero_reg__ = 1
   8               		.text
   9               	.global	CalculateCoefficients
  11               	CalculateCoefficients:
  12 0000 8F92      		push r8
  13 0002 9F92      		push r9
  14 0004 AF92      		push r10
  15 0006 BF92      		push r11
  16 0008 CF92      		push r12
  17 000a DF92      		push r13
  18 000c EF92      		push r14
  19 000e FF92      		push r15
  20 0010 0F93      		push r16
  21 0012 1F93      		push r17
  22               	/* prologue: function */
  23               	/* frame size = 0 */
  24 0014 6091 0000 		lds r22,SETVAL_PWM_FAN1_START
  25 0018 70E0      		ldi r23,lo8(0)
  26 001a 8827      		clr r24
  27 001c 77FD      		sbrc r23,7
  28 001e 8095      		com r24
  29 0020 982F      		mov r25,r24
  30 0022 0E94 0000 		call __floatsisf
  31 0026 20E0      		ldi r18,lo8(0x437f0000)
  32 0028 30E0      		ldi r19,hi8(0x437f0000)
  33 002a 4FE7      		ldi r20,hlo8(0x437f0000)
  34 002c 53E4      		ldi r21,hhi8(0x437f0000)
  35 002e 0E94 0000 		call __mulsf3
  36 0032 20E0      		ldi r18,lo8(0x42c80000)
  37 0034 30E0      		ldi r19,hi8(0x42c80000)
  38 0036 48EC      		ldi r20,hlo8(0x42c80000)
  39 0038 52E4      		ldi r21,hhi8(0x42c80000)
  40 003a 0E94 0000 		call __divsf3
  41 003e 0E94 0000 		call __fixunssfsi
  42 0042 6093 0000 		sts PWM1_Start_Discret,r22
  43 0046 6091 0000 		lds r22,PWM1_Start_Discret
  44 004a 70E0      		ldi r23,lo8(0)
  45 004c 8827      		clr r24
  46 004e 77FD      		sbrc r23,7
  47 0050 8095      		com r24
  48 0052 982F      		mov r25,r24
  49 0054 0E94 0000 		call __floatsisf
  50 0058 9B01      		movw r18,r22
  51 005a AC01      		movw r20,r24
  52 005c 60E0      		ldi r22,lo8(0x437f0000)
  53 005e 70E0      		ldi r23,hi8(0x437f0000)
  54 0060 8FE7      		ldi r24,hlo8(0x437f0000)
  55 0062 93E4      		ldi r25,hhi8(0x437f0000)
  56 0064 0E94 0000 		call __subsf3
  57 0068 20E0      		ldi r18,lo8(0x41f00000)
  58 006a 30E0      		ldi r19,hi8(0x41f00000)
  59 006c 40EF      		ldi r20,hlo8(0x41f00000)
  60 006e 51E4      		ldi r21,hhi8(0x41f00000)
  61 0070 0E94 0000 		call __divsf3
  62 0074 0E94 0000 		call __fixunssfsi
  63 0078 70E0      		ldi r23,lo8(0)
  64 007a 80E0      		ldi r24,lo8(0)
  65 007c 90E0      		ldi r25,hi8(0)
  66 007e 0E94 0000 		call __floatunsisf
  67 0082 6093 0000 		sts PWM1_Step_Discret,r22
  68 0086 7093 0000 		sts (PWM1_Step_Discret)+1,r23
  69 008a 8093 0000 		sts (PWM1_Step_Discret)+2,r24
  70 008e 9093 0000 		sts (PWM1_Step_Discret)+3,r25
  71 0092 6091 0000 		lds r22,SETVAL_PWM_FAN2_START
  72 0096 70E0      		ldi r23,lo8(0)
  73 0098 8827      		clr r24
  74 009a 77FD      		sbrc r23,7
  75 009c 8095      		com r24
  76 009e 982F      		mov r25,r24
  77 00a0 0E94 0000 		call __floatsisf
  78 00a4 20E0      		ldi r18,lo8(0x437f0000)
  79 00a6 30E0      		ldi r19,hi8(0x437f0000)
  80 00a8 4FE7      		ldi r20,hlo8(0x437f0000)
  81 00aa 53E4      		ldi r21,hhi8(0x437f0000)
  82 00ac 0E94 0000 		call __mulsf3
  83 00b0 20E0      		ldi r18,lo8(0x42c80000)
  84 00b2 30E0      		ldi r19,hi8(0x42c80000)
  85 00b4 48EC      		ldi r20,hlo8(0x42c80000)
  86 00b6 52E4      		ldi r21,hhi8(0x42c80000)
  87 00b8 0E94 0000 		call __divsf3
  88 00bc 0E94 0000 		call __fixunssfsi
  89 00c0 6093 0000 		sts PWM2_Start_Discret,r22
  90 00c4 6091 0000 		lds r22,PWM2_Start_Discret
  91 00c8 70E0      		ldi r23,lo8(0)
  92 00ca 8827      		clr r24
  93 00cc 77FD      		sbrc r23,7
  94 00ce 8095      		com r24
  95 00d0 982F      		mov r25,r24
  96 00d2 0E94 0000 		call __floatsisf
  97 00d6 9B01      		movw r18,r22
  98 00d8 AC01      		movw r20,r24
  99 00da 60E0      		ldi r22,lo8(0x437f0000)
 100 00dc 70E0      		ldi r23,hi8(0x437f0000)
 101 00de 8FE7      		ldi r24,hlo8(0x437f0000)
 102 00e0 93E4      		ldi r25,hhi8(0x437f0000)
 103 00e2 0E94 0000 		call __subsf3
 104 00e6 20E0      		ldi r18,lo8(0x41f00000)
 105 00e8 30E0      		ldi r19,hi8(0x41f00000)
 106 00ea 40EF      		ldi r20,hlo8(0x41f00000)
 107 00ec 51E4      		ldi r21,hhi8(0x41f00000)
 108 00ee 0E94 0000 		call __divsf3
 109 00f2 0E94 0000 		call __fixunssfsi
 110 00f6 70E0      		ldi r23,lo8(0)
 111 00f8 80E0      		ldi r24,lo8(0)
 112 00fa 90E0      		ldi r25,hi8(0)
 113 00fc 0E94 0000 		call __floatunsisf
 114 0100 6093 0000 		sts PWM2_Step_Discret,r22
 115 0104 7093 0000 		sts (PWM2_Step_Discret)+1,r23
 116 0108 8093 0000 		sts (PWM2_Step_Discret)+2,r24
 117 010c 9093 0000 		sts (PWM2_Step_Discret)+3,r25
 118 0110 6091 0000 		lds r22,SETVAL_PWM_FAN3_START
 119 0114 70E0      		ldi r23,lo8(0)
 120 0116 8827      		clr r24
 121 0118 77FD      		sbrc r23,7
 122 011a 8095      		com r24
 123 011c 982F      		mov r25,r24
 124 011e 0E94 0000 		call __floatsisf
 125 0122 20E0      		ldi r18,lo8(0x437f0000)
 126 0124 30E0      		ldi r19,hi8(0x437f0000)
 127 0126 4FE7      		ldi r20,hlo8(0x437f0000)
 128 0128 53E4      		ldi r21,hhi8(0x437f0000)
 129 012a 0E94 0000 		call __mulsf3
 130 012e 20E0      		ldi r18,lo8(0x42c80000)
 131 0130 30E0      		ldi r19,hi8(0x42c80000)
 132 0132 48EC      		ldi r20,hlo8(0x42c80000)
 133 0134 52E4      		ldi r21,hhi8(0x42c80000)
 134 0136 0E94 0000 		call __divsf3
 135 013a 0E94 0000 		call __fixunssfsi
 136 013e 6093 0000 		sts PWM3_Start_Discret,r22
 137 0142 6091 0000 		lds r22,PWM3_Start_Discret
 138 0146 E090 0000 		lds r14,SETVAL_TEMP_PYROLYS_FULL
 139 014a F090 0000 		lds r15,(SETVAL_TEMP_PYROLYS_FULL)+1
 140 014e 8090 0000 		lds r8,SETVAL_TEMP_PYROLYS_START
 141 0152 9090 0000 		lds r9,(SETVAL_TEMP_PYROLYS_START)+1
 142 0156 70E0      		ldi r23,lo8(0)
 143 0158 8827      		clr r24
 144 015a 77FD      		sbrc r23,7
 145 015c 8095      		com r24
 146 015e 982F      		mov r25,r24
 147 0160 0E94 0000 		call __floatsisf
 148 0164 9B01      		movw r18,r22
 149 0166 AC01      		movw r20,r24
 150 0168 60E0      		ldi r22,lo8(0x437f0000)
 151 016a 70E0      		ldi r23,hi8(0x437f0000)
 152 016c 8FE7      		ldi r24,hlo8(0x437f0000)
 153 016e 93E4      		ldi r25,hhi8(0x437f0000)
 154 0170 0E94 0000 		call __subsf3
 155 0174 5B01      		movw r10,r22
 156 0176 6C01      		movw r12,r24
 157 0178 E818      		sub r14,r8
 158 017a F908      		sbc r15,r9
 159 017c 00E0      		ldi r16,lo8(0)
 160 017e 10E0      		ldi r17,hi8(0)
 161 0180 C801      		movw r24,r16
 162 0182 B701      		movw r22,r14
 163 0184 0E94 0000 		call __floatunsisf
 164 0188 9B01      		movw r18,r22
 165 018a AC01      		movw r20,r24
 166 018c C601      		movw r24,r12
 167 018e B501      		movw r22,r10
 168 0190 0E94 0000 		call __divsf3
 169 0194 6093 0000 		sts PWM3_Step_Discret,r22
 170 0198 7093 0000 		sts (PWM3_Step_Discret)+1,r23
 171 019c 8093 0000 		sts (PWM3_Step_Discret)+2,r24
 172 01a0 9093 0000 		sts (PWM3_Step_Discret)+3,r25
 173 01a4 1092 0000 		sts M1_begin_start_on_step,__zero_reg__
 174 01a8 8091 0000 		lds r24,M1_begin_start_on_step
 175 01ac 825E      		subi r24,lo8(-(30))
 176 01ae 8093 0000 		sts M1_end_start_on_step,r24
 177 01b2 8091 0000 		lds r24,M1_end_start_on_step
 178 01b6 825E      		subi r24,lo8(-(30))
 179 01b8 8093 0000 		sts M2_begin_start_on_step,r24
 180 01bc 8091 0000 		lds r24,M2_begin_start_on_step
 181 01c0 825E      		subi r24,lo8(-(30))
 182 01c2 8093 0000 		sts M2_end_start_on_step,r24
 183 01c6 8FE0      		ldi r24,lo8(15)
 184 01c8 8093 0000 		sts M1_stop_on_step,r24
 185               	/* epilogue start */
 186 01cc 1F91      		pop r17
 187 01ce 0F91      		pop r16
 188 01d0 FF90      		pop r15
 189 01d2 EF90      		pop r14
 190 01d4 DF90      		pop r13
 191 01d6 CF90      		pop r12
 192 01d8 BF90      		pop r11
 193 01da AF90      		pop r10
 194 01dc 9F90      		pop r9
 195 01de 8F90      		pop r8
 196 01e0 0895      		ret
 198               	.global	__vector_7
 200               	__vector_7:
 201 01e2 1F92      		push __zero_reg__
 202 01e4 0F92      		push r0
 203 01e6 0FB6      		in r0,__SREG__
 204 01e8 0F92      		push r0
 205 01ea 1124      		clr __zero_reg__
 206 01ec 8F93      		push r24
 207               	/* prologue: Signal */
 208               	/* frame size = 0 */
 209 01ee 1DBC      		out 77-32,__zero_reg__
 210 01f0 1CBC      		out 76-32,__zero_reg__
 211 01f2 8091 0000 		lds r24,STATUS
 212 01f6 8160      		ori r24,lo8(1)
 213 01f8 8093 0000 		sts STATUS,r24
 214               	/* epilogue start */
 215 01fc 8F91      		pop r24
 216 01fe 0F90      		pop r0
 217 0200 0FBE      		out __SREG__,r0
 218 0202 0F90      		pop r0
 219 0204 1F90      		pop __zero_reg__
 220 0206 1895      		reti
 222               	.global	__vector_5
 224               	__vector_5:
 225 0208 1F92      		push __zero_reg__
 226 020a 0F92      		push r0
 227 020c 0FB6      		in r0,__SREG__
 228 020e 0F92      		push r0
 229 0210 1124      		clr __zero_reg__
 230 0212 8F93      		push r24
 231               	/* prologue: Signal */
 232               	/* frame size = 0 */
 233 0214 8091 0000 		lds r24,CountMUL_BTN_WAIT
 234 0218 8150      		subi r24,lo8(-(-1))
 235 021a 8093 0000 		sts CountMUL_BTN_WAIT,r24
 236 021e 8091 0000 		lds r24,CountMUL_BTN_WAIT
 237 0222 8823      		tst r24
 238 0224 01F4      		brne .L7
 239 0226 15BC      		out 69-32,__zero_reg__
 240 0228 8091 0000 		lds r24,STATUS
 241 022c 8B7F      		andi r24,lo8(-5)
 242 022e 8093 0000 		sts STATUS,r24
 243               	.L7:
 244               	/* epilogue start */
 245 0232 8F91      		pop r24
 246 0234 0F90      		pop r0
 247 0236 0FBE      		out __SREG__,r0
 248 0238 0F90      		pop r0
 249 023a 1F90      		pop __zero_reg__
 250 023c 1895      		reti
 252               	.global	init
 254               	init:
 255               	/* prologue: function */
 256               	/* frame size = 0 */
 257 023e 479A      		sbi 40-32,7
 258 0240 8AB3      		in r24,58-32
 259 0242 8C60      		ori r24,lo8(12)
 260 0244 8ABB      		out 58-32,r24
 261 0246 D698      		cbi 58-32,6
 262 0248 8BB3      		in r24,59-32
 263 024a 837B      		andi r24,lo8(-77)
 264 024c 8BBB      		out 59-32,r24
 265 024e BB9A      		sbi 55-32,3
 266 0250 C398      		cbi 56-32,3
 267 0252 84B3      		in r24,52-32
 268 0254 806E      		ori r24,lo8(-32)
 269 0256 84BB      		out 52-32,r24
 270 0258 84B3      		in r24,52-32
 271 025a 887E      		andi r24,lo8(-24)
 272 025c 84BB      		out 52-32,r24
 273 025e 85B3      		in r24,53-32
 274 0260 8766      		ori r24,lo8(103)
 275 0262 85BB      		out 53-32,r24
 276 0264 85B3      		in r24,53-32
 277 0266 8F76      		andi r24,lo8(111)
 278 0268 85BB      		out 53-32,r24
 279 026a 81B3      		in r24,49-32
 280 026c 8F61      		ori r24,lo8(31)
 281 026e 81BB      		out 49-32,r24
 282 0270 82B3      		in r24,50-32
 283 0272 8861      		ori r24,lo8(24)
 284 0274 82BB      		out 50-32,r24
 285 0276 82B3      		in r24,50-32
 286 0278 887F      		andi r24,lo8(-8)
 287 027a 82BB      		out 50-32,r24
 288 027c 8091 0000 		lds r24,LED_LIGTH
 289 0280 8823      		tst r24
 290 0282 01F0      		breq .L9
 291 0284 9698      		cbi 50-32,6
 292 0286 00C0      		rjmp .L10
 293               	.L9:
 294 0288 969A      		sbi 50-32,6
 295               	.L10:
 296 028a 8E9A      		sbi 49-32,6
 297 028c 80B7      		in r24,80-32
 298 028e 8360      		ori r24,lo8(3)
 299 0290 80BF      		out 80-32,r24
 300 0292 89B7      		in r24,89-32
 301 0294 8061      		ori r24,lo8(16)
 302 0296 89BF      		out 89-32,r24
 303 0298 1DBC      		out 77-32,__zero_reg__
 304 029a 1CBC      		out 76-32,__zero_reg__
 305 029c 1FBC      		out 79-32,__zero_reg__
 306 029e 84E0      		ldi r24,lo8(4)
 307 02a0 8EBD      		out 78-32,r24
 308 02a2 8AE7      		ldi r24,lo8(122)
 309 02a4 8BBD      		out 75-32,r24
 310 02a6 82E1      		ldi r24,lo8(18)
 311 02a8 8ABD      		out 74-32,r24
 312 02aa 89B7      		in r24,89-32
 313 02ac 8064      		ori r24,lo8(64)
 314 02ae 89BF      		out 89-32,r24
 315               	/* #APP */
 316               	 ;  378 "main.c" 1
 317 02b0 7894      		sei
 318               	 ;  0 "" 2
 319               	/* epilogue start */
 320               	/* #NOAPP */
 321 02b2 0895      		ret
 323               	.global	LCD_sendByte
 325               	LCD_sendByte:
 326               	/* prologue: function */
 327               	/* frame size = 0 */
 328 02b4 6623      		tst r22
 329 02b6 01F4      		brne .L13
 330 02b8 9298      		cbi 50-32,2
 331 02ba 00C0      		rjmp .L14
 332               	.L13:
 333 02bc 929A      		sbi 50-32,2
 334               	.L14:
 335 02be 9398      		cbi 50-32,3
 336 02c0 90E0      		ldi r25,lo8(0)
 337               	.L18:
 338 02c2 87FF      		sbrs r24,7
 339 02c4 00C0      		rjmp .L15
 340 02c6 919A      		sbi 50-32,1
 341 02c8 00C0      		rjmp .L16
 342               	.L15:
 343 02ca 9198      		cbi 50-32,1
 344               	.L16:
 345 02cc 909A      		sbi 50-32,0
 346 02ce 9098      		cbi 50-32,0
 347 02d0 9F5F      		subi r25,lo8(-(1))
 348 02d2 9830      		cpi r25,lo8(8)
 349 02d4 01F0      		breq .L17
 350 02d6 880F      		lsl r24
 351 02d8 00C0      		rjmp .L18
 352               	.L17:
 353 02da 939A      		sbi 50-32,3
 354               	/* epilogue start */
 355 02dc 0895      		ret
 357               	.global	LCD_gotoXY
 359               	LCD_gotoXY:
 360 02de 1F93      		push r17
 361               	/* prologue: function */
 362               	/* frame size = 0 */
 363 02e0 162F      		mov r17,r22
 364 02e2 805C      		subi r24,lo8(-(64))
 365 02e4 60E0      		ldi r22,lo8(0)
 366 02e6 0E94 0000 		call LCD_sendByte
 367 02ea 812F      		mov r24,r17
 368 02ec 8058      		subi r24,lo8(-(-128))
 369 02ee 60E0      		ldi r22,lo8(0)
 370 02f0 0E94 0000 		call LCD_sendByte
 371               	/* epilogue start */
 372 02f4 1F91      		pop r17
 373 02f6 0895      		ret
 375               	.global	LCD_clear
 377               	LCD_clear:
 378 02f8 1F93      		push r17
 379 02fa CF93      		push r28
 380 02fc DF93      		push r29
 381               	/* prologue: function */
 382               	/* frame size = 0 */
 383 02fe 8823      		tst r24
 384 0300 01F4      		brne .L23
 385 0302 10E0      		ldi r17,lo8(0)
 386 0304 00C0      		rjmp .L24
 387               	.L23:
 388 0306 1FEF      		ldi r17,lo8(-1)
 389               	.L24:
 390 0308 80E0      		ldi r24,lo8(0)
 391 030a 60E0      		ldi r22,lo8(0)
 392 030c 0E94 0000 		call LCD_gotoXY
 393 0310 C0E0      		ldi r28,lo8(0)
 394 0312 D0E0      		ldi r29,hi8(0)
 395               	.L25:
 396 0314 812F      		mov r24,r17
 397 0316 61E0      		ldi r22,lo8(1)
 398 0318 0E94 0000 		call LCD_sendByte
 399 031c 2196      		adiw r28,1
 400 031e 81E0      		ldi r24,hi8(504)
 401 0320 C83F      		cpi r28,lo8(504)
 402 0322 D807      		cpc r29,r24
 403 0324 01F4      		brne .L25
 404               	/* epilogue start */
 405 0326 DF91      		pop r29
 406 0328 CF91      		pop r28
 407 032a 1F91      		pop r17
 408 032c 0895      		ret
 410               	.global	LCD_init
 412               	LCD_init:
 413               	/* prologue: function */
 414               	/* frame size = 0 */
 415 032e 8AE1      		ldi r24,lo8(26)
 416 0330 982F      		mov r25,r24
 417               	/* #APP */
 418               	 ;  83 "c:/winavr/lib/gcc/../../avr/include/util/delay_basic.h" 1
 419 0332 9A95      		1: dec r25
 420 0334 01F4      		brne 1b
 421               	 ;  0 "" 2
 422               	/* #NOAPP */
 423 0336 9498      		cbi 50-32,4
 424 0338 E8EC      		ldi r30,lo8(200)
 425 033a F0E0      		ldi r31,hi8(200)
 426               	/* #APP */
 427               	 ;  105 "c:/winavr/lib/gcc/../../avr/include/util/delay_basic.h" 1
 428 033c 3197      		1: sbiw r30,1
 429 033e 01F4      		brne 1b
 430               	 ;  0 "" 2
 431               	/* #NOAPP */
 432 0340 949A      		sbi 50-32,4
 433               	/* #APP */
 434               	 ;  83 "c:/winavr/lib/gcc/../../avr/include/util/delay_basic.h" 1
 435 0342 8A95      		1: dec r24
 436 0344 01F4      		brne 1b
 437               	 ;  0 "" 2
 438               	/* #NOAPP */
 439 0346 81E2      		ldi r24,lo8(33)
 440 0348 60E0      		ldi r22,lo8(0)
 441 034a 0E94 0000 		call LCD_sendByte
 442 034e 83E1      		ldi r24,lo8(19)
 443 0350 60E0      		ldi r22,lo8(0)
 444 0352 0E94 0000 		call LCD_sendByte
 445 0356 84E0      		ldi r24,lo8(4)
 446 0358 60E0      		ldi r22,lo8(0)
 447 035a 0E94 0000 		call LCD_sendByte
 448 035e 88EB      		ldi r24,lo8(-72)
 449 0360 60E0      		ldi r22,lo8(0)
 450 0362 0E94 0000 		call LCD_sendByte
 451 0366 80E2      		ldi r24,lo8(32)
 452 0368 60E0      		ldi r22,lo8(0)
 453 036a 0E94 0000 		call LCD_sendByte
 454 036e 8CE0      		ldi r24,lo8(12)
 455 0370 60E0      		ldi r22,lo8(0)
 456 0372 0E94 0000 		call LCD_sendByte
 457 0376 80E0      		ldi r24,lo8(0)
 458 0378 0E94 0000 		call LCD_clear
 459               	/* epilogue start */
 460 037c 0895      		ret
 462               	.global	LCD_OutChar6x8
 464               	LCD_OutChar6x8:
 465 037e 1F93      		push r17
 466 0380 CF93      		push r28
 467 0382 DF93      		push r29
 468               	/* prologue: function */
 469               	/* frame size = 0 */
 470 0384 96E0      		ldi r25,lo8(6)
 471 0386 899F      		mul r24,r25
 472 0388 E001      		movw r28,r0
 473 038a 1124      		clr r1
 474 038c C050      		subi r28,lo8(-(Font_6x8_Data))
 475 038e D040      		sbci r29,hi8(-(Font_6x8_Data))
 476 0390 10E0      		ldi r17,lo8(0)
 477               	.L31:
 478 0392 FE01      		movw r30,r28
 479               	/* #APP */
 480               	 ;  452 "main.c" 1
 481 0394 8491      		lpm r24, Z
 482               		
 483               	 ;  0 "" 2
 484               	/* #NOAPP */
 485 0396 61E0      		ldi r22,lo8(1)
 486 0398 0E94 0000 		call LCD_sendByte
 487 039c 1F5F      		subi r17,lo8(-(1))
 488 039e 2196      		adiw r28,1
 489 03a0 1630      		cpi r17,lo8(6)
 490 03a2 01F4      		brne .L31
 491               	/* epilogue start */
 492 03a4 DF91      		pop r29
 493 03a6 CF91      		pop r28
 494 03a8 1F91      		pop r17
 495 03aa 0895      		ret
 497               	.global	LCD_OutString6x8
 499               	LCD_OutString6x8:
 500 03ac 0F93      		push r16
 501 03ae 1F93      		push r17
 502 03b0 CF93      		push r28
 503 03b2 DF93      		push r29
 504               	/* prologue: function */
 505               	/* frame size = 0 */
 506 03b4 EC01      		movw r28,r24
 507 03b6 FC01      		movw r30,r24
 508               	/* #APP */
 509               	 ;  456 "main.c" 1
 510 03b8 0491      		lpm r16, Z
 511               		
 512               	 ;  0 "" 2
 513               	/* #NOAPP */
 514 03ba 11E0      		ldi r17,lo8(1)
 515 03bc 00C0      		rjmp .L35
 516               	.L36:
 517 03be FE01      		movw r30,r28
 518 03c0 E10F      		add r30,r17
 519 03c2 F11D      		adc r31,__zero_reg__
 520               	/* #APP */
 521               	 ;  458 "main.c" 1
 522 03c4 E491      		lpm r30, Z
 523               		
 524               	 ;  0 "" 2
 525               	/* #NOAPP */
 526 03c6 8E2F      		mov r24,r30
 527 03c8 0E94 0000 		call LCD_OutChar6x8
 528 03cc 1F5F      		subi r17,lo8(-(1))
 529               	.L35:
 530 03ce 0117      		cp r16,r17
 531 03d0 00F4      		brsh .L36
 532               	/* epilogue start */
 533 03d2 DF91      		pop r29
 534 03d4 CF91      		pop r28
 535 03d6 1F91      		pop r17
 536 03d8 0F91      		pop r16
 537 03da 0895      		ret
 539               	.global	LCD_OutChar12x16
 541               	LCD_OutChar12x16:
 542 03dc DF92      		push r13
 543 03de EF92      		push r14
 544 03e0 FF92      		push r15
 545 03e2 0F93      		push r16
 546 03e4 1F93      		push r17
 547 03e6 CF93      		push r28
 548 03e8 DF93      		push r29
 549               	/* prologue: function */
 550               	/* frame size = 0 */
 551 03ea 182F      		mov r17,r24
 552 03ec 062F      		mov r16,r22
 553 03ee D42E      		mov r13,r20
 554 03f0 862F      		mov r24,r22
 555 03f2 642F      		mov r22,r20
 556 03f4 0E94 0000 		call LCD_gotoXY
 557 03f8 88E1      		ldi r24,lo8(24)
 558 03fa 189F      		mul r17,r24
 559 03fc 7001      		movw r14,r0
 560 03fe 1124      		clr r1
 561 0400 E701      		movw r28,r14
 562 0402 C050      		subi r28,lo8(-(Font_12x16_Data))
 563 0404 D040      		sbci r29,hi8(-(Font_12x16_Data))
 564 0406 10E0      		ldi r17,lo8(0)
 565               	.L39:
 566 0408 FE01      		movw r30,r28
 567               	/* #APP */
 568               	 ;  464 "main.c" 1
 569 040a 8491      		lpm r24, Z
 570               		
 571               	 ;  0 "" 2
 572               	/* #NOAPP */
 573 040c 61E0      		ldi r22,lo8(1)
 574 040e 0E94 0000 		call LCD_sendByte
 575 0412 1F5F      		subi r17,lo8(-(1))
 576 0414 2196      		adiw r28,1
 577 0416 1C30      		cpi r17,lo8(12)
 578 0418 01F4      		brne .L39
 579 041a 802F      		mov r24,r16
 580 041c 8F5F      		subi r24,lo8(-(1))
 581 041e 6D2D      		mov r22,r13
 582 0420 0E94 0000 		call LCD_gotoXY
 583 0424 8701      		movw r16,r14
 584 0426 0050      		subi r16,lo8(-(Font_12x16_Data+12))
 585 0428 1040      		sbci r17,hi8(-(Font_12x16_Data+12))
 586 042a E701      		movw r28,r14
 587 042c 6896      		adiw r28,24
 588 042e C050      		subi r28,lo8(-(Font_12x16_Data))
 589 0430 D040      		sbci r29,hi8(-(Font_12x16_Data))
 590               	.L40:
 591 0432 F801      		movw r30,r16
 592               	/* #APP */
 593               	 ;  466 "main.c" 1
 594 0434 8491      		lpm r24, Z
 595               		
 596               	 ;  0 "" 2
 597               	/* #NOAPP */
 598 0436 61E0      		ldi r22,lo8(1)
 599 0438 0E94 0000 		call LCD_sendByte
 600 043c 0F5F      		subi r16,lo8(-(1))
 601 043e 1F4F      		sbci r17,hi8(-(1))
 602 0440 0C17      		cp r16,r28
 603 0442 1D07      		cpc r17,r29
 604 0444 01F4      		brne .L40
 605 0446 8D2D      		mov r24,r13
 606 0448 845F      		subi r24,lo8(-(12))
 607               	/* epilogue start */
 608 044a DF91      		pop r29
 609 044c CF91      		pop r28
 610 044e 1F91      		pop r17
 611 0450 0F91      		pop r16
 612 0452 FF90      		pop r15
 613 0454 EF90      		pop r14
 614 0456 DF90      		pop r13
 615 0458 0895      		ret
 617               	.global	LCD_OutString12x16
 619               	LCD_OutString12x16:
 620 045a EF92      		push r14
 621 045c FF92      		push r15
 622 045e 0F93      		push r16
 623 0460 1F93      		push r17
 624 0462 CF93      		push r28
 625 0464 DF93      		push r29
 626               	/* prologue: function */
 627               	/* frame size = 0 */
 628 0466 EC01      		movw r28,r24
 629 0468 E62E      		mov r14,r22
 630 046a 042F      		mov r16,r20
 631 046c FC01      		movw r30,r24
 632               	/* #APP */
 633               	 ;  472 "main.c" 1
 634 046e F490      		lpm r15, Z
 635               		
 636               	 ;  0 "" 2
 637               	/* #NOAPP */
 638 0470 11E0      		ldi r17,lo8(1)
 639 0472 00C0      		rjmp .L45
 640               	.L46:
 641 0474 FE01      		movw r30,r28
 642 0476 E10F      		add r30,r17
 643 0478 F11D      		adc r31,__zero_reg__
 644               	/* #APP */
 645               	 ;  474 "main.c" 1
 646 047a E491      		lpm r30, Z
 647               		
 648               	 ;  0 "" 2
 649               	/* #NOAPP */
 650 047c 8E2F      		mov r24,r30
 651 047e 6E2D      		mov r22,r14
 652 0480 402F      		mov r20,r16
 653 0482 0E94 0000 		call LCD_OutChar12x16
 654 0486 045F      		subi r16,lo8(-(12))
 655 0488 1F5F      		subi r17,lo8(-(1))
 656               	.L45:
 657 048a F116      		cp r15,r17
 658 048c 00F4      		brsh .L46
 659 048e 802F      		mov r24,r16
 660               	/* epilogue start */
 661 0490 DF91      		pop r29
 662 0492 CF91      		pop r28
 663 0494 1F91      		pop r17
 664 0496 0F91      		pop r16
 665 0498 FF90      		pop r15
 666 049a EF90      		pop r14
 667 049c 0895      		ret
 669               	.global	LCD_OutNumber12x16
 671               	LCD_OutNumber12x16:
 672 049e FF92      		push r15
 673 04a0 0F93      		push r16
 674 04a2 1F93      		push r17
 675               	/* prologue: function */
 676               	/* frame size = 0 */
 677 04a4 F82E      		mov r15,r24
 678 04a6 062F      		mov r16,r22
 679 04a8 142F      		mov r17,r20
 680 04aa 64E6      		ldi r22,lo8(100)
 681 04ac 0E94 0000 		call __udivmodqi4
 682 04b0 8823      		tst r24
 683 04b2 01F4      		brne .L49
 684 04b4 20E0      		ldi r18,lo8(0)
 685 04b6 00C0      		rjmp .L50
 686               	.L49:
 687 04b8 805D      		subi r24,lo8(-(48))
 688 04ba 602F      		mov r22,r16
 689 04bc 0E94 0000 		call LCD_OutChar12x16
 690 04c0 145F      		subi r17,lo8(-(12))
 691 04c2 21E0      		ldi r18,lo8(1)
 692               	.L50:
 693 04c4 8F2D      		mov r24,r15
 694 04c6 64E6      		ldi r22,lo8(100)
 695 04c8 0E94 0000 		call __udivmodqi4
 696 04cc F92E      		mov r15,r25
 697 04ce 892F      		mov r24,r25
 698 04d0 6AE0      		ldi r22,lo8(10)
 699 04d2 0E94 0000 		call __udivmodqi4
 700 04d6 8823      		tst r24
 701 04d8 01F0      		breq .L51
 702 04da 805D      		subi r24,lo8(-(48))
 703 04dc 00C0      		rjmp .L54
 704               	.L51:
 705 04de 2130      		cpi r18,lo8(1)
 706 04e0 01F4      		brne .L52
 707 04e2 80E3      		ldi r24,lo8(48)
 708               	.L54:
 709 04e4 602F      		mov r22,r16
 710 04e6 412F      		mov r20,r17
 711 04e8 0E94 0000 		call LCD_OutChar12x16
 712 04ec 145F      		subi r17,lo8(-(12))
 713               	.L52:
 714 04ee 8F2D      		mov r24,r15
 715 04f0 6AE0      		ldi r22,lo8(10)
 716 04f2 0E94 0000 		call __udivmodqi4
 717 04f6 892F      		mov r24,r25
 718 04f8 805D      		subi r24,lo8(-(48))
 719 04fa 602F      		mov r22,r16
 720 04fc 412F      		mov r20,r17
 721 04fe 0E94 0000 		call LCD_OutChar12x16
 722 0502 812F      		mov r24,r17
 723 0504 845F      		subi r24,lo8(-(12))
 724               	/* epilogue start */
 725 0506 1F91      		pop r17
 726 0508 0F91      		pop r16
 727 050a FF90      		pop r15
 728 050c 0895      		ret
 730               	.global	LCD_OutBigNumber12x16
 732               	LCD_OutBigNumber12x16:
 733 050e DF92      		push r13
 734 0510 EF92      		push r14
 735 0512 FF92      		push r15
 736 0514 0F93      		push r16
 737 0516 1F93      		push r17
 738 0518 CF93      		push r28
 739 051a DF93      		push r29
 740               	/* prologue: function */
 741               	/* frame size = 0 */
 742 051c EC01      		movw r28,r24
 743 051e F62E      		mov r15,r22
 744 0520 142F      		mov r17,r20
 745 0522 60E1      		ldi r22,lo8(10000)
 746 0524 77E2      		ldi r23,hi8(10000)
 747 0526 0E94 0000 		call __udivmodhi4
 748 052a CB01      		movw r24,r22
 749 052c 6115      		cp r22,__zero_reg__
 750 052e 7105      		cpc r23,__zero_reg__
 751 0530 01F4      		brne .L56
 752 0532 00E0      		ldi r16,lo8(0)
 753 0534 00C0      		rjmp .L57
 754               	.L56:
 755 0536 805D      		subi r24,lo8(-(48))
 756 0538 6F2D      		mov r22,r15
 757 053a 0E94 0000 		call LCD_OutChar12x16
 758 053e 145F      		subi r17,lo8(-(12))
 759 0540 01E0      		ldi r16,lo8(1)
 760               	.L57:
 761 0542 CE01      		movw r24,r28
 762 0544 60E1      		ldi r22,lo8(10000)
 763 0546 77E2      		ldi r23,hi8(10000)
 764 0548 0E94 0000 		call __udivmodhi4
 765 054c E82E      		mov r14,r24
 766 054e D92E      		mov r13,r25
 767 0550 68EE      		ldi r22,lo8(1000)
 768 0552 73E0      		ldi r23,hi8(1000)
 769 0554 0E94 0000 		call __udivmodhi4
 770 0558 CB01      		movw r24,r22
 771 055a 6115      		cp r22,__zero_reg__
 772 055c 7105      		cpc r23,__zero_reg__
 773 055e 01F0      		breq .L58
 774 0560 805D      		subi r24,lo8(-(48))
 775 0562 6F2D      		mov r22,r15
 776 0564 412F      		mov r20,r17
 777 0566 0E94 0000 		call LCD_OutChar12x16
 778 056a 145F      		subi r17,lo8(-(12))
 779 056c 01E0      		ldi r16,lo8(1)
 780 056e 00C0      		rjmp .L59
 781               	.L58:
 782 0570 0130      		cpi r16,lo8(1)
 783 0572 01F0      		breq .L60
 784 0574 00E0      		ldi r16,lo8(0)
 785 0576 00C0      		rjmp .L59
 786               	.L60:
 787 0578 80E3      		ldi r24,lo8(48)
 788 057a 6F2D      		mov r22,r15
 789 057c 412F      		mov r20,r17
 790 057e 0E94 0000 		call LCD_OutChar12x16
 791 0582 145F      		subi r17,lo8(-(12))
 792               	.L59:
 793 0584 8E2D      		mov r24,r14
 794 0586 9D2D      		mov r25,r13
 795 0588 68EE      		ldi r22,lo8(1000)
 796 058a 73E0      		ldi r23,hi8(1000)
 797 058c 0E94 0000 		call __udivmodhi4
 798 0590 E82E      		mov r14,r24
 799 0592 D92E      		mov r13,r25
 800 0594 64E6      		ldi r22,lo8(100)
 801 0596 70E0      		ldi r23,hi8(100)
 802 0598 0E94 0000 		call __udivmodhi4
 803 059c CB01      		movw r24,r22
 804 059e 6115      		cp r22,__zero_reg__
 805 05a0 7105      		cpc r23,__zero_reg__
 806 05a2 01F0      		breq .L61
 807 05a4 805D      		subi r24,lo8(-(48))
 808 05a6 6F2D      		mov r22,r15
 809 05a8 412F      		mov r20,r17
 810 05aa 0E94 0000 		call LCD_OutChar12x16
 811 05ae 145F      		subi r17,lo8(-(12))
 812 05b0 01E0      		ldi r16,lo8(1)
 813 05b2 00C0      		rjmp .L62
 814               	.L61:
 815 05b4 0130      		cpi r16,lo8(1)
 816 05b6 01F0      		breq .L63
 817 05b8 00E0      		ldi r16,lo8(0)
 818 05ba 00C0      		rjmp .L62
 819               	.L63:
 820 05bc 80E3      		ldi r24,lo8(48)
 821 05be 6F2D      		mov r22,r15
 822 05c0 412F      		mov r20,r17
 823 05c2 0E94 0000 		call LCD_OutChar12x16
 824 05c6 145F      		subi r17,lo8(-(12))
 825               	.L62:
 826 05c8 8E2D      		mov r24,r14
 827 05ca 9D2D      		mov r25,r13
 828 05cc 64E6      		ldi r22,lo8(100)
 829 05ce 70E0      		ldi r23,hi8(100)
 830 05d0 0E94 0000 		call __udivmodhi4
 831 05d4 E82E      		mov r14,r24
 832 05d6 D92E      		mov r13,r25
 833 05d8 6AE0      		ldi r22,lo8(10)
 834 05da 70E0      		ldi r23,hi8(10)
 835 05dc 0E94 0000 		call __udivmodhi4
 836 05e0 CB01      		movw r24,r22
 837 05e2 6115      		cp r22,__zero_reg__
 838 05e4 7105      		cpc r23,__zero_reg__
 839 05e6 01F0      		breq .L64
 840 05e8 805D      		subi r24,lo8(-(48))
 841 05ea 00C0      		rjmp .L67
 842               	.L64:
 843 05ec 0130      		cpi r16,lo8(1)
 844 05ee 01F4      		brne .L65
 845 05f0 80E3      		ldi r24,lo8(48)
 846               	.L67:
 847 05f2 6F2D      		mov r22,r15
 848 05f4 412F      		mov r20,r17
 849 05f6 0E94 0000 		call LCD_OutChar12x16
 850 05fa 145F      		subi r17,lo8(-(12))
 851               	.L65:
 852 05fc 8E2D      		mov r24,r14
 853 05fe 9D2D      		mov r25,r13
 854 0600 6AE0      		ldi r22,lo8(10)
 855 0602 70E0      		ldi r23,hi8(10)
 856 0604 0E94 0000 		call __udivmodhi4
 857 0608 805D      		subi r24,lo8(-(48))
 858 060a 6F2D      		mov r22,r15
 859 060c 412F      		mov r20,r17
 860 060e 0E94 0000 		call LCD_OutChar12x16
 861 0612 812F      		mov r24,r17
 862 0614 845F      		subi r24,lo8(-(12))
 863               	/* epilogue start */
 864 0616 DF91      		pop r29
 865 0618 CF91      		pop r28
 866 061a 1F91      		pop r17
 867 061c 0F91      		pop r16
 868 061e FF90      		pop r15
 869 0620 EF90      		pop r14
 870 0622 DF90      		pop r13
 871 0624 0895      		ret
 873               	.global	ReadMAX6675
 875               	ReadMAX6675:
 876               	/* prologue: function */
 877               	/* frame size = 0 */
 878 0626 482F      		mov r20,r24
 879 0628 8150      		subi r24,lo8(-(-1))
 880 062a 8230      		cpi r24,lo8(2)
 881 062c 00F0      		brlo .L69
 882 062e 1092 0000 		sts STATUS_TC1,__zero_reg__
 883 0632 1092 0000 		sts STATUS_TC2,__zero_reg__
 884 0636 0895      		ret
 885               	.L69:
 886 0638 4130      		cpi r20,lo8(1)
 887 063a 01F4      		brne .L71
 888 063c AE98      		cbi 53-32,6
 889 063e 00C0      		rjmp .L83
 890               	.L71:
 891 0640 AD98      		cbi 53-32,5
 892               	.L83:
 893 0642 80E1      		ldi r24,lo8(16)
 894 0644 20E0      		ldi r18,lo8(0)
 895 0646 30E0      		ldi r19,hi8(0)
 896 0648 00C0      		rjmp .L82
 897               	.L74:
 898 064a AF9A      		sbi 53-32,7
 899 064c 220F      		lsl r18
 900 064e 331F      		rol r19
 901 0650 9C99      		sbic 51-32,4
 902 0652 2160      		ori r18,lo8(1)
 903               	.L73:
 904 0654 AF98      		cbi 53-32,7
 905               	.L82:
 906 0656 8150      		subi r24,1
 907 0658 00F4      		brcc .L74
 908 065a 4130      		cpi r20,lo8(1)
 909 065c 01F4      		brne .L75
 910 065e AE9A      		sbi 53-32,6
 911 0660 00C0      		rjmp .L76
 912               	.L75:
 913 0662 AD9A      		sbi 53-32,5
 914               	.L76:
 915 0664 C901      		movw r24,r18
 916 0666 8670      		andi r24,lo8(-32762)
 917 0668 9078      		andi r25,hi8(-32762)
 918 066a 892B      		or r24,r25
 919 066c 01F0      		breq .L77
 920 066e 80E0      		ldi r24,lo8(0)
 921 0670 90E0      		ldi r25,hi8(0)
 922 0672 22E0      		ldi r18,lo8(2)
 923 0674 00C0      		rjmp .L78
 924               	.L77:
 925 0676 C901      		movw r24,r18
 926 0678 25E0      		ldi r18,5
 927 067a 9695      	1:	lsr r25
 928 067c 8795      		ror r24
 929 067e 2A95      		dec r18
 930 0680 01F4      		brne 1b
 931 0682 23E0      		ldi r18,hi8(1000)
 932 0684 883E      		cpi r24,lo8(1000)
 933 0686 9207      		cpc r25,r18
 934 0688 00F0      		brlo .L79
 935 068a 23E0      		ldi r18,lo8(3)
 936 068c 00C0      		rjmp .L78
 937               	.L79:
 938 068e 21E0      		ldi r18,lo8(1)
 939               	.L78:
 940 0690 4130      		cpi r20,lo8(1)
 941 0692 01F4      		brne .L80
 942 0694 2093 0000 		sts STATUS_TC1,r18
 943 0698 9093 0000 		sts (VALUE_TC1)+1,r25
 944 069c 8093 0000 		sts VALUE_TC1,r24
 945 06a0 0895      		ret
 946               	.L80:
 947 06a2 2093 0000 		sts STATUS_TC2,r18
 948 06a6 9093 0000 		sts (VALUE_TC2)+1,r25
 949 06aa 8093 0000 		sts VALUE_TC2,r24
 950 06ae 0895      		ret
 952               	.global	OutMenuToLCD
 954               	OutMenuToLCD:
 955 06b0 1F93      		push r17
 956               	/* prologue: function */
 957               	/* frame size = 0 */
 958 06b2 80E0      		ldi r24,lo8(0)
 959 06b4 0E94 0000 		call LCD_clear
 960 06b8 80E0      		ldi r24,lo8(0)
 961 06ba 6EE0      		ldi r22,lo8(14)
 962 06bc 0E94 0000 		call LCD_gotoXY
 963 06c0 80E0      		ldi r24,lo8(LabelSetting)
 964 06c2 90E0      		ldi r25,hi8(LabelSetting)
 965 06c4 0E94 0000 		call LCD_OutString6x8
 966 06c8 81E0      		ldi r24,lo8(1)
 967 06ca 60E0      		ldi r22,lo8(0)
 968 06cc 0E94 0000 		call LCD_gotoXY
 969 06d0 1EE0      		ldi r17,lo8(14)
 970 06d2 00C0      		rjmp .L85
 971               	.L86:
 972 06d4 8DE3      		ldi r24,lo8(61)
 973 06d6 0E94 0000 		call LCD_OutChar6x8
 974               	.L85:
 975 06da 1150      		subi r17,1
 976 06dc 00F4      		brcc .L86
 977 06de 8091 0000 		lds r24,MENU
 978 06e2 8430      		cpi r24,lo8(4)
 979 06e4 01F4      		brne .+2
 980 06e6 00C0      		rjmp .L92
 981 06e8 8530      		cpi r24,lo8(5)
 982 06ea 00F4      		brsh .L98
 983 06ec 8130      		cpi r24,lo8(1)
 984 06ee 01F0      		breq .L89
 985 06f0 8130      		cpi r24,lo8(1)
 986 06f2 00F0      		brlo .L88
 987 06f4 8230      		cpi r24,lo8(2)
 988 06f6 01F4      		brne .+2
 989 06f8 00C0      		rjmp .L90
 990 06fa 8330      		cpi r24,lo8(3)
 991 06fc 01F0      		breq .+2
 992 06fe 00C0      		rjmp .L100
 993 0700 00C0      		rjmp .L106
 994               	.L98:
 995 0702 8730      		cpi r24,lo8(7)
 996 0704 01F4      		brne .+2
 997 0706 00C0      		rjmp .L95
 998 0708 8830      		cpi r24,lo8(8)
 999 070a 00F4      		brsh .L99
 1000 070c 8530      		cpi r24,lo8(5)
 1001 070e 01F4      		brne .+2
 1002 0710 00C0      		rjmp .L93
 1003 0712 8630      		cpi r24,lo8(6)
 1004 0714 01F0      		breq .+2
 1005 0716 00C0      		rjmp .L100
 1006 0718 00C0      		rjmp .L107
 1007               	.L99:
 1008 071a 8830      		cpi r24,lo8(8)
 1009 071c 01F4      		brne .+2
 1010 071e 00C0      		rjmp .L96
 1011 0720 8930      		cpi r24,lo8(9)
 1012 0722 01F0      		breq .+2
 1013 0724 00C0      		rjmp .L100
 1014 0726 00C0      		rjmp .L108
 1015               	.L88:
 1016 0728 82E0      		ldi r24,lo8(2)
 1017 072a 69E0      		ldi r22,lo8(9)
 1018 072c 0E94 0000 		call LCD_gotoXY
 1019 0730 80E0      		ldi r24,lo8(Label_TEMP)
 1020 0732 90E0      		ldi r25,hi8(Label_TEMP)
 1021 0734 0E94 0000 		call LCD_OutString6x8
 1022 0738 83E0      		ldi r24,lo8(3)
 1023 073a 6FE0      		ldi r22,lo8(15)
 1024 073c 0E94 0000 		call LCD_gotoXY
 1025 0740 80E0      		ldi r24,lo8(Label_ROOM)
 1026 0742 90E0      		ldi r25,hi8(Label_ROOM)
 1027 0744 0E94 0000 		call LCD_OutString6x8
 1028 0748 8091 0000 		lds r24,SETVAL_TEMP_ROOM
 1029 074c 64E0      		ldi r22,lo8(4)
 1030 074e 42E1      		ldi r20,lo8(18)
 1031 0750 00C0      		rjmp .L102
 1032               	.L89:
 1033 0752 82E0      		ldi r24,lo8(2)
 1034 0754 60E0      		ldi r22,lo8(0)
 1035 0756 0E94 0000 		call LCD_gotoXY
 1036 075a 80E0      		ldi r24,lo8(Label_DELTA_TEMP)
 1037 075c 90E0      		ldi r25,hi8(Label_DELTA_TEMP)
 1038 075e 0E94 0000 		call LCD_OutString6x8
 1039 0762 83E0      		ldi r24,lo8(3)
 1040 0764 6FE0      		ldi r22,lo8(15)
 1041 0766 0E94 0000 		call LCD_gotoXY
 1042 076a 80E0      		ldi r24,lo8(Label_ROOM)
 1043 076c 90E0      		ldi r25,hi8(Label_ROOM)
 1044 076e 0E94 0000 		call LCD_OutString6x8
 1045 0772 8091 0000 		lds r24,SETVAL_DELTA_TEMP_ROOM
 1046 0776 00C0      		rjmp .L105
 1047               	.L90:
 1048 0778 82E0      		ldi r24,lo8(2)
 1049 077a 69E0      		ldi r22,lo8(9)
 1050 077c 0E94 0000 		call LCD_gotoXY
 1051 0780 80E0      		ldi r24,lo8(Label_TEMP)
 1052 0782 90E0      		ldi r25,hi8(Label_TEMP)
 1053 0784 0E94 0000 		call LCD_OutString6x8
 1054 0788 83E0      		ldi r24,lo8(3)
 1055 078a 63E0      		ldi r22,lo8(3)
 1056 078c 0E94 0000 		call LCD_gotoXY
 1057 0790 80E0      		ldi r24,lo8(Label_TOP_OVEN)
 1058 0792 90E0      		ldi r25,hi8(Label_TOP_OVEN)
 1059 0794 0E94 0000 		call LCD_OutString6x8
 1060 0798 8091 0000 		lds r24,SETVAL_TEMP_TOP_OVEN
 1061               	.L105:
 1062 079c 64E0      		ldi r22,lo8(4)
 1063 079e 45E1      		ldi r20,lo8(21)
 1064 07a0 00C0      		rjmp .L102
 1065               	.L106:
 1066 07a2 82E0      		ldi r24,lo8(2)
 1067 07a4 60E0      		ldi r22,lo8(0)
 1068 07a6 0E94 0000 		call LCD_gotoXY
 1069 07aa 80E0      		ldi r24,lo8(Label_DELTA_TEMP)
 1070 07ac 90E0      		ldi r25,hi8(Label_DELTA_TEMP)
 1071 07ae 0E94 0000 		call LCD_OutString6x8
 1072 07b2 83E0      		ldi r24,lo8(3)
 1073 07b4 60E0      		ldi r22,lo8(0)
 1074 07b6 0E94 0000 		call LCD_gotoXY
 1075 07ba 80E0      		ldi r24,lo8(Label_TOP_OVEN)
 1076 07bc 90E0      		ldi r25,hi8(Label_TOP_OVEN)
 1077 07be 0E94 0000 		call LCD_OutString6x8
 1078 07c2 8091 0000 		lds r24,SETVAL_DELTA_TEMP_TOP_OVEN
 1079 07c6 00C0      		rjmp .L105
 1080               	.L92:
 1081 07c8 82E0      		ldi r24,lo8(2)
 1082 07ca 60E0      		ldi r22,lo8(0)
 1083 07cc 0E94 0000 		call LCD_gotoXY
 1084 07d0 80E0      		ldi r24,lo8(Label_TEMP)
 1085 07d2 90E0      		ldi r25,hi8(Label_TEMP)
 1086 07d4 0E94 0000 		call LCD_OutString6x8
 1087 07d8 83E0      		ldi r24,lo8(3)
 1088 07da 60E0      		ldi r22,lo8(0)
 1089 07dc 0E94 0000 		call LCD_gotoXY
 1090 07e0 80E0      		ldi r24,lo8(Label_START_PYROLYS)
 1091 07e2 90E0      		ldi r25,hi8(Label_START_PYROLYS)
 1092 07e4 0E94 0000 		call LCD_OutString6x8
 1093 07e8 8091 0000 		lds r24,SETVAL_TEMP_PYROLYS_START
 1094 07ec 9091 0000 		lds r25,(SETVAL_TEMP_PYROLYS_START)+1
 1095 07f0 00C0      		rjmp .L104
 1096               	.L93:
 1097 07f2 82E0      		ldi r24,lo8(2)
 1098 07f4 60E0      		ldi r22,lo8(0)
 1099 07f6 0E94 0000 		call LCD_gotoXY
 1100 07fa 80E0      		ldi r24,lo8(Label_TEMP)
 1101 07fc 90E0      		ldi r25,hi8(Label_TEMP)
 1102 07fe 0E94 0000 		call LCD_OutString6x8
 1103 0802 83E0      		ldi r24,lo8(3)
 1104 0804 60E0      		ldi r22,lo8(0)
 1105 0806 0E94 0000 		call LCD_gotoXY
 1106 080a 80E0      		ldi r24,lo8(Label_FULL_PYROLYS)
 1107 080c 90E0      		ldi r25,hi8(Label_FULL_PYROLYS)
 1108 080e 0E94 0000 		call LCD_OutString6x8
 1109 0812 8091 0000 		lds r24,SETVAL_TEMP_PYROLYS_FULL
 1110 0816 9091 0000 		lds r25,(SETVAL_TEMP_PYROLYS_FULL)+1
 1111               	.L104:
 1112 081a 64E0      		ldi r22,lo8(4)
 1113 081c 4CE0      		ldi r20,lo8(12)
 1114 081e 0E94 0000 		call LCD_OutBigNumber12x16
 1115 0822 00C0      		rjmp .L103
 1116               	.L107:
 1117 0824 82E0      		ldi r24,lo8(2)
 1118 0826 60E0      		ldi r22,lo8(0)
 1119 0828 0E94 0000 		call LCD_gotoXY
 1120 082c 80E0      		ldi r24,lo8(Label_RAZN_TEMP)
 1121 082e 90E0      		ldi r25,hi8(Label_RAZN_TEMP)
 1122 0830 0E94 0000 		call LCD_OutString6x8
 1123 0834 83E0      		ldi r24,lo8(3)
 1124 0836 60E0      		ldi r22,lo8(0)
 1125 0838 0E94 0000 		call LCD_gotoXY
 1126 083c 80E0      		ldi r24,lo8(Label_SHUTDOWN)
 1127 083e 90E0      		ldi r25,hi8(Label_SHUTDOWN)
 1128 0840 0E94 0000 		call LCD_OutString6x8
 1129 0844 8091 0000 		lds r24,SETVAL_DELTA_TEMP_SHUTDOWN
 1130 0848 64E0      		ldi r22,lo8(4)
 1131 084a 4CE0      		ldi r20,lo8(12)
 1132               	.L102:
 1133 084c 0E94 0000 		call LCD_OutNumber12x16
 1134               	.L103:
 1135 0850 482F      		mov r20,r24
 1136 0852 80E0      		ldi r24,lo8(LabelCC)
 1137 0854 90E0      		ldi r25,hi8(LabelCC)
 1138 0856 64E0      		ldi r22,lo8(4)
 1139 0858 0E94 0000 		call LCD_OutString12x16
 1140 085c 00C0      		rjmp .L100
 1141               	.L95:
 1142 085e 82E0      		ldi r24,lo8(2)
 1143 0860 60E0      		ldi r22,lo8(0)
 1144 0862 0E94 0000 		call LCD_gotoXY
 1145 0866 80E0      		ldi r24,lo8(Label_PWM_START)
 1146 0868 90E0      		ldi r25,hi8(Label_PWM_START)
 1147 086a 0E94 0000 		call LCD_OutString6x8
 1148 086e 83E0      		ldi r24,lo8(3)
 1149 0870 60E0      		ldi r22,lo8(0)
 1150 0872 0E94 0000 		call LCD_gotoXY
 1151 0876 80E0      		ldi r24,lo8(Label_FAN)
 1152 0878 90E0      		ldi r25,hi8(Label_FAN)
 1153 087a 0E94 0000 		call LCD_OutString6x8
 1154 087e 81E3      		ldi r24,lo8(49)
 1155 0880 0E94 0000 		call LCD_OutChar6x8
 1156 0884 8091 0000 		lds r24,SETVAL_PWM_FAN1_START
 1157 0888 00C0      		rjmp .L101
 1158               	.L96:
 1159 088a 82E0      		ldi r24,lo8(2)
 1160 088c 60E0      		ldi r22,lo8(0)
 1161 088e 0E94 0000 		call LCD_gotoXY
 1162 0892 80E0      		ldi r24,lo8(Label_PWM_START)
 1163 0894 90E0      		ldi r25,hi8(Label_PWM_START)
 1164 0896 0E94 0000 		call LCD_OutString6x8
 1165 089a 83E0      		ldi r24,lo8(3)
 1166 089c 60E0      		ldi r22,lo8(0)
 1167 089e 0E94 0000 		call LCD_gotoXY
 1168 08a2 80E0      		ldi r24,lo8(Label_FAN)
 1169 08a4 90E0      		ldi r25,hi8(Label_FAN)
 1170 08a6 0E94 0000 		call LCD_OutString6x8
 1171 08aa 82E3      		ldi r24,lo8(50)
 1172 08ac 0E94 0000 		call LCD_OutChar6x8
 1173 08b0 8091 0000 		lds r24,SETVAL_PWM_FAN2_START
 1174 08b4 00C0      		rjmp .L101
 1175               	.L108:
 1176 08b6 82E0      		ldi r24,lo8(2)
 1177 08b8 60E0      		ldi r22,lo8(0)
 1178 08ba 0E94 0000 		call LCD_gotoXY
 1179 08be 80E0      		ldi r24,lo8(Label_PWM_START)
 1180 08c0 90E0      		ldi r25,hi8(Label_PWM_START)
 1181 08c2 0E94 0000 		call LCD_OutString6x8
 1182 08c6 83E0      		ldi r24,lo8(3)
 1183 08c8 60E0      		ldi r22,lo8(0)
 1184 08ca 0E94 0000 		call LCD_gotoXY
 1185 08ce 80E0      		ldi r24,lo8(Label_FAN)
 1186 08d0 90E0      		ldi r25,hi8(Label_FAN)
 1187 08d2 0E94 0000 		call LCD_OutString6x8
 1188 08d6 83E3      		ldi r24,lo8(51)
 1189 08d8 0E94 0000 		call LCD_OutChar6x8
 1190 08dc 8091 0000 		lds r24,SETVAL_PWM_FAN3_START
 1191               	.L101:
 1192 08e0 64E0      		ldi r22,lo8(4)
 1193 08e2 45E1      		ldi r20,lo8(21)
 1194 08e4 0E94 0000 		call LCD_OutNumber12x16
 1195 08e8 482F      		mov r20,r24
 1196 08ea 85E2      		ldi r24,lo8(37)
 1197 08ec 64E0      		ldi r22,lo8(4)
 1198 08ee 0E94 0000 		call LCD_OutChar12x16
 1199               	.L100:
 1200               	/* epilogue start */
 1201 08f2 1F91      		pop r17
 1202 08f4 0895      		ret
 1204               	.global	ExecuteButton
 1206               	ExecuteButton:
 1207               	/* prologue: function */
 1208               	/* frame size = 0 */
 1209 08f6 8091 0000 		lds r24,STATUS
 1210 08fa 83FF      		sbrs r24,3
 1211 08fc 00C0      		rjmp .L110
 1212 08fe 85E0      		ldi r24,lo8(5)
 1213 0900 8093 0000 		sts CountMUL_MENU_WAIT,r24
 1214               	.L110:
 1215 0904 8091 0000 		lds r24,BUTTON
 1216 0908 80FF      		sbrs r24,0
 1217 090a 00C0      		rjmp .L111
 1218 090c 8091 0000 		lds r24,STATUS
 1219 0910 83FD      		sbrc r24,3
 1220 0912 00C0      		rjmp .L112
 1221 0914 8091 0000 		lds r24,STATUS
 1222 0918 8860      		ori r24,lo8(8)
 1223 091a 8093 0000 		sts STATUS,r24
 1224 091e 1092 0000 		sts MENU,__zero_reg__
 1225 0922 9698      		cbi 50-32,6
 1226 0924 85E0      		ldi r24,lo8(5)
 1227 0926 8093 0000 		sts CountMUL_MENU_WAIT,r24
 1228 092a 00C0      		rjmp .L114
 1229               	.L112:
 1230 092c 8091 0000 		lds r24,MENU
 1231 0930 8F5F      		subi r24,lo8(-(1))
 1232 0932 8093 0000 		sts MENU,r24
 1233 0936 8091 0000 		lds r24,MENU
 1234 093a 8A30      		cpi r24,lo8(10)
 1235 093c 01F4      		brne .L114
 1236 093e 1092 0000 		sts MENU,__zero_reg__
 1237               	.L114:
 1238 0942 0E94 0000 		call OutMenuToLCD
 1239 0946 8091 0000 		lds r24,BUTTON
 1240 094a 8E7F      		andi r24,lo8(-2)
 1241 094c 8093 0000 		sts BUTTON,r24
 1242               	.L111:
 1243 0950 8091 0000 		lds r24,BUTTON
 1244 0954 81FF      		sbrs r24,1
 1245 0956 00C0      		rjmp .L115
 1246 0958 8091 0000 		lds r24,STATUS
 1247 095c 83FD      		sbrc r24,3
 1248 095e 00C0      		rjmp .L116
 1249 0960 81E0      		ldi r24,lo8(1)
 1250 0962 8093 0000 		sts LED_LIGTH,r24
 1251 0966 9698      		cbi 50-32,6
 1252 0968 00C0      		rjmp .L117
 1253               	.L116:
 1254 096a 8091 0000 		lds r24,MENU
 1255 096e 8430      		cpi r24,lo8(4)
 1256 0970 01F4      		brne .+2
 1257 0972 00C0      		rjmp .L123
 1258 0974 8530      		cpi r24,lo8(5)
 1259 0976 00F4      		brsh .L129
 1260 0978 8130      		cpi r24,lo8(1)
 1261 097a 01F0      		breq .L120
 1262 097c 8130      		cpi r24,lo8(1)
 1263 097e 00F0      		brlo .L119
 1264 0980 8230      		cpi r24,lo8(2)
 1265 0982 01F0      		breq .L121
 1266 0984 8330      		cpi r24,lo8(3)
 1267 0986 01F0      		breq .+2
 1268 0988 00C0      		rjmp .L118
 1269 098a 00C0      		rjmp .L152
 1270               	.L129:
 1271 098c 8730      		cpi r24,lo8(7)
 1272 098e 01F4      		brne .+2
 1273 0990 00C0      		rjmp .L126
 1274 0992 8830      		cpi r24,lo8(8)
 1275 0994 00F4      		brsh .L130
 1276 0996 8530      		cpi r24,lo8(5)
 1277 0998 01F4      		brne .+2
 1278 099a 00C0      		rjmp .L124
 1279 099c 8630      		cpi r24,lo8(6)
 1280 099e 01F0      		breq .+2
 1281 09a0 00C0      		rjmp .L118
 1282 09a2 00C0      		rjmp .L153
 1283               	.L130:
 1284 09a4 8830      		cpi r24,lo8(8)
 1285 09a6 01F4      		brne .+2
 1286 09a8 00C0      		rjmp .L127
 1287 09aa 8930      		cpi r24,lo8(9)
 1288 09ac 01F0      		breq .+2
 1289 09ae 00C0      		rjmp .L118
 1290 09b0 00C0      		rjmp .L154
 1291               	.L119:
 1292 09b2 8091 0000 		lds r24,SETVAL_TEMP_ROOM
 1293 09b6 8E31      		cpi r24,lo8(30)
 1294 09b8 01F4      		brne .+2
 1295 09ba 00C0      		rjmp .L118
 1296 09bc 8091 0000 		lds r24,SETVAL_TEMP_ROOM
 1297 09c0 8F5F      		subi r24,lo8(-(1))
 1298 09c2 8093 0000 		sts SETVAL_TEMP_ROOM,r24
 1299 09c6 00C0      		rjmp .L118
 1300               	.L120:
 1301 09c8 8091 0000 		lds r24,SETVAL_DELTA_TEMP_ROOM
 1302 09cc 8530      		cpi r24,lo8(5)
 1303 09ce 01F4      		brne .+2
 1304 09d0 00C0      		rjmp .L118
 1305 09d2 8091 0000 		lds r24,SETVAL_DELTA_TEMP_ROOM
 1306 09d6 8F5F      		subi r24,lo8(-(1))
 1307 09d8 8093 0000 		sts SETVAL_DELTA_TEMP_ROOM,r24
 1308 09dc 00C0      		rjmp .L118
 1309               	.L121:
 1310 09de 8091 0000 		lds r24,SETVAL_TEMP_TOP_OVEN
 1311 09e2 8C38      		cpi r24,lo8(-116)
 1312 09e4 01F4      		brne .+2
 1313 09e6 00C0      		rjmp .L118
 1314 09e8 8091 0000 		lds r24,SETVAL_TEMP_TOP_OVEN
 1315 09ec 8F5F      		subi r24,lo8(-(1))
 1316 09ee 8093 0000 		sts SETVAL_TEMP_TOP_OVEN,r24
 1317 09f2 00C0      		rjmp .L118
 1318               	.L152:
 1319 09f4 8091 0000 		lds r24,SETVAL_DELTA_TEMP_TOP_OVEN
 1320 09f8 8431      		cpi r24,lo8(20)
 1321 09fa 01F4      		brne .+2
 1322 09fc 00C0      		rjmp .L118
 1323 09fe 8091 0000 		lds r24,SETVAL_DELTA_TEMP_TOP_OVEN
 1324 0a02 8F5F      		subi r24,lo8(-(1))
 1325 0a04 8093 0000 		sts SETVAL_DELTA_TEMP_TOP_OVEN,r24
 1326 0a08 00C0      		rjmp .L118
 1327               	.L123:
 1328 0a0a 8091 0000 		lds r24,SETVAL_TEMP_PYROLYS_START
 1329 0a0e 9091 0000 		lds r25,(SETVAL_TEMP_PYROLYS_START)+1
 1330 0a12 8855      		subi r24,lo8(600)
 1331 0a14 9240      		sbci r25,hi8(600)
 1332 0a16 01F4      		brne .+2
 1333 0a18 00C0      		rjmp .L118
 1334 0a1a 8091 0000 		lds r24,SETVAL_TEMP_PYROLYS_START
 1335 0a1e 9091 0000 		lds r25,(SETVAL_TEMP_PYROLYS_START)+1
 1336 0a22 0A96      		adiw r24,10
 1337 0a24 9093 0000 		sts (SETVAL_TEMP_PYROLYS_START)+1,r25
 1338 0a28 8093 0000 		sts SETVAL_TEMP_PYROLYS_START,r24
 1339 0a2c 2091 0000 		lds r18,SETVAL_TEMP_PYROLYS_FULL
 1340 0a30 3091 0000 		lds r19,(SETVAL_TEMP_PYROLYS_FULL)+1
 1341 0a34 8091 0000 		lds r24,SETVAL_TEMP_PYROLYS_START
 1342 0a38 9091 0000 		lds r25,(SETVAL_TEMP_PYROLYS_START)+1
 1343 0a3c 8C59      		subi r24,lo8(-(100))
 1344 0a3e 9F4F      		sbci r25,hi8(-(100))
 1345 0a40 2817      		cp r18,r24
 1346 0a42 3907      		cpc r19,r25
 1347 0a44 00F0      		brlo .+2
 1348 0a46 00C0      		rjmp .L118
 1349 0a48 8091 0000 		lds r24,SETVAL_TEMP_PYROLYS_START
 1350 0a4c 9091 0000 		lds r25,(SETVAL_TEMP_PYROLYS_START)+1
 1351 0a50 8C59      		subi r24,lo8(-(100))
 1352 0a52 9F4F      		sbci r25,hi8(-(100))
 1353 0a54 00C0      		rjmp .L150
 1354               	.L124:
 1355 0a56 2091 0000 		lds r18,SETVAL_TEMP_PYROLYS_FULL
 1356 0a5a 3091 0000 		lds r19,(SETVAL_TEMP_PYROLYS_FULL)+1
 1357 0a5e 8091 0000 		lds r24,SETVAL_TEMP_PYROLYS_START
 1358 0a62 9091 0000 		lds r25,(SETVAL_TEMP_PYROLYS_START)+1
 1359 0a66 8C59      		subi r24,lo8(-(100))
 1360 0a68 9F4F      		sbci r25,hi8(-(100))
 1361 0a6a 2817      		cp r18,r24
 1362 0a6c 3907      		cpc r19,r25
 1363 0a6e 00F4      		brsh .L131
 1364 0a70 8091 0000 		lds r24,SETVAL_TEMP_PYROLYS_START
 1365 0a74 9091 0000 		lds r25,(SETVAL_TEMP_PYROLYS_START)+1
 1366 0a78 8C59      		subi r24,lo8(-(100))
 1367 0a7a 9F4F      		sbci r25,hi8(-(100))
 1368 0a7c 9093 0000 		sts (SETVAL_TEMP_PYROLYS_FULL)+1,r25
 1369 0a80 8093 0000 		sts SETVAL_TEMP_PYROLYS_FULL,r24
 1370               	.L131:
 1371 0a84 8091 0000 		lds r24,SETVAL_TEMP_PYROLYS_FULL
 1372 0a88 9091 0000 		lds r25,(SETVAL_TEMP_PYROLYS_FULL)+1
 1373 0a8c 8E5D      		subi r24,lo8(990)
 1374 0a8e 9340      		sbci r25,hi8(990)
 1375 0a90 01F0      		breq .L118
 1376 0a92 8091 0000 		lds r24,SETVAL_TEMP_PYROLYS_FULL
 1377 0a96 9091 0000 		lds r25,(SETVAL_TEMP_PYROLYS_FULL)+1
 1378 0a9a 0A96      		adiw r24,10
 1379               	.L150:
 1380 0a9c 9093 0000 		sts (SETVAL_TEMP_PYROLYS_FULL)+1,r25
 1381 0aa0 8093 0000 		sts SETVAL_TEMP_PYROLYS_FULL,r24
 1382 0aa4 00C0      		rjmp .L118
 1383               	.L153:
 1384 0aa6 8091 0000 		lds r24,SETVAL_DELTA_TEMP_SHUTDOWN
 1385 0aaa 8431      		cpi r24,lo8(20)
 1386 0aac 01F0      		breq .L118
 1387 0aae 8091 0000 		lds r24,SETVAL_DELTA_TEMP_SHUTDOWN
 1388 0ab2 8F5F      		subi r24,lo8(-(1))
 1389 0ab4 8093 0000 		sts SETVAL_DELTA_TEMP_SHUTDOWN,r24
 1390 0ab8 00C0      		rjmp .L118
 1391               	.L126:
 1392 0aba 8091 0000 		lds r24,SETVAL_PWM_FAN1_START
 1393 0abe 8431      		cpi r24,lo8(20)
 1394 0ac0 01F0      		breq .L118
 1395 0ac2 8091 0000 		lds r24,SETVAL_PWM_FAN1_START
 1396 0ac6 8F5F      		subi r24,lo8(-(1))
 1397 0ac8 8093 0000 		sts SETVAL_PWM_FAN1_START,r24
 1398 0acc 00C0      		rjmp .L118
 1399               	.L127:
 1400 0ace 8091 0000 		lds r24,SETVAL_PWM_FAN2_START
 1401 0ad2 8431      		cpi r24,lo8(20)
 1402 0ad4 01F0      		breq .L118
 1403 0ad6 8091 0000 		lds r24,SETVAL_PWM_FAN2_START
 1404 0ada 8F5F      		subi r24,lo8(-(1))
 1405 0adc 8093 0000 		sts SETVAL_PWM_FAN2_START,r24
 1406 0ae0 00C0      		rjmp .L118
 1407               	.L154:
 1408 0ae2 8091 0000 		lds r24,SETVAL_PWM_FAN3_START
 1409 0ae6 8431      		cpi r24,lo8(20)
 1410 0ae8 01F0      		breq .L118
 1411 0aea 8091 0000 		lds r24,SETVAL_PWM_FAN3_START
 1412 0aee 8F5F      		subi r24,lo8(-(1))
 1413 0af0 8093 0000 		sts SETVAL_PWM_FAN3_START,r24
 1414               	.L118:
 1415 0af4 0E94 0000 		call OutMenuToLCD
 1416               	.L117:
 1417 0af8 8091 0000 		lds r24,BUTTON
 1418 0afc 8D7F      		andi r24,lo8(-3)
 1419 0afe 8093 0000 		sts BUTTON,r24
 1420               	.L115:
 1421 0b02 8091 0000 		lds r24,BUTTON
 1422 0b06 82FF      		sbrs r24,2
 1423 0b08 00C0      		rjmp .L149
 1424 0b0a 8091 0000 		lds r24,STATUS
 1425 0b0e 83FD      		sbrc r24,3
 1426 0b10 00C0      		rjmp .L133
 1427 0b12 1092 0000 		sts LED_LIGTH,__zero_reg__
 1428 0b16 969A      		sbi 50-32,6
 1429 0b18 00C0      		rjmp .L134
 1430               	.L133:
 1431 0b1a 8091 0000 		lds r24,MENU
 1432 0b1e 8430      		cpi r24,lo8(4)
 1433 0b20 01F4      		brne .+2
 1434 0b22 00C0      		rjmp .L140
 1435 0b24 8530      		cpi r24,lo8(5)
 1436 0b26 00F4      		brsh .L146
 1437 0b28 8130      		cpi r24,lo8(1)
 1438 0b2a 01F0      		breq .L137
 1439 0b2c 8130      		cpi r24,lo8(1)
 1440 0b2e 00F0      		brlo .L136
 1441 0b30 8230      		cpi r24,lo8(2)
 1442 0b32 01F0      		breq .L138
 1443 0b34 8330      		cpi r24,lo8(3)
 1444 0b36 01F0      		breq .+2
 1445 0b38 00C0      		rjmp .L135
 1446 0b3a 00C0      		rjmp .L155
 1447               	.L146:
 1448 0b3c 8730      		cpi r24,lo8(7)
 1449 0b3e 01F4      		brne .+2
 1450 0b40 00C0      		rjmp .L143
 1451 0b42 8830      		cpi r24,lo8(8)
 1452 0b44 00F4      		brsh .L147
 1453 0b46 8530      		cpi r24,lo8(5)
 1454 0b48 01F4      		brne .+2
 1455 0b4a 00C0      		rjmp .L141
 1456 0b4c 8630      		cpi r24,lo8(6)
 1457 0b4e 01F0      		breq .+2
 1458 0b50 00C0      		rjmp .L135
 1459 0b52 00C0      		rjmp .L156
 1460               	.L147:
 1461 0b54 8830      		cpi r24,lo8(8)
 1462 0b56 01F4      		brne .+2
 1463 0b58 00C0      		rjmp .L144
 1464 0b5a 8930      		cpi r24,lo8(9)
 1465 0b5c 01F0      		breq .+2
 1466 0b5e 00C0      		rjmp .L135
 1467 0b60 00C0      		rjmp .L157
 1468               	.L136:
 1469 0b62 8091 0000 		lds r24,SETVAL_TEMP_ROOM
 1470 0b66 8A30      		cpi r24,lo8(10)
 1471 0b68 01F4      		brne .+2
 1472 0b6a 00C0      		rjmp .L135
 1473 0b6c 8091 0000 		lds r24,SETVAL_TEMP_ROOM
 1474 0b70 8150      		subi r24,lo8(-(-1))
 1475 0b72 8093 0000 		sts SETVAL_TEMP_ROOM,r24
 1476 0b76 00C0      		rjmp .L135
 1477               	.L137:
 1478 0b78 8091 0000 		lds r24,SETVAL_DELTA_TEMP_ROOM
 1479 0b7c 8130      		cpi r24,lo8(1)
 1480 0b7e 01F4      		brne .+2
 1481 0b80 00C0      		rjmp .L135
 1482 0b82 8091 0000 		lds r24,SETVAL_DELTA_TEMP_ROOM
 1483 0b86 8150      		subi r24,lo8(-(-1))
 1484 0b88 8093 0000 		sts SETVAL_DELTA_TEMP_ROOM,r24
 1485 0b8c 00C0      		rjmp .L135
 1486               	.L138:
 1487 0b8e 8091 0000 		lds r24,SETVAL_TEMP_TOP_OVEN
 1488 0b92 8733      		cpi r24,lo8(55)
 1489 0b94 01F4      		brne .+2
 1490 0b96 00C0      		rjmp .L135
 1491 0b98 8091 0000 		lds r24,SETVAL_TEMP_TOP_OVEN
 1492 0b9c 8150      		subi r24,lo8(-(-1))
 1493 0b9e 8093 0000 		sts SETVAL_TEMP_TOP_OVEN,r24
 1494 0ba2 00C0      		rjmp .L135
 1495               	.L155:
 1496 0ba4 8091 0000 		lds r24,SETVAL_DELTA_TEMP_TOP_OVEN
 1497 0ba8 8130      		cpi r24,lo8(1)
 1498 0baa 01F4      		brne .+2
 1499 0bac 00C0      		rjmp .L135
 1500 0bae 8091 0000 		lds r24,SETVAL_DELTA_TEMP_TOP_OVEN
 1501 0bb2 8150      		subi r24,lo8(-(-1))
 1502 0bb4 8093 0000 		sts SETVAL_DELTA_TEMP_TOP_OVEN,r24
 1503 0bb8 00C0      		rjmp .L135
 1504               	.L140:
 1505 0bba 8091 0000 		lds r24,SETVAL_TEMP_PYROLYS_START
 1506 0bbe 9091 0000 		lds r25,(SETVAL_TEMP_PYROLYS_START)+1
 1507 0bc2 883C      		cpi r24,200
 1508 0bc4 9105      		cpc r25,__zero_reg__
 1509 0bc6 01F4      		brne .+2
 1510 0bc8 00C0      		rjmp .L135
 1511 0bca 8091 0000 		lds r24,SETVAL_TEMP_PYROLYS_START
 1512 0bce 9091 0000 		lds r25,(SETVAL_TEMP_PYROLYS_START)+1
 1513 0bd2 0A97      		sbiw r24,10
 1514 0bd4 9093 0000 		sts (SETVAL_TEMP_PYROLYS_START)+1,r25
 1515 0bd8 8093 0000 		sts SETVAL_TEMP_PYROLYS_START,r24
 1516 0bdc 00C0      		rjmp .L135
 1517               	.L141:
 1518 0bde 2091 0000 		lds r18,SETVAL_TEMP_PYROLYS_FULL
 1519 0be2 3091 0000 		lds r19,(SETVAL_TEMP_PYROLYS_FULL)+1
 1520 0be6 8091 0000 		lds r24,SETVAL_TEMP_PYROLYS_START
 1521 0bea 9091 0000 		lds r25,(SETVAL_TEMP_PYROLYS_START)+1
 1522 0bee 8C59      		subi r24,lo8(-(100))
 1523 0bf0 9F4F      		sbci r25,hi8(-(100))
 1524 0bf2 8217      		cp r24,r18
 1525 0bf4 9307      		cpc r25,r19
 1526 0bf6 00F0      		brlo .L148
 1527 0bf8 8091 0000 		lds r24,SETVAL_TEMP_PYROLYS_START
 1528 0bfc 9091 0000 		lds r25,(SETVAL_TEMP_PYROLYS_START)+1
 1529 0c00 8C59      		subi r24,lo8(-(100))
 1530 0c02 9F4F      		sbci r25,hi8(-(100))
 1531 0c04 00C0      		rjmp .L151
 1532               	.L148:
 1533 0c06 8091 0000 		lds r24,SETVAL_TEMP_PYROLYS_FULL
 1534 0c0a 9091 0000 		lds r25,(SETVAL_TEMP_PYROLYS_FULL)+1
 1535 0c0e 0A97      		sbiw r24,10
 1536               	.L151:
 1537 0c10 9093 0000 		sts (SETVAL_TEMP_PYROLYS_FULL)+1,r25
 1538 0c14 8093 0000 		sts SETVAL_TEMP_PYROLYS_FULL,r24
 1539 0c18 00C0      		rjmp .L135
 1540               	.L156:
 1541 0c1a 8091 0000 		lds r24,SETVAL_DELTA_TEMP_SHUTDOWN
 1542 0c1e 8530      		cpi r24,lo8(5)
 1543 0c20 01F0      		breq .L135
 1544 0c22 8091 0000 		lds r24,SETVAL_DELTA_TEMP_SHUTDOWN
 1545 0c26 8150      		subi r24,lo8(-(-1))
 1546 0c28 8093 0000 		sts SETVAL_DELTA_TEMP_SHUTDOWN,r24
 1547 0c2c 00C0      		rjmp .L135
 1548               	.L143:
 1549 0c2e 8091 0000 		lds r24,SETVAL_PWM_FAN1_START
 1550 0c32 8823      		tst r24
 1551 0c34 01F0      		breq .L135
 1552 0c36 8091 0000 		lds r24,SETVAL_PWM_FAN1_START
 1553 0c3a 8150      		subi r24,lo8(-(-1))
 1554 0c3c 8093 0000 		sts SETVAL_PWM_FAN1_START,r24
 1555 0c40 00C0      		rjmp .L135
 1556               	.L144:
 1557 0c42 8091 0000 		lds r24,SETVAL_PWM_FAN2_START
 1558 0c46 8823      		tst r24
 1559 0c48 01F0      		breq .L135
 1560 0c4a 8091 0000 		lds r24,SETVAL_PWM_FAN2_START
 1561 0c4e 8150      		subi r24,lo8(-(-1))
 1562 0c50 8093 0000 		sts SETVAL_PWM_FAN2_START,r24
 1563 0c54 00C0      		rjmp .L135
 1564               	.L157:
 1565 0c56 8091 0000 		lds r24,SETVAL_PWM_FAN3_START
 1566 0c5a 8823      		tst r24
 1567 0c5c 01F0      		breq .L135
 1568 0c5e 8091 0000 		lds r24,SETVAL_PWM_FAN3_START
 1569 0c62 8150      		subi r24,lo8(-(-1))
 1570 0c64 8093 0000 		sts SETVAL_PWM_FAN3_START,r24
 1571               	.L135:
 1572 0c68 0E94 0000 		call OutMenuToLCD
 1573               	.L134:
 1574 0c6c 8091 0000 		lds r24,BUTTON
 1575 0c70 8B7F      		andi r24,lo8(-5)
 1576 0c72 8093 0000 		sts BUTTON,r24
 1577               	.L149:
 1578 0c76 0895      		ret
 1580               	.global	CalculatePercent
 1582               	CalculatePercent:
 1583               	/* prologue: function */
 1584               	/* frame size = 0 */
 1585 0c78 90E0      		ldi r25,lo8(0)
 1586 0c7a AA27      		clr r26
 1587 0c7c 97FD      		sbrc r25,7
 1588 0c7e A095      		com r26
 1589 0c80 BA2F      		mov r27,r26
 1590 0c82 BC01      		movw r22,r24
 1591 0c84 CD01      		movw r24,r26
 1592 0c86 0E94 0000 		call __floatsisf
 1593 0c8a 20E0      		ldi r18,lo8(0x42c80000)
 1594 0c8c 30E0      		ldi r19,hi8(0x42c80000)
 1595 0c8e 48EC      		ldi r20,hlo8(0x42c80000)
 1596 0c90 52E4      		ldi r21,hhi8(0x42c80000)
 1597 0c92 0E94 0000 		call __mulsf3
 1598 0c96 20E0      		ldi r18,lo8(0x437f0000)
 1599 0c98 30E0      		ldi r19,hi8(0x437f0000)
 1600 0c9a 4FE7      		ldi r20,hlo8(0x437f0000)
 1601 0c9c 53E4      		ldi r21,hhi8(0x437f0000)
 1602 0c9e 0E94 0000 		call __divsf3
 1603 0ca2 0E94 0000 		call __fixunssfsi
 1604 0ca6 DC01      		movw r26,r24
 1605 0ca8 CB01      		movw r24,r22
 1606               	/* epilogue start */
 1607 0caa 0895      		ret
 1609               	.global	OutTemperatureTC
 1611               	OutTemperatureTC:
 1612 0cac 0F93      		push r16
 1613 0cae 1F93      		push r17
 1614 0cb0 CF93      		push r28
 1615 0cb2 DF93      		push r29
 1616               	/* prologue: function */
 1617               	/* frame size = 0 */
 1618 0cb4 EB01      		movw r28,r22
 1619 0cb6 8130      		cpi r24,lo8(1)
 1620 0cb8 01F0      		breq .L163
 1621 0cba 8130      		cpi r24,lo8(1)
 1622 0cbc 00F0      		brlo .L162
 1623 0cbe 8230      		cpi r24,lo8(2)
 1624 0cc0 01F0      		breq .L164
 1625 0cc2 8330      		cpi r24,lo8(3)
 1626 0cc4 01F4      		brne .L172
 1627 0cc6 00C0      		rjmp .L175
 1628               	.L162:
 1629 0cc8 80E0      		ldi r24,lo8(LabelUNC)
 1630 0cca 90E0      		ldi r25,hi8(LabelUNC)
 1631 0ccc 00C0      		rjmp .L174
 1632               	.L163:
 1633 0cce CB01      		movw r24,r22
 1634 0cd0 64E6      		ldi r22,lo8(100)
 1635 0cd2 70E0      		ldi r23,hi8(100)
 1636 0cd4 0E94 0000 		call __udivmodhi4
 1637 0cd8 6623      		tst r22
 1638 0cda 01F4      		brne .L167
 1639 0cdc 20E0      		ldi r18,lo8(0)
 1640 0cde 00C0      		rjmp .L168
 1641               	.L167:
 1642 0ce0 862F      		mov r24,r22
 1643 0ce2 805D      		subi r24,lo8(-(48))
 1644 0ce4 0E94 0000 		call LCD_OutChar6x8
 1645 0ce8 21E0      		ldi r18,lo8(1)
 1646               	.L168:
 1647 0cea CE01      		movw r24,r28
 1648 0cec 64E6      		ldi r22,lo8(100)
 1649 0cee 70E0      		ldi r23,hi8(100)
 1650 0cf0 0E94 0000 		call __udivmodhi4
 1651 0cf4 182F      		mov r17,r24
 1652 0cf6 092F      		mov r16,r25
 1653 0cf8 6AE0      		ldi r22,lo8(10)
 1654 0cfa 70E0      		ldi r23,hi8(10)
 1655 0cfc 0E94 0000 		call __udivmodhi4
 1656 0d00 6623      		tst r22
 1657 0d02 01F0      		breq .L169
 1658 0d04 862F      		mov r24,r22
 1659 0d06 805D      		subi r24,lo8(-(48))
 1660 0d08 00C0      		rjmp .L173
 1661               	.L169:
 1662 0d0a 2130      		cpi r18,lo8(1)
 1663 0d0c 01F4      		brne .L170
 1664 0d0e 80E3      		ldi r24,lo8(48)
 1665               	.L173:
 1666 0d10 0E94 0000 		call LCD_OutChar6x8
 1667               	.L170:
 1668 0d14 812F      		mov r24,r17
 1669 0d16 902F      		mov r25,r16
 1670 0d18 6AE0      		ldi r22,lo8(10)
 1671 0d1a 70E0      		ldi r23,hi8(10)
 1672 0d1c 0E94 0000 		call __udivmodhi4
 1673 0d20 805D      		subi r24,lo8(-(48))
 1674 0d22 0E94 0000 		call LCD_OutChar6x8
 1675 0d26 80E0      		ldi r24,lo8(LabelCC)
 1676 0d28 90E0      		ldi r25,hi8(LabelCC)
 1677 0d2a 00C0      		rjmp .L174
 1678               	.L164:
 1679 0d2c 80E0      		ldi r24,lo8(LabelBRK)
 1680 0d2e 90E0      		ldi r25,hi8(LabelBRK)
 1681 0d30 00C0      		rjmp .L174
 1682               	.L175:
 1683 0d32 80E0      		ldi r24,lo8(LabelOVR)
 1684 0d34 90E0      		ldi r25,hi8(LabelOVR)
 1685 0d36 00C0      		rjmp .L174
 1686               	.L172:
 1687 0d38 80E0      		ldi r24,lo8(LabelERR)
 1688 0d3a 90E0      		ldi r25,hi8(LabelERR)
 1689               	.L174:
 1690 0d3c 0E94 0000 		call LCD_OutString6x8
 1691               	/* epilogue start */
 1692 0d40 DF91      		pop r29
 1693 0d42 CF91      		pop r28
 1694 0d44 1F91      		pop r17
 1695 0d46 0F91      		pop r16
 1696 0d48 0895      		ret
 1698               	.global	OutTemperatureDS
 1700               	OutTemperatureDS:
 1701 0d4a CF92      		push r12
 1702 0d4c DF92      		push r13
 1703 0d4e EF92      		push r14
 1704 0d50 FF92      		push r15
 1705 0d52 1F93      		push r17
 1706               	/* prologue: function */
 1707               	/* frame size = 0 */
 1708 0d54 2091 0000 		lds r18,DS_Temp
 1709 0d58 3091 0000 		lds r19,(DS_Temp)+1
 1710 0d5c 4091 0000 		lds r20,(DS_Temp)+2
 1711 0d60 5091 0000 		lds r21,(DS_Temp)+3
 1712 0d64 C090 0000 		lds r12,DS_Temp
 1713 0d68 D090 0000 		lds r13,(DS_Temp)+1
 1714 0d6c E090 0000 		lds r14,(DS_Temp)+2
 1715 0d70 F090 0000 		lds r15,(DS_Temp)+3
 1716 0d74 8091 0000 		lds r24,STATUS_DS
 1717 0d78 8130      		cpi r24,lo8(1)
 1718 0d7a 01F0      		breq .+2
 1719 0d7c 00C0      		rjmp .L177
 1720 0d7e CA01      		movw r24,r20
 1721 0d80 B901      		movw r22,r18
 1722 0d82 0E94 0000 		call __fixunssfsi
 1723 0d86 DC01      		movw r26,r24
 1724 0d88 CB01      		movw r24,r22
 1725 0d8a 182F      		mov r17,r24
 1726 0d8c 64E6      		ldi r22,lo8(100)
 1727 0d8e 0E94 0000 		call __udivmodqi4
 1728 0d92 8823      		tst r24
 1729 0d94 01F4      		brne .L178
 1730 0d96 20E0      		ldi r18,lo8(0)
 1731 0d98 00C0      		rjmp .L179
 1732               	.L178:
 1733 0d9a 805D      		subi r24,lo8(-(48))
 1734 0d9c 0E94 0000 		call LCD_OutChar6x8
 1735 0da0 21E0      		ldi r18,lo8(1)
 1736               	.L179:
 1737 0da2 812F      		mov r24,r17
 1738 0da4 64E6      		ldi r22,lo8(100)
 1739 0da6 0E94 0000 		call __udivmodqi4
 1740 0daa 192F      		mov r17,r25
 1741 0dac 892F      		mov r24,r25
 1742 0dae 6AE0      		ldi r22,lo8(10)
 1743 0db0 0E94 0000 		call __udivmodqi4
 1744 0db4 8823      		tst r24
 1745 0db6 01F0      		breq .L180
 1746 0db8 805D      		subi r24,lo8(-(48))
 1747 0dba 00C0      		rjmp .L184
 1748               	.L180:
 1749 0dbc 2130      		cpi r18,lo8(1)
 1750 0dbe 01F4      		brne .L181
 1751 0dc0 80E3      		ldi r24,lo8(48)
 1752               	.L184:
 1753 0dc2 0E94 0000 		call LCD_OutChar6x8
 1754               	.L181:
 1755 0dc6 812F      		mov r24,r17
 1756 0dc8 6AE0      		ldi r22,lo8(10)
 1757 0dca 0E94 0000 		call __udivmodqi4
 1758 0dce 892F      		mov r24,r25
 1759 0dd0 805D      		subi r24,lo8(-(48))
 1760 0dd2 0E94 0000 		call LCD_OutChar6x8
 1761 0dd6 8EE2      		ldi r24,lo8(46)
 1762 0dd8 0E94 0000 		call LCD_OutChar6x8
 1763 0ddc 6091 0000 		lds r22,DS_Temp
 1764 0de0 7091 0000 		lds r23,(DS_Temp)+1
 1765 0de4 8091 0000 		lds r24,(DS_Temp)+2
 1766 0de8 9091 0000 		lds r25,(DS_Temp)+3
 1767 0dec 0E94 0000 		call __fixunssfsi
 1768 0df0 70E0      		ldi r23,lo8(0)
 1769 0df2 8827      		clr r24
 1770 0df4 77FD      		sbrc r23,7
 1771 0df6 8095      		com r24
 1772 0df8 982F      		mov r25,r24
 1773 0dfa 0E94 0000 		call __floatsisf
 1774 0dfe 9B01      		movw r18,r22
 1775 0e00 AC01      		movw r20,r24
 1776 0e02 C701      		movw r24,r14
 1777 0e04 B601      		movw r22,r12
 1778 0e06 0E94 0000 		call __subsf3
 1779 0e0a 20E0      		ldi r18,lo8(0x41200000)
 1780 0e0c 30E0      		ldi r19,hi8(0x41200000)
 1781 0e0e 40E2      		ldi r20,hlo8(0x41200000)
 1782 0e10 51E4      		ldi r21,hhi8(0x41200000)
 1783 0e12 0E94 0000 		call __mulsf3
 1784 0e16 0E94 0000 		call __fixunssfsi
 1785 0e1a DC01      		movw r26,r24
 1786 0e1c CB01      		movw r24,r22
 1787 0e1e 805D      		subi r24,lo8(-(48))
 1788 0e20 0E94 0000 		call LCD_OutChar6x8
 1789 0e24 80E0      		ldi r24,lo8(LabelCC)
 1790 0e26 90E0      		ldi r25,hi8(LabelCC)
 1791 0e28 00C0      		rjmp .L185
 1792               	.L177:
 1793 0e2a 80E0      		ldi r24,lo8(LabelBRK)
 1794 0e2c 90E0      		ldi r25,hi8(LabelBRK)
 1795               	.L185:
 1796 0e2e 0E94 0000 		call LCD_OutString6x8
 1797               	/* epilogue start */
 1798 0e32 1F91      		pop r17
 1799 0e34 FF90      		pop r15
 1800 0e36 EF90      		pop r14
 1801 0e38 DF90      		pop r13
 1802 0e3a CF90      		pop r12
 1803 0e3c 0895      		ret
 1805               	.global	OutUI8_6x8
 1807               	OutUI8_6x8:
 1808 0e3e 1F93      		push r17
 1809               	/* prologue: function */
 1810               	/* frame size = 0 */
 1811 0e40 182F      		mov r17,r24
 1812 0e42 64E6      		ldi r22,lo8(100)
 1813 0e44 0E94 0000 		call __udivmodqi4
 1814 0e48 8823      		tst r24
 1815 0e4a 01F4      		brne .L187
 1816 0e4c 20E0      		ldi r18,lo8(0)
 1817 0e4e 00C0      		rjmp .L188
 1818               	.L187:
 1819 0e50 805D      		subi r24,lo8(-(48))
 1820 0e52 0E94 0000 		call LCD_OutChar6x8
 1821 0e56 21E0      		ldi r18,lo8(1)
 1822               	.L188:
 1823 0e58 812F      		mov r24,r17
 1824 0e5a 64E6      		ldi r22,lo8(100)
 1825 0e5c 0E94 0000 		call __udivmodqi4
 1826 0e60 192F      		mov r17,r25
 1827 0e62 892F      		mov r24,r25
 1828 0e64 6AE0      		ldi r22,lo8(10)
 1829 0e66 0E94 0000 		call __udivmodqi4
 1830 0e6a 8823      		tst r24
 1831 0e6c 01F0      		breq .L189
 1832 0e6e 805D      		subi r24,lo8(-(48))
 1833 0e70 00C0      		rjmp .L192
 1834               	.L189:
 1835 0e72 2130      		cpi r18,lo8(1)
 1836 0e74 01F4      		brne .L190
 1837 0e76 80E3      		ldi r24,lo8(48)
 1838               	.L192:
 1839 0e78 0E94 0000 		call LCD_OutChar6x8
 1840               	.L190:
 1841 0e7c 812F      		mov r24,r17
 1842 0e7e 6AE0      		ldi r22,lo8(10)
 1843 0e80 0E94 0000 		call __udivmodqi4
 1844 0e84 892F      		mov r24,r25
 1845 0e86 805D      		subi r24,lo8(-(48))
 1846 0e88 0E94 0000 		call LCD_OutChar6x8
 1847               	/* epilogue start */
 1848 0e8c 1F91      		pop r17
 1849 0e8e 0895      		ret
 1851               	.global	OutInfoToLCD
 1853               	OutInfoToLCD:
 1854               	/* prologue: function */
 1855               	/* frame size = 0 */
 1856 0e90 80E0      		ldi r24,lo8(0)
 1857 0e92 0E94 0000 		call LCD_clear
 1858 0e96 80E0      		ldi r24,lo8(0)
 1859 0e98 60E0      		ldi r22,lo8(0)
 1860 0e9a 0E94 0000 		call LCD_gotoXY
 1861 0e9e 80E0      		ldi r24,lo8(LabelT1)
 1862 0ea0 90E0      		ldi r25,hi8(LabelT1)
 1863 0ea2 0E94 0000 		call LCD_OutString6x8
 1864 0ea6 0E94 0000 		call OutTemperatureDS
 1865 0eaa 81E0      		ldi r24,lo8(1)
 1866 0eac 60E0      		ldi r22,lo8(0)
 1867 0eae 0E94 0000 		call LCD_gotoXY
 1868 0eb2 80E0      		ldi r24,lo8(LabelT2)
 1869 0eb4 90E0      		ldi r25,hi8(LabelT2)
 1870 0eb6 0E94 0000 		call LCD_OutString6x8
 1871 0eba 8091 0000 		lds r24,STATUS_TC1
 1872 0ebe 6091 0000 		lds r22,VALUE_TC1
 1873 0ec2 7091 0000 		lds r23,(VALUE_TC1)+1
 1874 0ec6 0E94 0000 		call OutTemperatureTC
 1875 0eca 82E0      		ldi r24,lo8(2)
 1876 0ecc 60E0      		ldi r22,lo8(0)
 1877 0ece 0E94 0000 		call LCD_gotoXY
 1878 0ed2 80E0      		ldi r24,lo8(LabelT3)
 1879 0ed4 90E0      		ldi r25,hi8(LabelT3)
 1880 0ed6 0E94 0000 		call LCD_OutString6x8
 1881 0eda 8091 0000 		lds r24,STATUS_TC2
 1882 0ede 6091 0000 		lds r22,VALUE_TC2
 1883 0ee2 7091 0000 		lds r23,(VALUE_TC2)+1
 1884 0ee6 0E94 0000 		call OutTemperatureTC
 1885 0eea 83E0      		ldi r24,lo8(3)
 1886 0eec 60E0      		ldi r22,lo8(0)
 1887 0eee 0E94 0000 		call LCD_gotoXY
 1888 0ef2 80E0      		ldi r24,lo8(LabelM1)
 1889 0ef4 90E0      		ldi r25,hi8(LabelM1)
 1890 0ef6 0E94 0000 		call LCD_OutString6x8
 1891 0efa 8091 0000 		lds r24,PWM1_LEVEL
 1892 0efe 0E94 0000 		call CalculatePercent
 1893 0f02 0E94 0000 		call OutUI8_6x8
 1894 0f06 85E2      		ldi r24,lo8(37)
 1895 0f08 0E94 0000 		call LCD_OutChar6x8
 1896 0f0c 84E0      		ldi r24,lo8(4)
 1897 0f0e 60E0      		ldi r22,lo8(0)
 1898 0f10 0E94 0000 		call LCD_gotoXY
 1899 0f14 80E0      		ldi r24,lo8(LabelM2)
 1900 0f16 90E0      		ldi r25,hi8(LabelM2)
 1901 0f18 0E94 0000 		call LCD_OutString6x8
 1902 0f1c 8091 0000 		lds r24,PWM2_LEVEL
 1903 0f20 0E94 0000 		call CalculatePercent
 1904 0f24 0E94 0000 		call OutUI8_6x8
 1905 0f28 85E2      		ldi r24,lo8(37)
 1906 0f2a 0E94 0000 		call LCD_OutChar6x8
 1907 0f2e 85E0      		ldi r24,lo8(5)
 1908 0f30 60E0      		ldi r22,lo8(0)
 1909 0f32 0E94 0000 		call LCD_gotoXY
 1910 0f36 80E0      		ldi r24,lo8(LabelM3)
 1911 0f38 90E0      		ldi r25,hi8(LabelM3)
 1912 0f3a 0E94 0000 		call LCD_OutString6x8
 1913 0f3e 8091 0000 		lds r24,PWM3_LEVEL
 1914 0f42 0E94 0000 		call CalculatePercent
 1915 0f46 0E94 0000 		call OutUI8_6x8
 1916 0f4a 85E2      		ldi r24,lo8(37)
 1917 0f4c 0E94 0000 		call LCD_OutChar6x8
 1918               	/* epilogue start */
 1919 0f50 0895      		ret
 1921               	.global	CheckButton
 1923               	CheckButton:
 1924               	/* prologue: function */
 1925               	/* frame size = 0 */
 1926 0f52 8091 0000 		lds r24,STATUS
 1927 0f56 82FD      		sbrc r24,2
 1928 0f58 00C0      		rjmp .L200
 1929 0f5a 9899      		sbic 51-32,0
 1930 0f5c 00C0      		rjmp .L197
 1931 0f5e 8091 0000 		lds r24,BUTTON
 1932 0f62 8160      		ori r24,lo8(1)
 1933 0f64 8093 0000 		sts BUTTON,r24
 1934 0f68 8091 0000 		lds r24,STATUS
 1935 0f6c 8260      		ori r24,lo8(2)
 1936 0f6e 8093 0000 		sts STATUS,r24
 1937               	.L197:
 1938 0f72 9999      		sbic 51-32,1
 1939 0f74 00C0      		rjmp .L198
 1940 0f76 8091 0000 		lds r24,BUTTON
 1941 0f7a 8260      		ori r24,lo8(2)
 1942 0f7c 8093 0000 		sts BUTTON,r24
 1943 0f80 8091 0000 		lds r24,STATUS
 1944 0f84 8260      		ori r24,lo8(2)
 1945 0f86 8093 0000 		sts STATUS,r24
 1946               	.L198:
 1947 0f8a 9A99      		sbic 51-32,2
 1948 0f8c 00C0      		rjmp .L199
 1949 0f8e 8091 0000 		lds r24,BUTTON
 1950 0f92 8460      		ori r24,lo8(4)
 1951 0f94 8093 0000 		sts BUTTON,r24
 1952 0f98 8091 0000 		lds r24,STATUS
 1953 0f9c 8260      		ori r24,lo8(2)
 1954 0f9e 8093 0000 		sts STATUS,r24
 1955               	.L199:
 1956 0fa2 86E0      		ldi r24,lo8(6)
 1957 0fa4 8093 0000 		sts CountMUL_BTN_WAIT,r24
 1958 0fa8 14BC      		out 68-32,__zero_reg__
 1959 0faa 85B5      		in r24,69-32
 1960 0fac 8760      		ori r24,lo8(7)
 1961 0fae 85BD      		out 69-32,r24
 1962 0fb0 8091 0000 		lds r24,STATUS
 1963 0fb4 8460      		ori r24,lo8(4)
 1964 0fb6 8093 0000 		sts STATUS,r24
 1965               	.L200:
 1966 0fba 0895      		ret
 1968               	.global	DS18B20_init
 1970               	DS18B20_init:
 1971               	/* prologue: function */
 1972               	/* frame size = 0 */
 1973 0fbc DE98      		cbi 59-32,6
 1974 0fbe D698      		cbi 58-32,6
 1975 0fc0 CE9B      		sbis 57-32,6
 1976 0fc2 00C0      		rjmp .L202
 1977 0fc4 D69A      		sbi 58-32,6
 1978 0fc6 88EE      		ldi r24,lo8(1000)
 1979 0fc8 93E0      		ldi r25,hi8(1000)
 1980               	/* #APP */
 1981               	 ;  105 "c:/winavr/lib/gcc/../../avr/include/util/delay_basic.h" 1
 1982 0fca 0197      		1: sbiw r24,1
 1983 0fcc 01F4      		brne 1b
 1984               	 ;  0 "" 2
 1985               	/* #NOAPP */
 1986 0fce D698      		cbi 58-32,6
 1987 0fd0 80EA      		ldi r24,lo8(-96)
 1988               	/* #APP */
 1989               	 ;  83 "c:/winavr/lib/gcc/../../avr/include/util/delay_basic.h" 1
 1990 0fd2 8A95      		1: dec r24
 1991 0fd4 01F4      		brne 1b
 1992               	 ;  0 "" 2
 1993               	/* #NOAPP */
 1994 0fd6 90EF      		ldi r25,lo8(-16)
 1995 0fd8 22E0      		ldi r18,lo8(2)
 1996 0fda 00C0      		rjmp .L203
 1997               	.L205:
 1998 0fdc 822F      		mov r24,r18
 1999               	/* #APP */
 2000               	 ;  83 "c:/winavr/lib/gcc/../../avr/include/util/delay_basic.h" 1
 2001 0fde 8A95      		1: dec r24
 2002 0fe0 01F4      		brne 1b
 2003               	 ;  0 "" 2
 2004               	/* #NOAPP */
 2005 0fe2 CE9B      		sbis 57-32,6
 2006 0fe4 00C0      		rjmp .L204
 2007               	.L203:
 2008 0fe6 9150      		subi r25,1
 2009 0fe8 00F4      		brcc .L205
 2010 0fea 00C0      		rjmp .L202
 2011               	.L204:
 2012 0fec 80EC      		ldi r24,lo8(960)
 2013 0fee 93E0      		ldi r25,hi8(960)
 2014               	/* #APP */
 2015               	 ;  105 "c:/winavr/lib/gcc/../../avr/include/util/delay_basic.h" 1
 2016 0ff0 0197      		1: sbiw r24,1
 2017 0ff2 01F4      		brne 1b
 2018               	 ;  0 "" 2
 2019               	/* #NOAPP */
 2020 0ff4 80E0      		ldi r24,lo8(0)
 2021 0ff6 0895      		ret
 2022               	.L202:
 2023 0ff8 81E0      		ldi r24,lo8(1)
 2024 0ffa 0895      		ret
 2026               	.global	DS18B20_send
 2028               	DS18B20_send:
 2029               	/* prologue: function */
 2030               	/* frame size = 0 */
 2031 0ffc 382F      		mov r19,r24
 2032 0ffe 28E0      		ldi r18,lo8(8)
 2033 1000 80E0      		ldi r24,lo8(0)
 2034 1002 62E0      		ldi r22,lo8(2)
 2035 1004 5AE1      		ldi r21,lo8(26)
 2036 1006 40EF      		ldi r20,lo8(-16)
 2037 1008 00C0      		rjmp .L209
 2038               	.L212:
 2039 100a D69A      		sbi 58-32,6
 2040 100c 962F      		mov r25,r22
 2041               	/* #APP */
 2042               	 ;  83 "c:/winavr/lib/gcc/../../avr/include/util/delay_basic.h" 1
 2043 100e 9A95      		1: dec r25
 2044 1010 01F4      		brne 1b
 2045               	 ;  0 "" 2
 2046               	/* #NOAPP */
 2047 1012 30FD      		sbrc r19,0
 2048 1014 D698      		cbi 58-32,6
 2049               	.L210:
 2050 1016 952F      		mov r25,r21
 2051               	/* #APP */
 2052               	 ;  83 "c:/winavr/lib/gcc/../../avr/include/util/delay_basic.h" 1
 2053 1018 9A95      		1: dec r25
 2054 101a 01F4      		brne 1b
 2055               	 ;  0 "" 2
 2056               	/* #NOAPP */
 2057 101c 8695      		lsr r24
 2058 101e CE99      		sbic 57-32,6
 2059 1020 8068      		ori r24,lo8(-128)
 2060               	.L211:
 2061 1022 3695      		lsr r19
 2062 1024 942F      		mov r25,r20
 2063               	/* #APP */
 2064               	 ;  83 "c:/winavr/lib/gcc/../../avr/include/util/delay_basic.h" 1
 2065 1026 9A95      		1: dec r25
 2066 1028 01F4      		brne 1b
 2067               	 ;  0 "" 2
 2068               	/* #NOAPP */
 2069 102a D698      		cbi 58-32,6
 2070               	.L209:
 2071 102c 2150      		subi r18,1
 2072 102e 00F4      		brcc .L212
 2073               	/* epilogue start */
 2074 1030 0895      		ret
 2076               	.global	DS_calcCRC8
 2078               	DS_calcCRC8:
 2079               	/* prologue: function */
 2080               	/* frame size = 0 */
 2081 1032 282F      		mov r18,r24
 2082 1034 98E0      		ldi r25,lo8(8)
 2083 1036 48E1      		ldi r20,lo8(24)
 2084 1038 00C0      		rjmp .L215
 2085               	.L218:
 2086 103a 862F      		mov r24,r22
 2087 103c 8227      		eor r24,r18
 2088 103e 382F      		mov r19,r24
 2089 1040 3170      		andi r19,lo8(1)
 2090 1042 80FD      		sbrc r24,0
 2091 1044 6427      		eor r22,r20
 2092               	.L216:
 2093 1046 6695      		lsr r22
 2094 1048 3130      		cpi r19,lo8(1)
 2095 104a 01F4      		brne .L217
 2096 104c 6068      		ori r22,lo8(-128)
 2097               	.L217:
 2098 104e 2695      		lsr r18
 2099               	.L215:
 2100 1050 9150      		subi r25,1
 2101 1052 00F4      		brcc .L218
 2102 1054 862F      		mov r24,r22
 2103               	/* epilogue start */
 2104 1056 0895      		ret
 2106               	.global	DS18B20_read
 2108               	DS18B20_read:
 2109 1058 1F93      		push r17
 2110 105a CF93      		push r28
 2111 105c DF93      		push r29
 2112               	/* prologue: function */
 2113               	/* frame size = 0 */
 2114 105e 10E0      		ldi r17,lo8(0)
 2115 1060 C0E0      		ldi r28,lo8(0)
 2116 1062 D0E0      		ldi r29,hi8(0)
 2117               	.L221:
 2118 1064 8FEF      		ldi r24,lo8(-1)
 2119 1066 0E94 0000 		call DS18B20_send
 2120 106a FE01      		movw r30,r28
 2121 106c E050      		subi r30,lo8(-(DS_TempData))
 2122 106e F040      		sbci r31,hi8(-(DS_TempData))
 2123 1070 8083      		st Z,r24
 2124 1072 612F      		mov r22,r17
 2125 1074 0E94 0000 		call DS_calcCRC8
 2126 1078 182F      		mov r17,r24
 2127 107a 2196      		adiw r28,1
 2128 107c C930      		cpi r28,9
 2129 107e D105      		cpc r29,__zero_reg__
 2130 1080 01F4      		brne .L221
 2131 1082 682F      		mov r22,r24
 2132 1084 8111      		cpse r24,__zero_reg__
 2133 1086 61E0      		ldi r22,lo8(1)
 2134               	.L222:
 2135 1088 862F      		mov r24,r22
 2136               	/* epilogue start */
 2137 108a DF91      		pop r29
 2138 108c CF91      		pop r28
 2139 108e 1F91      		pop r17
 2140 1090 0895      		ret
 2142               	.global	DS18B20_SetResolution
 2144               	DS18B20_SetResolution:
 2145 1092 1F93      		push r17
 2146               	/* prologue: function */
 2147               	/* frame size = 0 */
 2148 1094 182F      		mov r17,r24
 2149 1096 0E94 0000 		call DS18B20_init
 2150 109a 8CEC      		ldi r24,lo8(-52)
 2151 109c 0E94 0000 		call DS18B20_send
 2152 10a0 8EE4      		ldi r24,lo8(78)
 2153 10a2 0E94 0000 		call DS18B20_send
 2154 10a6 8FEF      		ldi r24,lo8(-1)
 2155 10a8 0E94 0000 		call DS18B20_send
 2156 10ac 8FEF      		ldi r24,lo8(-1)
 2157 10ae 0E94 0000 		call DS18B20_send
 2158 10b2 812F      		mov r24,r17
 2159 10b4 0E94 0000 		call DS18B20_send
 2160 10b8 0E94 0000 		call DS18B20_init
 2161 10bc 8CEC      		ldi r24,lo8(-52)
 2162 10be 0E94 0000 		call DS18B20_send
 2163 10c2 88E4      		ldi r24,lo8(72)
 2164 10c4 0E94 0000 		call DS18B20_send
 2165               	/* epilogue start */
 2166 10c8 1F91      		pop r17
 2167 10ca 0895      		ret
 2169               	.global	DS18B20_convertTemp
 2171               	DS18B20_convertTemp:
 2172               	/* prologue: function */
 2173               	/* frame size = 0 */
 2174 10cc 0E94 0000 		call DS18B20_init
 2175 10d0 8823      		tst r24
 2176 10d2 01F0      		breq .L228
 2177 10d4 1092 0000 		sts STATUS_DS,__zero_reg__
 2178 10d8 0895      		ret
 2179               	.L228:
 2180 10da 8CEC      		ldi r24,lo8(-52)
 2181 10dc 0E94 0000 		call DS18B20_send
 2182 10e0 84E4      		ldi r24,lo8(68)
 2183 10e2 0E94 0000 		call DS18B20_send
 2184 10e6 0895      		ret
 2186               	.global	DS18B20_getTemp
 2188               	DS18B20_getTemp:
 2189 10e8 CF92      		push r12
 2190 10ea DF92      		push r13
 2191 10ec EF92      		push r14
 2192 10ee FF92      		push r15
 2193 10f0 0F93      		push r16
 2194 10f2 1F93      		push r17
 2195               	/* prologue: function */
 2196               	/* frame size = 0 */
 2197 10f4 0E94 0000 		call DS18B20_init
 2198 10f8 8823      		tst r24
 2199 10fa 01F4      		brne .L237
 2200               	.L232:
 2201 10fc 8CEC      		ldi r24,lo8(-52)
 2202 10fe 0E94 0000 		call DS18B20_send
 2203 1102 8EEB      		ldi r24,lo8(-66)
 2204 1104 0E94 0000 		call DS18B20_send
 2205 1108 0E94 0000 		call DS18B20_read
 2206 110c 8823      		tst r24
 2207 110e 01F0      		breq .L234
 2208               	.L237:
 2209 1110 1092 0000 		sts STATUS_DS,__zero_reg__
 2210 1114 00C0      		rjmp .L236
 2211               	.L234:
 2212 1116 8091 0000 		lds r24,DS_TempData+1
 2213 111a 9091 0000 		lds r25,DS_TempData
 2214 111e 182F      		mov r17,r24
 2215 1120 00E0      		ldi r16,lo8(0)
 2216 1122 090F      		add r16,r25
 2217 1124 111D      		adc r17,__zero_reg__
 2218 1126 B801      		movw r22,r16
 2219 1128 7770      		andi r23,hi8(2047)
 2220 112a E4E0      		ldi r30,4
 2221 112c 7695      	1:	lsr r23
 2222 112e 6795      		ror r22
 2223 1130 EA95      		dec r30
 2224 1132 01F4      		brne 1b
 2225 1134 80E0      		ldi r24,lo8(0)
 2226 1136 90E0      		ldi r25,hi8(0)
 2227 1138 0E94 0000 		call __floatunsisf
 2228 113c 6093 0000 		sts DS_Temp,r22
 2229 1140 7093 0000 		sts (DS_Temp)+1,r23
 2230 1144 8093 0000 		sts (DS_Temp)+2,r24
 2231 1148 9093 0000 		sts (DS_Temp)+3,r25
 2232 114c C090 0000 		lds r12,DS_Temp
 2233 1150 D090 0000 		lds r13,(DS_Temp)+1
 2234 1154 E090 0000 		lds r14,(DS_Temp)+2
 2235 1158 F090 0000 		lds r15,(DS_Temp)+3
 2236 115c B801      		movw r22,r16
 2237 115e 6F70      		andi r22,lo8(15)
 2238 1160 7070      		andi r23,hi8(15)
 2239 1162 80E0      		ldi r24,lo8(0)
 2240 1164 90E0      		ldi r25,hi8(0)
 2241 1166 0E94 0000 		call __floatunsisf
 2242 116a 20E0      		ldi r18,lo8(0x3d800000)
 2243 116c 30E0      		ldi r19,hi8(0x3d800000)
 2244 116e 40E8      		ldi r20,hlo8(0x3d800000)
 2245 1170 5DE3      		ldi r21,hhi8(0x3d800000)
 2246 1172 0E94 0000 		call __mulsf3
 2247 1176 9B01      		movw r18,r22
 2248 1178 AC01      		movw r20,r24
 2249 117a C701      		movw r24,r14
 2250 117c B601      		movw r22,r12
 2251 117e 0E94 0000 		call __addsf3
 2252 1182 6093 0000 		sts DS_Temp,r22
 2253 1186 7093 0000 		sts (DS_Temp)+1,r23
 2254 118a 8093 0000 		sts (DS_Temp)+2,r24
 2255 118e 9093 0000 		sts (DS_Temp)+3,r25
 2256 1192 17FF      		sbrs r17,7
 2257 1194 00C0      		rjmp .L235
 2258 1196 8091 0000 		lds r24,DS_Temp
 2259 119a 9091 0000 		lds r25,(DS_Temp)+1
 2260 119e A091 0000 		lds r26,(DS_Temp)+2
 2261 11a2 B091 0000 		lds r27,(DS_Temp)+3
 2262 11a6 B058      		subi r27,0x80
 2263 11a8 8093 0000 		sts DS_Temp,r24
 2264 11ac 9093 0000 		sts (DS_Temp)+1,r25
 2265 11b0 A093 0000 		sts (DS_Temp)+2,r26
 2266 11b4 B093 0000 		sts (DS_Temp)+3,r27
 2267               	.L235:
 2268 11b8 81E0      		ldi r24,lo8(1)
 2269 11ba 8093 0000 		sts STATUS_DS,r24
 2270               	.L236:
 2271               	/* epilogue start */
 2272 11be 1F91      		pop r17
 2273 11c0 0F91      		pop r16
 2274 11c2 FF90      		pop r15
 2275 11c4 EF90      		pop r14
 2276 11c6 DF90      		pop r13
 2277 11c8 CF90      		pop r12
 2278 11ca 0895      		ret
 2280               	.global	PWM_sendByte
 2282               	PWM_sendByte:
 2283               	/* prologue: function */
 2284               	/* frame size = 0 */
 2285 11cc 98E0      		ldi r25,lo8(8)
 2286 11ce 20ED      		ldi r18,lo8(2000)
 2287 11d0 37E0      		ldi r19,hi8(2000)
 2288 11d2 00C0      		rjmp .L239
 2289               	.L242:
 2290 11d4 87FF      		sbrs r24,7
 2291 11d6 00C0      		rjmp .L240
 2292 11d8 DB9A      		sbi 59-32,3
 2293 11da 00C0      		rjmp .L241
 2294               	.L240:
 2295 11dc DB98      		cbi 59-32,3
 2296               	.L241:
 2297 11de F901      		movw r30,r18
 2298               	/* #APP */
 2299               	 ;  105 "c:/winavr/lib/gcc/../../avr/include/util/delay_basic.h" 1
 2300 11e0 3197      		1: sbiw r30,1
 2301 11e2 01F4      		brne 1b
 2302               	 ;  0 "" 2
 2303               	/* #NOAPP */
 2304 11e4 DA9A      		sbi 59-32,2
 2305 11e6 F901      		movw r30,r18
 2306               	/* #APP */
 2307               	 ;  105 "c:/winavr/lib/gcc/../../avr/include/util/delay_basic.h" 1
 2308 11e8 3197      		1: sbiw r30,1
 2309 11ea 01F4      		brne 1b
 2310               	 ;  0 "" 2
 2311               	/* #NOAPP */
 2312 11ec DA98      		cbi 59-32,2
 2313 11ee 880F      		lsl r24
 2314 11f0 F901      		movw r30,r18
 2315               	/* #APP */
 2316               	 ;  105 "c:/winavr/lib/gcc/../../avr/include/util/delay_basic.h" 1
 2317 11f2 3197      		1: sbiw r30,1
 2318 11f4 01F4      		brne 1b
 2319               	 ;  0 "" 2
 2320               	/* #NOAPP */
 2321               	.L239:
 2322 11f6 9150      		subi r25,1
 2323 11f8 00F4      		brcc .L242
 2324 11fa 80E1      		ldi r24,lo8(10000)
 2325 11fc 97E2      		ldi r25,hi8(10000)
 2326               	/* #APP */
 2327               	 ;  105 "c:/winavr/lib/gcc/../../avr/include/util/delay_basic.h" 1
 2328 11fe 0197      		1: sbiw r24,1
 2329 1200 01F4      		brne 1b
 2330               	 ;  0 "" 2
 2331               	/* epilogue start */
 2332               	/* #NOAPP */
 2333 1202 0895      		ret
 2335               	.global	PWM_send
 2337               	PWM_send:
 2338 1204 0F93      		push r16
 2339 1206 1F93      		push r17
 2340               	/* prologue: function */
 2341               	/* frame size = 0 */
 2342 1208 082F      		mov r16,r24
 2343 120a 162F      		mov r17,r22
 2344 120c 0E94 0000 		call PWM_sendByte
 2345 1210 812F      		mov r24,r17
 2346 1212 0E94 0000 		call PWM_sendByte
 2347 1216 812F      		mov r24,r17
 2348 1218 800F      		add r24,r16
 2349 121a 0E94 0000 		call PWM_sendByte
 2350 121e 80E2      		ldi r24,lo8(20000)
 2351 1220 9EE4      		ldi r25,hi8(20000)
 2352               	/* #APP */
 2353               	 ;  105 "c:/winavr/lib/gcc/../../avr/include/util/delay_basic.h" 1
 2354 1222 0197      		1: sbiw r24,1
 2355 1224 01F4      		brne 1b
 2356               	 ;  0 "" 2
 2357               	/* epilogue start */
 2358               	/* #NOAPP */
 2359 1226 1F91      		pop r17
 2360 1228 0F91      		pop r16
 2361 122a 0895      		ret
 2363               	.global	Work_T3_M3
 2365               	Work_T3_M3:
 2366 122c AF92      		push r10
 2367 122e BF92      		push r11
 2368 1230 CF92      		push r12
 2369 1232 DF92      		push r13
 2370 1234 EF92      		push r14
 2371 1236 FF92      		push r15
 2372 1238 0F93      		push r16
 2373 123a 1F93      		push r17
 2374               	/* prologue: function */
 2375               	/* frame size = 0 */
 2376 123c 8091 0000 		lds r24,STATUS_TC2
 2377 1240 8130      		cpi r24,lo8(1)
 2378 1242 01F0      		breq .+2
 2379 1244 00C0      		rjmp .L247
 2380 1246 2091 0000 		lds r18,VALUE_TC2
 2381 124a 3091 0000 		lds r19,(VALUE_TC2)+1
 2382 124e 8091 0000 		lds r24,SETVAL_TEMP_PYROLYS_START
 2383 1252 9091 0000 		lds r25,(SETVAL_TEMP_PYROLYS_START)+1
 2384 1256 2817      		cp r18,r24
 2385 1258 3907      		cpc r19,r25
 2386 125a 00F4      		brsh .+2
 2387 125c 00C0      		rjmp .L247
 2388 125e 8091 0000 		lds r24,STATUS
 2389 1262 85FD      		sbrc r24,5
 2390 1264 00C0      		rjmp .L248
 2391 1266 8091 0000 		lds r24,STATUS
 2392 126a 8062      		ori r24,lo8(32)
 2393 126c 8093 0000 		sts STATUS,r24
 2394               	.L248:
 2395 1270 2091 0000 		lds r18,VALUE_TC2
 2396 1274 3091 0000 		lds r19,(VALUE_TC2)+1
 2397 1278 8091 0000 		lds r24,SETVAL_TEMP_PYROLYS_FULL
 2398 127c 9091 0000 		lds r25,(SETVAL_TEMP_PYROLYS_FULL)+1
 2399 1280 2817      		cp r18,r24
 2400 1282 3907      		cpc r19,r25
 2401 1284 00F0      		brlo .L249
 2402 1286 0F2E      		mov __tmp_reg__,r31
 2403 1288 F0E0      		ldi r31,lo8(0x437f0000)
 2404 128a EF2E      		mov r14,r31
 2405 128c F0E0      		ldi r31,hi8(0x437f0000)
 2406 128e FF2E      		mov r15,r31
 2407 1290 FFE7      		ldi r31,hlo8(0x437f0000)
 2408 1292 0F2F      		mov r16,r31
 2409 1294 F3E4      		ldi r31,hhi8(0x437f0000)
 2410 1296 1F2F      		mov r17,r31
 2411 1298 F02D      		mov r31,__tmp_reg__
 2412 129a 00C0      		rjmp .L250
 2413               	.L249:
 2414 129c 6091 0000 		lds r22,VALUE_TC2
 2415 12a0 7091 0000 		lds r23,(VALUE_TC2)+1
 2416 12a4 2091 0000 		lds r18,SETVAL_TEMP_PYROLYS_START
 2417 12a8 3091 0000 		lds r19,(SETVAL_TEMP_PYROLYS_START)+1
 2418 12ac A090 0000 		lds r10,PWM3_Step_Discret
 2419 12b0 B090 0000 		lds r11,(PWM3_Step_Discret)+1
 2420 12b4 C090 0000 		lds r12,(PWM3_Step_Discret)+2
 2421 12b8 D090 0000 		lds r13,(PWM3_Step_Discret)+3
 2422 12bc E090 0000 		lds r14,PWM3_Start_Discret
 2423 12c0 621B      		sub r22,r18
 2424 12c2 730B      		sbc r23,r19
 2425 12c4 80E0      		ldi r24,lo8(0)
 2426 12c6 90E0      		ldi r25,hi8(0)
 2427 12c8 0E94 0000 		call __floatunsisf
 2428 12cc A601      		movw r20,r12
 2429 12ce 9501      		movw r18,r10
 2430 12d0 0E94 0000 		call __mulsf3
 2431 12d4 5B01      		movw r10,r22
 2432 12d6 6C01      		movw r12,r24
 2433 12d8 FF24      		clr r15
 2434 12da 0027      		clr r16
 2435 12dc F7FC      		sbrc r15,7
 2436 12de 0095      		com r16
 2437 12e0 102F      		mov r17,r16
 2438 12e2 C801      		movw r24,r16
 2439 12e4 B701      		movw r22,r14
 2440 12e6 0E94 0000 		call __floatsisf
 2441 12ea 9B01      		movw r18,r22
 2442 12ec AC01      		movw r20,r24
 2443 12ee C601      		movw r24,r12
 2444 12f0 B501      		movw r22,r10
 2445 12f2 0E94 0000 		call __addsf3
 2446 12f6 7B01      		movw r14,r22
 2447 12f8 8C01      		movw r16,r24
 2448 12fa 20E0      		ldi r18,lo8(0x437f0000)
 2449 12fc 30E0      		ldi r19,hi8(0x437f0000)
 2450 12fe 4FE7      		ldi r20,hlo8(0x437f0000)
 2451 1300 53E4      		ldi r21,hhi8(0x437f0000)
 2452 1302 0E94 0000 		call __gtsf2
 2453 1306 1816      		cp __zero_reg__,r24
 2454 1308 04F4      		brge .L250
 2455 130a 6FEF      		ldi r22,lo8(-1)
 2456 130c 00C0      		rjmp .L252
 2457               	.L250:
 2458 130e C801      		movw r24,r16
 2459 1310 B701      		movw r22,r14
 2460 1312 0E94 0000 		call __fixunssfsi
 2461               	.L252:
 2462 1316 8091 0000 		lds r24,PWM3_LEVEL
 2463 131a 8617      		cp r24,r22
 2464 131c 01F0      		breq .L255
 2465 131e 6093 0000 		sts PWM3_LEVEL,r22
 2466 1322 6091 0000 		lds r22,PWM3_LEVEL
 2467 1326 83E0      		ldi r24,lo8(3)
 2468 1328 0E94 0000 		call PWM_send
 2469 132c 00C0      		rjmp .L255
 2470               	.L247:
 2471 132e 8091 0000 		lds r24,PWM3_LEVEL
 2472 1332 8823      		tst r24
 2473 1334 01F0      		breq .L254
 2474 1336 1092 0000 		sts PWM3_LEVEL,__zero_reg__
 2475 133a 6091 0000 		lds r22,PWM3_LEVEL
 2476 133e 83E0      		ldi r24,lo8(3)
 2477 1340 0E94 0000 		call PWM_send
 2478               	.L254:
 2479 1344 8091 0000 		lds r24,STATUS
 2480 1348 85FF      		sbrs r24,5
 2481 134a 00C0      		rjmp .L255
 2482 134c 8091 0000 		lds r24,STATUS
 2483 1350 8F7D      		andi r24,lo8(-33)
 2484 1352 8093 0000 		sts STATUS,r24
 2485               	.L255:
 2486               	/* epilogue start */
 2487 1356 1F91      		pop r17
 2488 1358 0F91      		pop r16
 2489 135a FF90      		pop r15
 2490 135c EF90      		pop r14
 2491 135e DF90      		pop r13
 2492 1360 CF90      		pop r12
 2493 1362 BF90      		pop r11
 2494 1364 AF90      		pop r10
 2495 1366 0895      		ret
 2497               	.global	Work_T12_M12
 2499               	Work_T12_M12:
 2500 1368 5F92      		push r5
 2501 136a 6F92      		push r6
 2502 136c 7F92      		push r7
 2503 136e 8F92      		push r8
 2504 1370 9F92      		push r9
 2505 1372 AF92      		push r10
 2506 1374 BF92      		push r11
 2507 1376 CF92      		push r12
 2508 1378 DF92      		push r13
 2509 137a EF92      		push r14
 2510 137c FF92      		push r15
 2511 137e 0F93      		push r16
 2512 1380 1F93      		push r17
 2513 1382 CF93      		push r28
 2514 1384 DF93      		push r29
 2515               	/* prologue: function */
 2516               	/* frame size = 0 */
 2517 1386 8091 0000 		lds r24,STATUS
 2518 138a 86FF      		sbrs r24,6
 2519 138c 00C0      		rjmp .L258
 2520 138e 9091 0000 		lds r25,M12_Step_Start
 2521 1392 8091 0000 		lds r24,M1_begin_start_on_step
 2522 1396 8917      		cp r24,r25
 2523 1398 00F4      		brsh .L259
 2524 139a 9091 0000 		lds r25,M12_Step_Start
 2525 139e 8091 0000 		lds r24,M1_end_start_on_step
 2526 13a2 8917      		cp r24,r25
 2527 13a4 00F0      		brlo .L259
 2528 13a6 A090 0000 		lds r10,PWM1_Step_Discret
 2529 13aa B090 0000 		lds r11,(PWM1_Step_Discret)+1
 2530 13ae C090 0000 		lds r12,(PWM1_Step_Discret)+2
 2531 13b2 D090 0000 		lds r13,(PWM1_Step_Discret)+3
 2532 13b6 6091 0000 		lds r22,M12_Step_Start
 2533 13ba 2091 0000 		lds r18,M1_begin_start_on_step
 2534 13be E090 0000 		lds r14,PWM1_Start_Discret
 2535 13c2 70E0      		ldi r23,lo8(0)
 2536 13c4 621B      		sub r22,r18
 2537 13c6 7109      		sbc r23,__zero_reg__
 2538 13c8 8827      		clr r24
 2539 13ca 77FD      		sbrc r23,7
 2540 13cc 8095      		com r24
 2541 13ce 982F      		mov r25,r24
 2542 13d0 0E94 0000 		call __floatsisf
 2543 13d4 9B01      		movw r18,r22
 2544 13d6 AC01      		movw r20,r24
 2545 13d8 C601      		movw r24,r12
 2546 13da B501      		movw r22,r10
 2547 13dc 0E94 0000 		call __mulsf3
 2548 13e0 5B01      		movw r10,r22
 2549 13e2 6C01      		movw r12,r24
 2550 13e4 FF24      		clr r15
 2551 13e6 0027      		clr r16
 2552 13e8 F7FC      		sbrc r15,7
 2553 13ea 0095      		com r16
 2554 13ec 102F      		mov r17,r16
 2555 13ee C801      		movw r24,r16
 2556 13f0 B701      		movw r22,r14
 2557 13f2 0E94 0000 		call __floatsisf
 2558 13f6 9B01      		movw r18,r22
 2559 13f8 AC01      		movw r20,r24
 2560 13fa C601      		movw r24,r12
 2561 13fc B501      		movw r22,r10
 2562 13fe 0E94 0000 		call __addsf3
 2563 1402 0E94 0000 		call __fixunssfsi
 2564 1406 6093 0000 		sts PWM1_LEVEL,r22
 2565 140a 6091 0000 		lds r22,PWM1_LEVEL
 2566 140e 81E0      		ldi r24,lo8(1)
 2567 1410 0E94 0000 		call PWM_send
 2568               	.L259:
 2569 1414 2091 0000 		lds r18,M12_Step_Start
 2570 1418 8091 0000 		lds r24,M1_end_start_on_step
 2571 141c 30E0      		ldi r19,lo8(0)
 2572 141e 90E0      		ldi r25,lo8(0)
 2573 1420 0196      		adiw r24,1
 2574 1422 2817      		cp r18,r24
 2575 1424 3907      		cpc r19,r25
 2576 1426 01F4      		brne .L260
 2577 1428 8FEF      		ldi r24,lo8(-1)
 2578 142a 8093 0000 		sts PWM1_LEVEL,r24
 2579 142e 6091 0000 		lds r22,PWM1_LEVEL
 2580 1432 81E0      		ldi r24,lo8(1)
 2581 1434 0E94 0000 		call PWM_send
 2582               	.L260:
 2583 1438 9091 0000 		lds r25,M12_Step_Start
 2584 143c 8091 0000 		lds r24,M2_begin_start_on_step
 2585 1440 9817      		cp r25,r24
 2586 1442 00F0      		brlo .L261
 2587 1444 9091 0000 		lds r25,M12_Step_Start
 2588 1448 8091 0000 		lds r24,M2_end_start_on_step
 2589 144c 8917      		cp r24,r25
 2590 144e 00F0      		brlo .L261
 2591 1450 A090 0000 		lds r10,PWM2_Step_Discret
 2592 1454 B090 0000 		lds r11,(PWM2_Step_Discret)+1
 2593 1458 C090 0000 		lds r12,(PWM2_Step_Discret)+2
 2594 145c D090 0000 		lds r13,(PWM2_Step_Discret)+3
 2595 1460 6091 0000 		lds r22,M12_Step_Start
 2596 1464 2091 0000 		lds r18,M2_begin_start_on_step
 2597 1468 E090 0000 		lds r14,PWM2_Start_Discret
 2598 146c 70E0      		ldi r23,lo8(0)
 2599 146e 621B      		sub r22,r18
 2600 1470 7109      		sbc r23,__zero_reg__
 2601 1472 8827      		clr r24
 2602 1474 77FD      		sbrc r23,7
 2603 1476 8095      		com r24
 2604 1478 982F      		mov r25,r24
 2605 147a 0E94 0000 		call __floatsisf
 2606 147e 9B01      		movw r18,r22
 2607 1480 AC01      		movw r20,r24
 2608 1482 C601      		movw r24,r12
 2609 1484 B501      		movw r22,r10
 2610 1486 0E94 0000 		call __mulsf3
 2611 148a 5B01      		movw r10,r22
 2612 148c 6C01      		movw r12,r24
 2613 148e FF24      		clr r15
 2614 1490 0027      		clr r16
 2615 1492 F7FC      		sbrc r15,7
 2616 1494 0095      		com r16
 2617 1496 102F      		mov r17,r16
 2618 1498 C801      		movw r24,r16
 2619 149a B701      		movw r22,r14
 2620 149c 0E94 0000 		call __floatsisf
 2621 14a0 9B01      		movw r18,r22
 2622 14a2 AC01      		movw r20,r24
 2623 14a4 C601      		movw r24,r12
 2624 14a6 B501      		movw r22,r10
 2625 14a8 0E94 0000 		call __addsf3
 2626 14ac 0E94 0000 		call __fixunssfsi
 2627 14b0 6093 0000 		sts PWM2_LEVEL,r22
 2628 14b4 6091 0000 		lds r22,PWM2_LEVEL
 2629 14b8 82E0      		ldi r24,lo8(2)
 2630 14ba 0E94 0000 		call PWM_send
 2631               	.L261:
 2632 14be 2091 0000 		lds r18,M12_Step_Start
 2633 14c2 8091 0000 		lds r24,M2_end_start_on_step
 2634 14c6 30E0      		ldi r19,lo8(0)
 2635 14c8 90E0      		ldi r25,lo8(0)
 2636 14ca 0196      		adiw r24,1
 2637 14cc 2817      		cp r18,r24
 2638 14ce 3907      		cpc r19,r25
 2639 14d0 01F4      		brne .L262
 2640 14d2 8FEF      		ldi r24,lo8(-1)
 2641 14d4 8093 0000 		sts PWM2_LEVEL,r24
 2642 14d8 6091 0000 		lds r22,PWM2_LEVEL
 2643 14dc 82E0      		ldi r24,lo8(2)
 2644 14de 0E94 0000 		call PWM_send
 2645 14e2 8091 0000 		lds r24,STATUS
 2646 14e6 8F7B      		andi r24,lo8(-65)
 2647 14e8 8093 0000 		sts STATUS,r24
 2648               	.L262:
 2649 14ec 8091 0000 		lds r24,M12_Step_Start
 2650 14f0 8F5F      		subi r24,lo8(-(1))
 2651 14f2 8093 0000 		sts M12_Step_Start,r24
 2652               	.L258:
 2653 14f6 8091 0000 		lds r24,STATUS
 2654 14fa 87FF      		sbrs r24,7
 2655 14fc 00C0      		rjmp .L263
 2656 14fe 8091 0000 		lds r24,M12_Step_Stop
 2657 1502 8823      		tst r24
 2658 1504 01F4      		brne .L264
 2659 1506 1092 0000 		sts PWM2_LEVEL,__zero_reg__
 2660 150a 6091 0000 		lds r22,PWM2_LEVEL
 2661 150e 82E0      		ldi r24,lo8(2)
 2662 1510 0E94 0000 		call PWM_send
 2663               	.L264:
 2664 1514 9091 0000 		lds r25,M12_Step_Stop
 2665 1518 8091 0000 		lds r24,M1_stop_on_step
 2666 151c 9817      		cp r25,r24
 2667 151e 01F4      		brne .L265
 2668 1520 1092 0000 		sts PWM1_LEVEL,__zero_reg__
 2669 1524 6091 0000 		lds r22,PWM1_LEVEL
 2670 1528 81E0      		ldi r24,lo8(1)
 2671 152a 0E94 0000 		call PWM_send
 2672 152e 8091 0000 		lds r24,STATUS
 2673 1532 8F77      		andi r24,lo8(127)
 2674 1534 8093 0000 		sts STATUS,r24
 2675               	.L265:
 2676 1538 8091 0000 		lds r24,M12_Step_Stop
 2677 153c 8F5F      		subi r24,lo8(-(1))
 2678 153e 8093 0000 		sts M12_Step_Stop,r24
 2679               	.L263:
 2680 1542 8091 0000 		lds r24,STATUS_DS
 2681 1546 8130      		cpi r24,lo8(1)
 2682 1548 01F0      		breq .+2
 2683 154a 00C0      		rjmp .L266
 2684 154c 8091 0000 		lds r24,STATUS_TC1
 2685 1550 8130      		cpi r24,lo8(1)
 2686 1552 01F0      		breq .+2
 2687 1554 00C0      		rjmp .L266
 2688 1556 E090 0000 		lds r14,VALUE_TC1
 2689 155a F090 0000 		lds r15,(VALUE_TC1)+1
 2690 155e 6091 0000 		lds r22,DS_Temp
 2691 1562 7091 0000 		lds r23,(DS_Temp)+1
 2692 1566 8091 0000 		lds r24,(DS_Temp)+2
 2693 156a 9091 0000 		lds r25,(DS_Temp)+3
 2694 156e 0091 0000 		lds r16,SETVAL_DELTA_TEMP_SHUTDOWN
 2695 1572 0E94 0000 		call __fixunssfsi
 2696 1576 E61A      		sub r14,r22
 2697 1578 F108      		sbc r15,__zero_reg__
 2698 157a 10E0      		ldi r17,lo8(0)
 2699 157c E016      		cp r14,r16
 2700 157e F106      		cpc r15,r17
 2701 1580 00F4      		brsh .+2
 2702 1582 00C0      		rjmp .L266
 2703 1584 8091 0000 		lds r24,STATUS
 2704 1588 84FD      		sbrc r24,4
 2705 158a 00C0      		rjmp .L267
 2706 158c 8091 0000 		lds r24,STATUS
 2707 1590 8061      		ori r24,lo8(16)
 2708 1592 8093 0000 		sts STATUS,r24
 2709               	.L267:
 2710 1596 6091 0000 		lds r22,DS_Temp
 2711 159a 7091 0000 		lds r23,(DS_Temp)+1
 2712 159e 8091 0000 		lds r24,(DS_Temp)+2
 2713 15a2 9091 0000 		lds r25,(DS_Temp)+3
 2714 15a6 0091 0000 		lds r16,SETVAL_TEMP_ROOM
 2715 15aa F090 0000 		lds r15,SETVAL_DELTA_TEMP_ROOM
 2716 15ae C091 0000 		lds r28,VALUE_TC1
 2717 15b2 D091 0000 		lds r29,(VALUE_TC1)+1
 2718 15b6 9090 0000 		lds r9,SETVAL_TEMP_TOP_OVEN
 2719 15ba E090 0000 		lds r14,SETVAL_DELTA_TEMP_TOP_OVEN
 2720 15be A090 0000 		lds r10,DS_Temp
 2721 15c2 B090 0000 		lds r11,(DS_Temp)+1
 2722 15c6 C090 0000 		lds r12,(DS_Temp)+2
 2723 15ca D090 0000 		lds r13,(DS_Temp)+3
 2724 15ce 5090 0000 		lds r5,SETVAL_TEMP_ROOM
 2725 15d2 6090 0000 		lds r6,VALUE_TC1
 2726 15d6 7090 0000 		lds r7,(VALUE_TC1)+1
 2727 15da 8090 0000 		lds r8,SETVAL_TEMP_TOP_OVEN
 2728 15de 0E94 0000 		call __fixunssfsi
 2729 15e2 70E0      		ldi r23,lo8(0)
 2730 15e4 10E0      		ldi r17,lo8(0)
 2731 15e6 0F19      		sub r16,r15
 2732 15e8 1109      		sbc r17,__zero_reg__
 2733 15ea 0617      		cp r16,r22
 2734 15ec 1707      		cpc r17,r23
 2735 15ee 04F0      		brlt .L268
 2736 15f0 892D      		mov r24,r9
 2737 15f2 90E0      		ldi r25,lo8(0)
 2738 15f4 8E19      		sub r24,r14
 2739 15f6 9109      		sbc r25,__zero_reg__
 2740 15f8 8C17      		cp r24,r28
 2741 15fa 9D07      		cpc r25,r29
 2742 15fc 00F0      		brlo .L268
 2743 15fe 8091 0000 		lds r24,PWM1_LEVEL
 2744 1602 8823      		tst r24
 2745 1604 01F4      		brne .L268
 2746 1606 8091 0000 		lds r24,STATUS
 2747 160a 86FD      		sbrc r24,6
 2748 160c 00C0      		rjmp .L268
 2749 160e 1092 0000 		sts M12_Step_Start,__zero_reg__
 2750 1612 8091 0000 		lds r24,STATUS
 2751 1616 8F77      		andi r24,lo8(127)
 2752 1618 8093 0000 		sts STATUS,r24
 2753 161c 8091 0000 		lds r24,STATUS
 2754 1620 8064      		ori r24,lo8(64)
 2755 1622 8093 0000 		sts STATUS,r24
 2756               	.L268:
 2757 1626 C601      		movw r24,r12
 2758 1628 B501      		movw r22,r10
 2759 162a 0E94 0000 		call __fixunssfsi
 2760 162e 6515      		cp r22,r5
 2761 1630 00F4      		brsh .L269
 2762 1632 882D      		mov r24,r8
 2763 1634 90E0      		ldi r25,lo8(0)
 2764 1636 6816      		cp r6,r24
 2765 1638 7906      		cpc r7,r25
 2766 163a 00F0      		brlo .L272
 2767               	.L269:
 2768 163c 8091 0000 		lds r24,PWM1_LEVEL
 2769 1640 8823      		tst r24
 2770 1642 01F0      		breq .L272
 2771 1644 8091 0000 		lds r24,STATUS
 2772 1648 87FD      		sbrc r24,7
 2773 164a 00C0      		rjmp .L272
 2774 164c 1092 0000 		sts M12_Step_Stop,__zero_reg__
 2775 1650 8091 0000 		lds r24,STATUS
 2776 1654 8F7B      		andi r24,lo8(-65)
 2777 1656 8093 0000 		sts STATUS,r24
 2778 165a 8091 0000 		lds r24,STATUS
 2779 165e 8068      		ori r24,lo8(-128)
 2780 1660 00C0      		rjmp .L273
 2781               	.L266:
 2782 1662 8091 0000 		lds r24,STATUS
 2783 1666 87FD      		sbrc r24,7
 2784 1668 00C0      		rjmp .L271
 2785 166a 8091 0000 		lds r24,PWM1_LEVEL
 2786 166e 8823      		tst r24
 2787 1670 01F0      		breq .L271
 2788 1672 1092 0000 		sts M12_Step_Stop,__zero_reg__
 2789 1676 8091 0000 		lds r24,STATUS
 2790 167a 8F7B      		andi r24,lo8(-65)
 2791 167c 8093 0000 		sts STATUS,r24
 2792 1680 8091 0000 		lds r24,STATUS
 2793 1684 8068      		ori r24,lo8(-128)
 2794 1686 8093 0000 		sts STATUS,r24
 2795               	.L271:
 2796 168a 8091 0000 		lds r24,STATUS
 2797 168e 84FF      		sbrs r24,4
 2798 1690 00C0      		rjmp .L272
 2799 1692 8091 0000 		lds r24,STATUS
 2800 1696 8F7E      		andi r24,lo8(-17)
 2801               	.L273:
 2802 1698 8093 0000 		sts STATUS,r24
 2803               	.L272:
 2804               	/* epilogue start */
 2805 169c DF91      		pop r29
 2806 169e CF91      		pop r28
 2807 16a0 1F91      		pop r17
 2808 16a2 0F91      		pop r16
 2809 16a4 FF90      		pop r15
 2810 16a6 EF90      		pop r14
 2811 16a8 DF90      		pop r13
 2812 16aa CF90      		pop r12
 2813 16ac BF90      		pop r11
 2814 16ae AF90      		pop r10
 2815 16b0 9F90      		pop r9
 2816 16b2 8F90      		pop r8
 2817 16b4 7F90      		pop r7
 2818 16b6 6F90      		pop r6
 2819 16b8 5F90      		pop r5
 2820 16ba 0895      		ret
 2822               	.global	UpdateValuesFromEEPROM
 2824               	UpdateValuesFromEEPROM:
 2825               	/* prologue: function */
 2826               	/* frame size = 0 */
 2827 16bc 6091 0000 		lds r22,LED_LIGTH
 2828 16c0 80E0      		ldi r24,lo8(EE_LED_LIGTH)
 2829 16c2 90E0      		ldi r25,hi8(EE_LED_LIGTH)
 2830 16c4 0E94 0000 		call __eeupd_byte_m32
 2831 16c8 6091 0000 		lds r22,SETVAL_TEMP_ROOM
 2832 16cc 80E0      		ldi r24,lo8(EE_SETVAL_TEMP_ROOM)
 2833 16ce 90E0      		ldi r25,hi8(EE_SETVAL_TEMP_ROOM)
 2834 16d0 0E94 0000 		call __eeupd_byte_m32
 2835 16d4 6091 0000 		lds r22,SETVAL_DELTA_TEMP_ROOM
 2836 16d8 80E0      		ldi r24,lo8(EE_SETVAL_DELTA_TEMP_ROOM)
 2837 16da 90E0      		ldi r25,hi8(EE_SETVAL_DELTA_TEMP_ROOM)
 2838 16dc 0E94 0000 		call __eeupd_byte_m32
 2839 16e0 6091 0000 		lds r22,SETVAL_TEMP_TOP_OVEN
 2840 16e4 80E0      		ldi r24,lo8(EE_SETVAL_TEMP_TOP_OVEN)
 2841 16e6 90E0      		ldi r25,hi8(EE_SETVAL_TEMP_TOP_OVEN)
 2842 16e8 0E94 0000 		call __eeupd_byte_m32
 2843 16ec 6091 0000 		lds r22,SETVAL_DELTA_TEMP_TOP_OVEN
 2844 16f0 80E0      		ldi r24,lo8(EE_SETVAL_DELTA_TEMP_TOP_OVEN)
 2845 16f2 90E0      		ldi r25,hi8(EE_SETVAL_DELTA_TEMP_TOP_OVEN)
 2846 16f4 0E94 0000 		call __eeupd_byte_m32
 2847 16f8 6091 0000 		lds r22,SETVAL_TEMP_PYROLYS_START
 2848 16fc 7091 0000 		lds r23,(SETVAL_TEMP_PYROLYS_START)+1
 2849 1700 80E0      		ldi r24,lo8(EE_SETVAL_TEMP_PYROLYS_START)
 2850 1702 90E0      		ldi r25,hi8(EE_SETVAL_TEMP_PYROLYS_START)
 2851 1704 0E94 0000 		call __eeupd_word_m32
 2852 1708 6091 0000 		lds r22,SETVAL_TEMP_PYROLYS_FULL
 2853 170c 7091 0000 		lds r23,(SETVAL_TEMP_PYROLYS_FULL)+1
 2854 1710 80E0      		ldi r24,lo8(EE_SETVAL_TEMP_PYROLYS_FULL)
 2855 1712 90E0      		ldi r25,hi8(EE_SETVAL_TEMP_PYROLYS_FULL)
 2856 1714 0E94 0000 		call __eeupd_word_m32
 2857 1718 6091 0000 		lds r22,SETVAL_DELTA_TEMP_SHUTDOWN
 2858 171c 80E0      		ldi r24,lo8(EE_SETVAL_DELTA_TEMP_SHUTDOWN)
 2859 171e 90E0      		ldi r25,hi8(EE_SETVAL_DELTA_TEMP_SHUTDOWN)
 2860 1720 0E94 0000 		call __eeupd_byte_m32
 2861 1724 6091 0000 		lds r22,SETVAL_PWM_FAN1_START
 2862 1728 80E0      		ldi r24,lo8(EE_SETVAL_PWM_FAN1_START)
 2863 172a 90E0      		ldi r25,hi8(EE_SETVAL_PWM_FAN1_START)
 2864 172c 0E94 0000 		call __eeupd_byte_m32
 2865 1730 6091 0000 		lds r22,SETVAL_PWM_FAN2_START
 2866 1734 80E0      		ldi r24,lo8(EE_SETVAL_PWM_FAN2_START)
 2867 1736 90E0      		ldi r25,hi8(EE_SETVAL_PWM_FAN2_START)
 2868 1738 0E94 0000 		call __eeupd_byte_m32
 2869 173c 6091 0000 		lds r22,SETVAL_PWM_FAN3_START
 2870 1740 80E0      		ldi r24,lo8(EE_SETVAL_PWM_FAN3_START)
 2871 1742 90E0      		ldi r25,hi8(EE_SETVAL_PWM_FAN3_START)
 2872 1744 0E94 0000 		call __eeupd_byte_m32
 2873               	/* epilogue start */
 2874 1748 0895      		ret
 2876               	.global	LoadValuesFromEEPROM
 2878               	LoadValuesFromEEPROM:
 2879               	/* prologue: function */
 2880               	/* frame size = 0 */
 2881 174a 80E0      		ldi r24,lo8(EE_LED_LIGTH)
 2882 174c 90E0      		ldi r25,hi8(EE_LED_LIGTH)
 2883 174e 0E94 0000 		call __eerd_byte_m32
 2884 1752 8093 0000 		sts LED_LIGTH,r24
 2885 1756 80E0      		ldi r24,lo8(EE_SETVAL_TEMP_ROOM)
 2886 1758 90E0      		ldi r25,hi8(EE_SETVAL_TEMP_ROOM)
 2887 175a 0E94 0000 		call __eerd_byte_m32
 2888 175e 8093 0000 		sts SETVAL_TEMP_ROOM,r24
 2889 1762 80E0      		ldi r24,lo8(EE_SETVAL_DELTA_TEMP_ROOM)
 2890 1764 90E0      		ldi r25,hi8(EE_SETVAL_DELTA_TEMP_ROOM)
 2891 1766 0E94 0000 		call __eerd_byte_m32
 2892 176a 8093 0000 		sts SETVAL_DELTA_TEMP_ROOM,r24
 2893 176e 80E0      		ldi r24,lo8(EE_SETVAL_TEMP_TOP_OVEN)
 2894 1770 90E0      		ldi r25,hi8(EE_SETVAL_TEMP_TOP_OVEN)
 2895 1772 0E94 0000 		call __eerd_byte_m32
 2896 1776 8093 0000 		sts SETVAL_TEMP_TOP_OVEN,r24
 2897 177a 80E0      		ldi r24,lo8(EE_SETVAL_DELTA_TEMP_TOP_OVEN)
 2898 177c 90E0      		ldi r25,hi8(EE_SETVAL_DELTA_TEMP_TOP_OVEN)
 2899 177e 0E94 0000 		call __eerd_byte_m32
 2900 1782 8093 0000 		sts SETVAL_DELTA_TEMP_TOP_OVEN,r24
 2901 1786 80E0      		ldi r24,lo8(EE_SETVAL_TEMP_PYROLYS_START)
 2902 1788 90E0      		ldi r25,hi8(EE_SETVAL_TEMP_PYROLYS_START)
 2903 178a 0E94 0000 		call __eerd_word_m32
 2904 178e 9093 0000 		sts (SETVAL_TEMP_PYROLYS_START)+1,r25
 2905 1792 8093 0000 		sts SETVAL_TEMP_PYROLYS_START,r24
 2906 1796 80E0      		ldi r24,lo8(EE_SETVAL_TEMP_PYROLYS_FULL)
 2907 1798 90E0      		ldi r25,hi8(EE_SETVAL_TEMP_PYROLYS_FULL)
 2908 179a 0E94 0000 		call __eerd_word_m32
 2909 179e 9093 0000 		sts (SETVAL_TEMP_PYROLYS_FULL)+1,r25
 2910 17a2 8093 0000 		sts SETVAL_TEMP_PYROLYS_FULL,r24
 2911 17a6 80E0      		ldi r24,lo8(EE_SETVAL_DELTA_TEMP_SHUTDOWN)
 2912 17a8 90E0      		ldi r25,hi8(EE_SETVAL_DELTA_TEMP_SHUTDOWN)
 2913 17aa 0E94 0000 		call __eerd_byte_m32
 2914 17ae 8093 0000 		sts SETVAL_DELTA_TEMP_SHUTDOWN,r24
 2915 17b2 80E0      		ldi r24,lo8(EE_SETVAL_PWM_FAN1_START)
 2916 17b4 90E0      		ldi r25,hi8(EE_SETVAL_PWM_FAN1_START)
 2917 17b6 0E94 0000 		call __eerd_byte_m32
 2918 17ba 8093 0000 		sts SETVAL_PWM_FAN1_START,r24
 2919 17be 80E0      		ldi r24,lo8(EE_SETVAL_PWM_FAN2_START)
 2920 17c0 90E0      		ldi r25,hi8(EE_SETVAL_PWM_FAN2_START)
 2921 17c2 0E94 0000 		call __eerd_byte_m32
 2922 17c6 8093 0000 		sts SETVAL_PWM_FAN2_START,r24
 2923 17ca 80E0      		ldi r24,lo8(EE_SETVAL_PWM_FAN3_START)
 2924 17cc 90E0      		ldi r25,hi8(EE_SETVAL_PWM_FAN3_START)
 2925 17ce 0E94 0000 		call __eerd_byte_m32
 2926 17d2 8093 0000 		sts SETVAL_PWM_FAN3_START,r24
 2927               	/* epilogue start */
 2928 17d6 0895      		ret
 2930               	.global	main
 2932               	main:
 2933               	/* prologue: function */
 2934               	/* frame size = 0 */
 2935 17d8 0E94 0000 		call LoadValuesFromEEPROM
 2936 17dc 0E94 0000 		call CalculateCoefficients
 2937 17e0 0E94 0000 		call init
 2938 17e4 0E94 0000 		call LCD_init
 2939 17e8 0E94 0000 		call DS18B20_convertTemp
 2940 17ec 88E8      		ldi r24,lo8(5000)
 2941 17ee 93E1      		ldi r25,hi8(5000)
 2942 17f0 28EC      		ldi r18,lo8(200)
 2943 17f2 30E0      		ldi r19,hi8(200)
 2944               	.L279:
 2945 17f4 F901      		movw r30,r18
 2946               	/* #APP */
 2947               	 ;  105 "c:/winavr/lib/gcc/../../avr/include/util/delay_basic.h" 1
 2948 17f6 3197      		1: sbiw r30,1
 2949 17f8 01F4      		brne 1b
 2950               	 ;  0 "" 2
 2951               	/* #NOAPP */
 2952 17fa 0197      		sbiw r24,1
 2953 17fc 01F4      		brne .L279
 2954 17fe 81E0      		ldi r24,lo8(1)
 2955 1800 0E94 0000 		call LCD_clear
 2956 1804 88E8      		ldi r24,lo8(5000)
 2957 1806 93E1      		ldi r25,hi8(5000)
 2958 1808 28EC      		ldi r18,lo8(200)
 2959 180a 30E0      		ldi r19,hi8(200)
 2960               	.L280:
 2961 180c F901      		movw r30,r18
 2962               	/* #APP */
 2963               	 ;  105 "c:/winavr/lib/gcc/../../avr/include/util/delay_basic.h" 1
 2964 180e 3197      		1: sbiw r30,1
 2965 1810 01F4      		brne 1b
 2966               	 ;  0 "" 2
 2967               	/* #NOAPP */
 2968 1812 0197      		sbiw r24,1
 2969 1814 01F4      		brne .L280
 2970 1816 80E0      		ldi r24,lo8(0)
 2971 1818 0E94 0000 		call LCD_clear
 2972 181c 88E8      		ldi r24,lo8(5000)
 2973 181e 93E1      		ldi r25,hi8(5000)
 2974 1820 28EC      		ldi r18,lo8(200)
 2975 1822 30E0      		ldi r19,hi8(200)
 2976               	.L281:
 2977 1824 F901      		movw r30,r18
 2978               	/* #APP */
 2979               	 ;  105 "c:/winavr/lib/gcc/../../avr/include/util/delay_basic.h" 1
 2980 1826 3197      		1: sbiw r30,1
 2981 1828 01F4      		brne 1b
 2982               	 ;  0 "" 2
 2983               	/* #NOAPP */
 2984 182a 0197      		sbiw r24,1
 2985 182c 01F4      		brne .L281
 2986               	.L300:
 2987 182e 0E94 0000 		call CheckButton
 2988 1832 8091 0000 		lds r24,STATUS
 2989 1836 81FF      		sbrs r24,1
 2990 1838 00C0      		rjmp .L282
 2991 183a 0E94 0000 		call ExecuteButton
 2992 183e 8091 0000 		lds r24,STATUS
 2993 1842 8D7F      		andi r24,lo8(-3)
 2994 1844 8093 0000 		sts STATUS,r24
 2995               	.L282:
 2996 1848 8091 0000 		lds r24,STATUS
 2997 184c 80FF      		sbrs r24,0
 2998 184e 00C0      		rjmp .L300
 2999 1850 8091 0000 		lds r24,STATUS
 3000 1854 84FD      		sbrc r24,4
 3001 1856 00C0      		rjmp .L284
 3002 1858 8091 0000 		lds r24,STATUS
 3003 185c 85FF      		sbrs r24,5
 3004 185e 00C0      		rjmp .L285
 3005               	.L284:
 3006 1860 C398      		cbi 56-32,3
 3007 1862 00C0      		rjmp .L286
 3008               	.L285:
 3009 1864 C39A      		sbi 56-32,3
 3010               	.L286:
 3011 1866 81E0      		ldi r24,lo8(1)
 3012 1868 0E94 0000 		call ReadMAX6675
 3013 186c 82E0      		ldi r24,lo8(2)
 3014 186e 0E94 0000 		call ReadMAX6675
 3015 1872 0E94 0000 		call DS18B20_getTemp
 3016 1876 0E94 0000 		call DS18B20_convertTemp
 3017 187a 0E94 0000 		call Work_T12_M12
 3018 187e 0E94 0000 		call Work_T3_M3
 3019 1882 8091 0000 		lds r24,STATUS
 3020 1886 83FF      		sbrs r24,3
 3021 1888 00C0      		rjmp .L290
 3022               	.L287:
 3023 188a 8091 0000 		lds r24,CountMUL_MENU_WAIT
 3024 188e 8150      		subi r24,lo8(-(-1))
 3025 1890 8093 0000 		sts CountMUL_MENU_WAIT,r24
 3026 1894 8091 0000 		lds r24,CountMUL_MENU_WAIT
 3027 1898 8823      		tst r24
 3028 189a 01F4      		brne .L288
 3029 189c 8091 0000 		lds r24,STATUS
 3030 18a0 877F      		andi r24,lo8(-9)
 3031 18a2 8093 0000 		sts STATUS,r24
 3032 18a6 80E0      		ldi r24,lo8(0)
 3033 18a8 0E94 0000 		call LCD_clear
 3034 18ac 0E94 0000 		call UpdateValuesFromEEPROM
 3035 18b0 0E94 0000 		call CalculateCoefficients
 3036 18b4 8091 0000 		lds r24,LED_LIGTH
 3037 18b8 8823      		tst r24
 3038 18ba 01F0      		breq .L289
 3039 18bc 9698      		cbi 50-32,6
 3040 18be 00C0      		rjmp .L290
 3041               	.L289:
 3042 18c0 969A      		sbi 50-32,6
 3043               	.L290:
 3044 18c2 0E94 0000 		call OutInfoToLCD
 3045               	.L288:
 3046 18c6 8091 0000 		lds r24,STATUS
 3047 18ca 84FD      		sbrc r24,4
 3048 18cc 00C0      		rjmp .L291
 3049 18ce 8091 0000 		lds r24,STATUS
 3050 18d2 85FF      		sbrs r24,5
 3051 18d4 00C0      		rjmp .L292
 3052               	.L291:
 3053 18d6 C39A      		sbi 56-32,3
 3054 18d8 00C0      		rjmp .L293
 3055               	.L292:
 3056 18da C398      		cbi 56-32,3
 3057               	.L293:
 3058 18dc 8091 0000 		lds r24,STATUS
 3059 18e0 8E7F      		andi r24,lo8(-2)
 3060 18e2 8093 0000 		sts STATUS,r24
 3061 18e6 00C0      		rjmp .L300
 3063               	.global	Font_6x8_Data
 3064               		.section	.progmem.data,"a",@progbits
 3067               	Font_6x8_Data:
 3068 0000 00        		.byte	0
 3069 0001 00        		.byte	0
 3070 0002 00        		.byte	0
 3071 0003 00        		.byte	0
 3072 0004 00        		.byte	0
 3073 0005 00        		.byte	0
 3074 0006 00        		.byte	0
 3075 0007 3E        		.byte	62
 3076 0008 45        		.byte	69
 3077 0009 51        		.byte	81
 3078 000a 45        		.byte	69
 3079 000b 3E        		.byte	62
 3080 000c 00        		.byte	0
 3081 000d 3E        		.byte	62
 3082 000e 6B        		.byte	107
 3083 000f 6F        		.byte	111
 3084 0010 6B        		.byte	107
 3085 0011 3E        		.byte	62
 3086 0012 00        		.byte	0
 3087 0013 1C        		.byte	28
 3088 0014 3E        		.byte	62
 3089 0015 7C        		.byte	124
 3090 0016 3E        		.byte	62
 3091 0017 1C        		.byte	28
 3092 0018 00        		.byte	0
 3093 0019 18        		.byte	24
 3094 001a 3C        		.byte	60
 3095 001b 7E        		.byte	126
 3096 001c 3C        		.byte	60
 3097 001d 18        		.byte	24
 3098 001e 00        		.byte	0
 3099 001f 30        		.byte	48
 3100 0020 36        		.byte	54
 3101 0021 7F        		.byte	127
 3102 0022 36        		.byte	54
 3103 0023 30        		.byte	48
 3104 0024 00        		.byte	0
 3105 0025 18        		.byte	24
 3106 0026 5C        		.byte	92
 3107 0027 7E        		.byte	126
 3108 0028 5C        		.byte	92
 3109 0029 18        		.byte	24
 3110 002a 00        		.byte	0
 3111 002b 00        		.byte	0
 3112 002c 18        		.byte	24
 3113 002d 18        		.byte	24
 3114 002e 00        		.byte	0
 3115 002f 00        		.byte	0
 3116 0030 FF        		.byte	-1
 3117 0031 FF        		.byte	-1
 3118 0032 E7        		.byte	-25
 3119 0033 E7        		.byte	-25
 3120 0034 FF        		.byte	-1
 3121 0035 FF        		.byte	-1
 3122 0036 00        		.byte	0
 3123 0037 3C        		.byte	60
 3124 0038 24        		.byte	36
 3125 0039 24        		.byte	36
 3126 003a 3C        		.byte	60
 3127 003b 00        		.byte	0
 3128 003c FF        		.byte	-1
 3129 003d C3        		.byte	-61
 3130 003e DB        		.byte	-37
 3131 003f DB        		.byte	-37
 3132 0040 C3        		.byte	-61
 3133 0041 FF        		.byte	-1
 3134 0042 00        		.byte	0
 3135 0043 30        		.byte	48
 3136 0044 48        		.byte	72
 3137 0045 4A        		.byte	74
 3138 0046 36        		.byte	54
 3139 0047 0E        		.byte	14
 3140 0048 00        		.byte	0
 3141 0049 06        		.byte	6
 3142 004a 29        		.byte	41
 3143 004b 79        		.byte	121
 3144 004c 29        		.byte	41
 3145 004d 06        		.byte	6
 3146 004e 00        		.byte	0
 3147 004f 60        		.byte	96
 3148 0050 70        		.byte	112
 3149 0051 3F        		.byte	63
 3150 0052 02        		.byte	2
 3151 0053 04        		.byte	4
 3152 0054 00        		.byte	0
 3153 0055 60        		.byte	96
 3154 0056 7E        		.byte	126
 3155 0057 0A        		.byte	10
 3156 0058 35        		.byte	53
 3157 0059 3F        		.byte	63
 3158 005a 00        		.byte	0
 3159 005b 2A        		.byte	42
 3160 005c 1C        		.byte	28
 3161 005d 36        		.byte	54
 3162 005e 1C        		.byte	28
 3163 005f 2A        		.byte	42
 3164 0060 00        		.byte	0
 3165 0061 00        		.byte	0
 3166 0062 7F        		.byte	127
 3167 0063 3E        		.byte	62
 3168 0064 1C        		.byte	28
 3169 0065 08        		.byte	8
 3170 0066 00        		.byte	0
 3171 0067 08        		.byte	8
 3172 0068 1C        		.byte	28
 3173 0069 3E        		.byte	62
 3174 006a 7F        		.byte	127
 3175 006b 00        		.byte	0
 3176 006c 00        		.byte	0
 3177 006d 14        		.byte	20
 3178 006e 36        		.byte	54
 3179 006f 7F        		.byte	127
 3180 0070 36        		.byte	54
 3181 0071 14        		.byte	20
 3182 0072 00        		.byte	0
 3183 0073 00        		.byte	0
 3184 0074 5F        		.byte	95
 3185 0075 00        		.byte	0
 3186 0076 5F        		.byte	95
 3187 0077 00        		.byte	0
 3188 0078 00        		.byte	0
 3189 0079 06        		.byte	6
 3190 007a 09        		.byte	9
 3191 007b 7F        		.byte	127
 3192 007c 01        		.byte	1
 3193 007d 7F        		.byte	127
 3194 007e 00        		.byte	0
 3195 007f 22        		.byte	34
 3196 0080 4D        		.byte	77
 3197 0081 55        		.byte	85
 3198 0082 59        		.byte	89
 3199 0083 22        		.byte	34
 3200 0084 00        		.byte	0
 3201 0085 60        		.byte	96
 3202 0086 60        		.byte	96
 3203 0087 60        		.byte	96
 3204 0088 60        		.byte	96
 3205 0089 00        		.byte	0
 3206 008a 00        		.byte	0
 3207 008b 14        		.byte	20
 3208 008c B6        		.byte	-74
 3209 008d FF        		.byte	-1
 3210 008e B6        		.byte	-74
 3211 008f 14        		.byte	20
 3212 0090 00        		.byte	0
 3213 0091 04        		.byte	4
 3214 0092 06        		.byte	6
 3215 0093 7F        		.byte	127
 3216 0094 06        		.byte	6
 3217 0095 04        		.byte	4
 3218 0096 00        		.byte	0
 3219 0097 10        		.byte	16
 3220 0098 30        		.byte	48
 3221 0099 7F        		.byte	127
 3222 009a 30        		.byte	48
 3223 009b 10        		.byte	16
 3224 009c 00        		.byte	0
 3225 009d 08        		.byte	8
 3226 009e 08        		.byte	8
 3227 009f 3E        		.byte	62
 3228 00a0 1C        		.byte	28
 3229 00a1 08        		.byte	8
 3230 00a2 00        		.byte	0
 3231 00a3 08        		.byte	8
 3232 00a4 1C        		.byte	28
 3233 00a5 3E        		.byte	62
 3234 00a6 08        		.byte	8
 3235 00a7 08        		.byte	8
 3236 00a8 00        		.byte	0
 3237 00a9 78        		.byte	120
 3238 00aa 40        		.byte	64
 3239 00ab 40        		.byte	64
 3240 00ac 40        		.byte	64
 3241 00ad 40        		.byte	64
 3242 00ae 00        		.byte	0
 3243 00af 08        		.byte	8
 3244 00b0 3E        		.byte	62
 3245 00b1 08        		.byte	8
 3246 00b2 3E        		.byte	62
 3247 00b3 08        		.byte	8
 3248 00b4 00        		.byte	0
 3249 00b5 30        		.byte	48
 3250 00b6 3C        		.byte	60
 3251 00b7 3F        		.byte	63
 3252 00b8 3C        		.byte	60
 3253 00b9 30        		.byte	48
 3254 00ba 00        		.byte	0
 3255 00bb 03        		.byte	3
 3256 00bc 0F        		.byte	15
 3257 00bd 3F        		.byte	63
 3258 00be 0F        		.byte	15
 3259 00bf 03        		.byte	3
 3260 00c0 00        		.byte	0
 3261 00c1 00        		.byte	0
 3262 00c2 00        		.byte	0
 3263 00c3 00        		.byte	0
 3264 00c4 00        		.byte	0
 3265 00c5 00        		.byte	0
 3266 00c6 00        		.byte	0
 3267 00c7 00        		.byte	0
 3268 00c8 06        		.byte	6
 3269 00c9 5F        		.byte	95
 3270 00ca 06        		.byte	6
 3271 00cb 00        		.byte	0
 3272 00cc 00        		.byte	0
 3273 00cd 07        		.byte	7
 3274 00ce 03        		.byte	3
 3275 00cf 00        		.byte	0
 3276 00d0 07        		.byte	7
 3277 00d1 03        		.byte	3
 3278 00d2 00        		.byte	0
 3279 00d3 24        		.byte	36
 3280 00d4 7E        		.byte	126
 3281 00d5 24        		.byte	36
 3282 00d6 7E        		.byte	126
 3283 00d7 24        		.byte	36
 3284 00d8 00        		.byte	0
 3285 00d9 24        		.byte	36
 3286 00da 2B        		.byte	43
 3287 00db 6A        		.byte	106
 3288 00dc 12        		.byte	18
 3289 00dd 00        		.byte	0
 3290 00de 00        		.byte	0
 3291 00df 63        		.byte	99
 3292 00e0 13        		.byte	19
 3293 00e1 08        		.byte	8
 3294 00e2 64        		.byte	100
 3295 00e3 63        		.byte	99
 3296 00e4 00        		.byte	0
 3297 00e5 36        		.byte	54
 3298 00e6 49        		.byte	73
 3299 00e7 56        		.byte	86
 3300 00e8 20        		.byte	32
 3301 00e9 50        		.byte	80
 3302 00ea 00        		.byte	0
 3303 00eb 00        		.byte	0
 3304 00ec 07        		.byte	7
 3305 00ed 03        		.byte	3
 3306 00ee 00        		.byte	0
 3307 00ef 00        		.byte	0
 3308 00f0 00        		.byte	0
 3309 00f1 00        		.byte	0
 3310 00f2 3E        		.byte	62
 3311 00f3 41        		.byte	65
 3312 00f4 00        		.byte	0
 3313 00f5 00        		.byte	0
 3314 00f6 00        		.byte	0
 3315 00f7 00        		.byte	0
 3316 00f8 41        		.byte	65
 3317 00f9 3E        		.byte	62
 3318 00fa 00        		.byte	0
 3319 00fb 00        		.byte	0
 3320 00fc 00        		.byte	0
 3321 00fd 08        		.byte	8
 3322 00fe 3E        		.byte	62
 3323 00ff 1C        		.byte	28
 3324 0100 3E        		.byte	62
 3325 0101 08        		.byte	8
 3326 0102 00        		.byte	0
 3327 0103 08        		.byte	8
 3328 0104 08        		.byte	8
 3329 0105 3E        		.byte	62
 3330 0106 08        		.byte	8
 3331 0107 08        		.byte	8
 3332 0108 00        		.byte	0
 3333 0109 00        		.byte	0
 3334 010a E0        		.byte	-32
 3335 010b 60        		.byte	96
 3336 010c 00        		.byte	0
 3337 010d 00        		.byte	0
 3338 010e 00        		.byte	0
 3339 010f 08        		.byte	8
 3340 0110 08        		.byte	8
 3341 0111 08        		.byte	8
 3342 0112 08        		.byte	8
 3343 0113 08        		.byte	8
 3344 0114 00        		.byte	0
 3345 0115 00        		.byte	0
 3346 0116 60        		.byte	96
 3347 0117 60        		.byte	96
 3348 0118 00        		.byte	0
 3349 0119 00        		.byte	0
 3350 011a 00        		.byte	0
 3351 011b 20        		.byte	32
 3352 011c 10        		.byte	16
 3353 011d 08        		.byte	8
 3354 011e 04        		.byte	4
 3355 011f 02        		.byte	2
 3356 0120 00        		.byte	0
 3357 0121 3E        		.byte	62
 3358 0122 41        		.byte	65
 3359 0123 41        		.byte	65
 3360 0124 41        		.byte	65
 3361 0125 3E        		.byte	62
 3362 0126 00        		.byte	0
 3363 0127 00        		.byte	0
 3364 0128 42        		.byte	66
 3365 0129 7F        		.byte	127
 3366 012a 40        		.byte	64
 3367 012b 00        		.byte	0
 3368 012c 00        		.byte	0
 3369 012d 62        		.byte	98
 3370 012e 51        		.byte	81
 3371 012f 49        		.byte	73
 3372 0130 49        		.byte	73
 3373 0131 46        		.byte	70
 3374 0132 00        		.byte	0
 3375 0133 22        		.byte	34
 3376 0134 49        		.byte	73
 3377 0135 49        		.byte	73
 3378 0136 49        		.byte	73
 3379 0137 36        		.byte	54
 3380 0138 00        		.byte	0
 3381 0139 18        		.byte	24
 3382 013a 14        		.byte	20
 3383 013b 12        		.byte	18
 3384 013c 7F        		.byte	127
 3385 013d 10        		.byte	16
 3386 013e 00        		.byte	0
 3387 013f 2F        		.byte	47
 3388 0140 49        		.byte	73
 3389 0141 49        		.byte	73
 3390 0142 49        		.byte	73
 3391 0143 31        		.byte	49
 3392 0144 00        		.byte	0
 3393 0145 3C        		.byte	60
 3394 0146 4A        		.byte	74
 3395 0147 49        		.byte	73
 3396 0148 49        		.byte	73
 3397 0149 30        		.byte	48
 3398 014a 00        		.byte	0
 3399 014b 01        		.byte	1
 3400 014c 71        		.byte	113
 3401 014d 09        		.byte	9
 3402 014e 05        		.byte	5
 3403 014f 03        		.byte	3
 3404 0150 00        		.byte	0
 3405 0151 36        		.byte	54
 3406 0152 49        		.byte	73
 3407 0153 49        		.byte	73
 3408 0154 49        		.byte	73
 3409 0155 36        		.byte	54
 3410 0156 00        		.byte	0
 3411 0157 06        		.byte	6
 3412 0158 49        		.byte	73
 3413 0159 49        		.byte	73
 3414 015a 29        		.byte	41
 3415 015b 1E        		.byte	30
 3416 015c 00        		.byte	0
 3417 015d 00        		.byte	0
 3418 015e 6C        		.byte	108
 3419 015f 6C        		.byte	108
 3420 0160 00        		.byte	0
 3421 0161 00        		.byte	0
 3422 0162 00        		.byte	0
 3423 0163 00        		.byte	0
 3424 0164 EC        		.byte	-20
 3425 0165 6C        		.byte	108
 3426 0166 00        		.byte	0
 3427 0167 00        		.byte	0
 3428 0168 00        		.byte	0
 3429 0169 08        		.byte	8
 3430 016a 14        		.byte	20
 3431 016b 22        		.byte	34
 3432 016c 41        		.byte	65
 3433 016d 00        		.byte	0
 3434 016e 00        		.byte	0
 3435 016f 24        		.byte	36
 3436 0170 24        		.byte	36
 3437 0171 24        		.byte	36
 3438 0172 24        		.byte	36
 3439 0173 24        		.byte	36
 3440 0174 00        		.byte	0
 3441 0175 00        		.byte	0
 3442 0176 41        		.byte	65
 3443 0177 22        		.byte	34
 3444 0178 14        		.byte	20
 3445 0179 08        		.byte	8
 3446 017a 00        		.byte	0
 3447 017b 02        		.byte	2
 3448 017c 01        		.byte	1
 3449 017d 59        		.byte	89
 3450 017e 09        		.byte	9
 3451 017f 06        		.byte	6
 3452 0180 00        		.byte	0
 3453 0181 3E        		.byte	62
 3454 0182 41        		.byte	65
 3455 0183 5D        		.byte	93
 3456 0184 55        		.byte	85
 3457 0185 1E        		.byte	30
 3458 0186 00        		.byte	0
 3459 0187 7E        		.byte	126
 3460 0188 11        		.byte	17
 3461 0189 11        		.byte	17
 3462 018a 11        		.byte	17
 3463 018b 7E        		.byte	126
 3464 018c 00        		.byte	0
 3465 018d 7F        		.byte	127
 3466 018e 49        		.byte	73
 3467 018f 49        		.byte	73
 3468 0190 49        		.byte	73
 3469 0191 36        		.byte	54
 3470 0192 00        		.byte	0
 3471 0193 3E        		.byte	62
 3472 0194 41        		.byte	65
 3473 0195 41        		.byte	65
 3474 0196 41        		.byte	65
 3475 0197 22        		.byte	34
 3476 0198 00        		.byte	0
 3477 0199 7F        		.byte	127
 3478 019a 41        		.byte	65
 3479 019b 41        		.byte	65
 3480 019c 41        		.byte	65
 3481 019d 3E        		.byte	62
 3482 019e 00        		.byte	0
 3483 019f 7F        		.byte	127
 3484 01a0 49        		.byte	73
 3485 01a1 49        		.byte	73
 3486 01a2 49        		.byte	73
 3487 01a3 41        		.byte	65
 3488 01a4 00        		.byte	0
 3489 01a5 7F        		.byte	127
 3490 01a6 09        		.byte	9
 3491 01a7 09        		.byte	9
 3492 01a8 09        		.byte	9
 3493 01a9 01        		.byte	1
 3494 01aa 00        		.byte	0
 3495 01ab 3E        		.byte	62
 3496 01ac 41        		.byte	65
 3497 01ad 49        		.byte	73
 3498 01ae 49        		.byte	73
 3499 01af 7A        		.byte	122
 3500 01b0 00        		.byte	0
 3501 01b1 7F        		.byte	127
 3502 01b2 08        		.byte	8
 3503 01b3 08        		.byte	8
 3504 01b4 08        		.byte	8
 3505 01b5 7F        		.byte	127
 3506 01b6 00        		.byte	0
 3507 01b7 00        		.byte	0
 3508 01b8 41        		.byte	65
 3509 01b9 7F        		.byte	127
 3510 01ba 41        		.byte	65
 3511 01bb 00        		.byte	0
 3512 01bc 00        		.byte	0
 3513 01bd 30        		.byte	48
 3514 01be 40        		.byte	64
 3515 01bf 40        		.byte	64
 3516 01c0 40        		.byte	64
 3517 01c1 3F        		.byte	63
 3518 01c2 00        		.byte	0
 3519 01c3 7F        		.byte	127
 3520 01c4 08        		.byte	8
 3521 01c5 14        		.byte	20
 3522 01c6 22        		.byte	34
 3523 01c7 41        		.byte	65
 3524 01c8 00        		.byte	0
 3525 01c9 7F        		.byte	127
 3526 01ca 40        		.byte	64
 3527 01cb 40        		.byte	64
 3528 01cc 40        		.byte	64
 3529 01cd 40        		.byte	64
 3530 01ce 00        		.byte	0
 3531 01cf 7F        		.byte	127
 3532 01d0 02        		.byte	2
 3533 01d1 04        		.byte	4
 3534 01d2 02        		.byte	2
 3535 01d3 7F        		.byte	127
 3536 01d4 00        		.byte	0
 3537 01d5 7F        		.byte	127
 3538 01d6 02        		.byte	2
 3539 01d7 04        		.byte	4
 3540 01d8 08        		.byte	8
 3541 01d9 7F        		.byte	127
 3542 01da 00        		.byte	0
 3543 01db 3E        		.byte	62
 3544 01dc 41        		.byte	65
 3545 01dd 41        		.byte	65
 3546 01de 41        		.byte	65
 3547 01df 3E        		.byte	62
 3548 01e0 00        		.byte	0
 3549 01e1 7F        		.byte	127
 3550 01e2 09        		.byte	9
 3551 01e3 09        		.byte	9
 3552 01e4 09        		.byte	9
 3553 01e5 06        		.byte	6
 3554 01e6 00        		.byte	0
 3555 01e7 3E        		.byte	62
 3556 01e8 41        		.byte	65
 3557 01e9 51        		.byte	81
 3558 01ea 21        		.byte	33
 3559 01eb 5E        		.byte	94
 3560 01ec 00        		.byte	0
 3561 01ed 7F        		.byte	127
 3562 01ee 09        		.byte	9
 3563 01ef 09        		.byte	9
 3564 01f0 19        		.byte	25
 3565 01f1 66        		.byte	102
 3566 01f2 00        		.byte	0
 3567 01f3 26        		.byte	38
 3568 01f4 49        		.byte	73
 3569 01f5 49        		.byte	73
 3570 01f6 49        		.byte	73
 3571 01f7 32        		.byte	50
 3572 01f8 00        		.byte	0
 3573 01f9 01        		.byte	1
 3574 01fa 01        		.byte	1
 3575 01fb 7F        		.byte	127
 3576 01fc 01        		.byte	1
 3577 01fd 01        		.byte	1
 3578 01fe 00        		.byte	0
 3579 01ff 3F        		.byte	63
 3580 0200 40        		.byte	64
 3581 0201 40        		.byte	64
 3582 0202 40        		.byte	64
 3583 0203 3F        		.byte	63
 3584 0204 00        		.byte	0
 3585 0205 1F        		.byte	31
 3586 0206 20        		.byte	32
 3587 0207 40        		.byte	64
 3588 0208 20        		.byte	32
 3589 0209 1F        		.byte	31
 3590 020a 00        		.byte	0
 3591 020b 3F        		.byte	63
 3592 020c 40        		.byte	64
 3593 020d 3C        		.byte	60
 3594 020e 40        		.byte	64
 3595 020f 3F        		.byte	63
 3596 0210 00        		.byte	0
 3597 0211 63        		.byte	99
 3598 0212 14        		.byte	20
 3599 0213 08        		.byte	8
 3600 0214 14        		.byte	20
 3601 0215 63        		.byte	99
 3602 0216 00        		.byte	0
 3603 0217 07        		.byte	7
 3604 0218 08        		.byte	8
 3605 0219 70        		.byte	112
 3606 021a 08        		.byte	8
 3607 021b 07        		.byte	7
 3608 021c 00        		.byte	0
 3609 021d 71        		.byte	113
 3610 021e 49        		.byte	73
 3611 021f 45        		.byte	69
 3612 0220 43        		.byte	67
 3613 0221 00        		.byte	0
 3614 0222 00        		.byte	0
 3615 0223 00        		.byte	0
 3616 0224 7F        		.byte	127
 3617 0225 41        		.byte	65
 3618 0226 41        		.byte	65
 3619 0227 00        		.byte	0
 3620 0228 00        		.byte	0
 3621 0229 02        		.byte	2
 3622 022a 04        		.byte	4
 3623 022b 08        		.byte	8
 3624 022c 10        		.byte	16
 3625 022d 20        		.byte	32
 3626 022e 00        		.byte	0
 3627 022f 00        		.byte	0
 3628 0230 41        		.byte	65
 3629 0231 41        		.byte	65
 3630 0232 7F        		.byte	127
 3631 0233 00        		.byte	0
 3632 0234 00        		.byte	0
 3633 0235 04        		.byte	4
 3634 0236 02        		.byte	2
 3635 0237 01        		.byte	1
 3636 0238 02        		.byte	2
 3637 0239 04        		.byte	4
 3638 023a 80        		.byte	-128
 3639 023b 80        		.byte	-128
 3640 023c 80        		.byte	-128
 3641 023d 80        		.byte	-128
 3642 023e 80        		.byte	-128
 3643 023f 80        		.byte	-128
 3644 0240 00        		.byte	0
 3645 0241 00        		.byte	0
 3646 0242 03        		.byte	3
 3647 0243 07        		.byte	7
 3648 0244 00        		.byte	0
 3649 0245 00        		.byte	0
 3650 0246 00        		.byte	0
 3651 0247 20        		.byte	32
 3652 0248 54        		.byte	84
 3653 0249 54        		.byte	84
 3654 024a 54        		.byte	84
 3655 024b 78        		.byte	120
 3656 024c 00        		.byte	0
 3657 024d 7F        		.byte	127
 3658 024e 44        		.byte	68
 3659 024f 44        		.byte	68
 3660 0250 44        		.byte	68
 3661 0251 38        		.byte	56
 3662 0252 00        		.byte	0
 3663 0253 38        		.byte	56
 3664 0254 44        		.byte	68
 3665 0255 44        		.byte	68
 3666 0256 44        		.byte	68
 3667 0257 28        		.byte	40
 3668 0258 00        		.byte	0
 3669 0259 38        		.byte	56
 3670 025a 44        		.byte	68
 3671 025b 44        		.byte	68
 3672 025c 44        		.byte	68
 3673 025d 7F        		.byte	127
 3674 025e 00        		.byte	0
 3675 025f 38        		.byte	56
 3676 0260 54        		.byte	84
 3677 0261 54        		.byte	84
 3678 0262 54        		.byte	84
 3679 0263 08        		.byte	8
 3680 0264 00        		.byte	0
 3681 0265 08        		.byte	8
 3682 0266 7E        		.byte	126
 3683 0267 09        		.byte	9
 3684 0268 09        		.byte	9
 3685 0269 00        		.byte	0
 3686 026a 00        		.byte	0
 3687 026b 18        		.byte	24
 3688 026c A4        		.byte	-92
 3689 026d A4        		.byte	-92
 3690 026e A4        		.byte	-92
 3691 026f 7C        		.byte	124
 3692 0270 00        		.byte	0
 3693 0271 7F        		.byte	127
 3694 0272 04        		.byte	4
 3695 0273 04        		.byte	4
 3696 0274 78        		.byte	120
 3697 0275 00        		.byte	0
 3698 0276 00        		.byte	0
 3699 0277 00        		.byte	0
 3700 0278 00        		.byte	0
 3701 0279 7D        		.byte	125
 3702 027a 40        		.byte	64
 3703 027b 00        		.byte	0
 3704 027c 00        		.byte	0
 3705 027d 40        		.byte	64
 3706 027e 80        		.byte	-128
 3707 027f 84        		.byte	-124
 3708 0280 7D        		.byte	125
 3709 0281 00        		.byte	0
 3710 0282 00        		.byte	0
 3711 0283 7F        		.byte	127
 3712 0284 10        		.byte	16
 3713 0285 28        		.byte	40
 3714 0286 44        		.byte	68
 3715 0287 00        		.byte	0
 3716 0288 00        		.byte	0
 3717 0289 00        		.byte	0
 3718 028a 00        		.byte	0
 3719 028b 7F        		.byte	127
 3720 028c 40        		.byte	64
 3721 028d 00        		.byte	0
 3722 028e 00        		.byte	0
 3723 028f 7C        		.byte	124
 3724 0290 04        		.byte	4
 3725 0291 18        		.byte	24
 3726 0292 04        		.byte	4
 3727 0293 78        		.byte	120
 3728 0294 00        		.byte	0
 3729 0295 7C        		.byte	124
 3730 0296 04        		.byte	4
 3731 0297 04        		.byte	4
 3732 0298 78        		.byte	120
 3733 0299 00        		.byte	0
 3734 029a 00        		.byte	0
 3735 029b 38        		.byte	56
 3736 029c 44        		.byte	68
 3737 029d 44        		.byte	68
 3738 029e 44        		.byte	68
 3739 029f 38        		.byte	56
 3740 02a0 00        		.byte	0
 3741 02a1 FC        		.byte	-4
 3742 02a2 44        		.byte	68
 3743 02a3 44        		.byte	68
 3744 02a4 44        		.byte	68
 3745 02a5 38        		.byte	56
 3746 02a6 00        		.byte	0
 3747 02a7 38        		.byte	56
 3748 02a8 44        		.byte	68
 3749 02a9 44        		.byte	68
 3750 02aa 44        		.byte	68
 3751 02ab FC        		.byte	-4
 3752 02ac 00        		.byte	0
 3753 02ad 44        		.byte	68
 3754 02ae 78        		.byte	120
 3755 02af 44        		.byte	68
 3756 02b0 04        		.byte	4
 3757 02b1 08        		.byte	8
 3758 02b2 00        		.byte	0
 3759 02b3 08        		.byte	8
 3760 02b4 54        		.byte	84
 3761 02b5 54        		.byte	84
 3762 02b6 54        		.byte	84
 3763 02b7 20        		.byte	32
 3764 02b8 00        		.byte	0
 3765 02b9 04        		.byte	4
 3766 02ba 3E        		.byte	62
 3767 02bb 44        		.byte	68
 3768 02bc 24        		.byte	36
 3769 02bd 00        		.byte	0
 3770 02be 00        		.byte	0
 3771 02bf 3C        		.byte	60
 3772 02c0 40        		.byte	64
 3773 02c1 20        		.byte	32
 3774 02c2 7C        		.byte	124
 3775 02c3 00        		.byte	0
 3776 02c4 00        		.byte	0
 3777 02c5 1C        		.byte	28
 3778 02c6 20        		.byte	32
 3779 02c7 40        		.byte	64
 3780 02c8 20        		.byte	32
 3781 02c9 1C        		.byte	28
 3782 02ca 00        		.byte	0
 3783 02cb 3C        		.byte	60
 3784 02cc 60        		.byte	96
 3785 02cd 30        		.byte	48
 3786 02ce 60        		.byte	96
 3787 02cf 3C        		.byte	60
 3788 02d0 00        		.byte	0
 3789 02d1 6C        		.byte	108
 3790 02d2 10        		.byte	16
 3791 02d3 10        		.byte	16
 3792 02d4 6C        		.byte	108
 3793 02d5 00        		.byte	0
 3794 02d6 00        		.byte	0
 3795 02d7 9C        		.byte	-100
 3796 02d8 A0        		.byte	-96
 3797 02d9 60        		.byte	96
 3798 02da 3C        		.byte	60
 3799 02db 00        		.byte	0
 3800 02dc 00        		.byte	0
 3801 02dd 64        		.byte	100
 3802 02de 54        		.byte	84
 3803 02df 54        		.byte	84
 3804 02e0 4C        		.byte	76
 3805 02e1 00        		.byte	0
 3806 02e2 00        		.byte	0
 3807 02e3 08        		.byte	8
 3808 02e4 3E        		.byte	62
 3809 02e5 41        		.byte	65
 3810 02e6 41        		.byte	65
 3811 02e7 00        		.byte	0
 3812 02e8 00        		.byte	0
 3813 02e9 00        		.byte	0
 3814 02ea 00        		.byte	0
 3815 02eb 77        		.byte	119
 3816 02ec 00        		.byte	0
 3817 02ed 00        		.byte	0
 3818 02ee 00        		.byte	0
 3819 02ef 00        		.byte	0
 3820 02f0 41        		.byte	65
 3821 02f1 41        		.byte	65
 3822 02f2 3E        		.byte	62
 3823 02f3 08        		.byte	8
 3824 02f4 00        		.byte	0
 3825 02f5 02        		.byte	2
 3826 02f6 01        		.byte	1
 3827 02f7 02        		.byte	2
 3828 02f8 01        		.byte	1
 3829 02f9 00        		.byte	0
 3830 02fa 00        		.byte	0
 3831 02fb 3C        		.byte	60
 3832 02fc 26        		.byte	38
 3833 02fd 23        		.byte	35
 3834 02fe 26        		.byte	38
 3835 02ff 3C        		.byte	60
 3836 0300 44        		.byte	68
 3837 0301 11        		.byte	17
 3838 0302 44        		.byte	68
 3839 0303 11        		.byte	17
 3840 0304 44        		.byte	68
 3841 0305 11        		.byte	17
 3842 0306 AA        		.byte	-86
 3843 0307 55        		.byte	85
 3844 0308 AA        		.byte	-86
 3845 0309 55        		.byte	85
 3846 030a AA        		.byte	-86
 3847 030b 55        		.byte	85
 3848 030c BB        		.byte	-69
 3849 030d EE        		.byte	-18
 3850 030e BB        		.byte	-69
 3851 030f EE        		.byte	-18
 3852 0310 BB        		.byte	-69
 3853 0311 EE        		.byte	-18
 3854 0312 00        		.byte	0
 3855 0313 00        		.byte	0
 3856 0314 00        		.byte	0
 3857 0315 FF        		.byte	-1
 3858 0316 00        		.byte	0
 3859 0317 00        		.byte	0
 3860 0318 08        		.byte	8
 3861 0319 08        		.byte	8
 3862 031a 08        		.byte	8
 3863 031b FF        		.byte	-1
 3864 031c 00        		.byte	0
 3865 031d 00        		.byte	0
 3866 031e 0A        		.byte	10
 3867 031f 0A        		.byte	10
 3868 0320 0A        		.byte	10
 3869 0321 FF        		.byte	-1
 3870 0322 00        		.byte	0
 3871 0323 00        		.byte	0
 3872 0324 08        		.byte	8
 3873 0325 FF        		.byte	-1
 3874 0326 00        		.byte	0
 3875 0327 FF        		.byte	-1
 3876 0328 00        		.byte	0
 3877 0329 00        		.byte	0
 3878 032a 08        		.byte	8
 3879 032b F8        		.byte	-8
 3880 032c 08        		.byte	8
 3881 032d F8        		.byte	-8
 3882 032e 00        		.byte	0
 3883 032f 00        		.byte	0
 3884 0330 0A        		.byte	10
 3885 0331 0A        		.byte	10
 3886 0332 0A        		.byte	10
 3887 0333 FE        		.byte	-2
 3888 0334 00        		.byte	0
 3889 0335 00        		.byte	0
 3890 0336 0A        		.byte	10
 3891 0337 FB        		.byte	-5
 3892 0338 00        		.byte	0
 3893 0339 FF        		.byte	-1
 3894 033a 00        		.byte	0
 3895 033b 00        		.byte	0
 3896 033c 00        		.byte	0
 3897 033d FF        		.byte	-1
 3898 033e 00        		.byte	0
 3899 033f FF        		.byte	-1
 3900 0340 00        		.byte	0
 3901 0341 00        		.byte	0
 3902 0342 0A        		.byte	10
 3903 0343 FA        		.byte	-6
 3904 0344 02        		.byte	2
 3905 0345 FE        		.byte	-2
 3906 0346 00        		.byte	0
 3907 0347 00        		.byte	0
 3908 0348 0A        		.byte	10
 3909 0349 0B        		.byte	11
 3910 034a 08        		.byte	8
 3911 034b 0F        		.byte	15
 3912 034c 00        		.byte	0
 3913 034d 00        		.byte	0
 3914 034e 08        		.byte	8
 3915 034f 0F        		.byte	15
 3916 0350 08        		.byte	8
 3917 0351 0F        		.byte	15
 3918 0352 00        		.byte	0
 3919 0353 00        		.byte	0
 3920 0354 0A        		.byte	10
 3921 0355 0A        		.byte	10
 3922 0356 0A        		.byte	10
 3923 0357 0F        		.byte	15
 3924 0358 00        		.byte	0
 3925 0359 00        		.byte	0
 3926 035a 08        		.byte	8
 3927 035b 08        		.byte	8
 3928 035c 08        		.byte	8
 3929 035d F8        		.byte	-8
 3930 035e 00        		.byte	0
 3931 035f 00        		.byte	0
 3932 0360 00        		.byte	0
 3933 0361 00        		.byte	0
 3934 0362 00        		.byte	0
 3935 0363 0F        		.byte	15
 3936 0364 08        		.byte	8
 3937 0365 08        		.byte	8
 3938 0366 08        		.byte	8
 3939 0367 08        		.byte	8
 3940 0368 08        		.byte	8
 3941 0369 0F        		.byte	15
 3942 036a 08        		.byte	8
 3943 036b 08        		.byte	8
 3944 036c 08        		.byte	8
 3945 036d 08        		.byte	8
 3946 036e 08        		.byte	8
 3947 036f F8        		.byte	-8
 3948 0370 08        		.byte	8
 3949 0371 08        		.byte	8
 3950 0372 00        		.byte	0
 3951 0373 00        		.byte	0
 3952 0374 00        		.byte	0
 3953 0375 FF        		.byte	-1
 3954 0376 08        		.byte	8
 3955 0377 08        		.byte	8
 3956 0378 08        		.byte	8
 3957 0379 08        		.byte	8
 3958 037a 08        		.byte	8
 3959 037b 08        		.byte	8
 3960 037c 08        		.byte	8
 3961 037d 08        		.byte	8
 3962 037e 08        		.byte	8
 3963 037f 08        		.byte	8
 3964 0380 08        		.byte	8
 3965 0381 FF        		.byte	-1
 3966 0382 08        		.byte	8
 3967 0383 08        		.byte	8
 3968 0384 00        		.byte	0
 3969 0385 00        		.byte	0
 3970 0386 00        		.byte	0
 3971 0387 FF        		.byte	-1
 3972 0388 0A        		.byte	10
 3973 0389 0A        		.byte	10
 3974 038a 00        		.byte	0
 3975 038b FF        		.byte	-1
 3976 038c 00        		.byte	0
 3977 038d FF        		.byte	-1
 3978 038e 08        		.byte	8
 3979 038f 08        		.byte	8
 3980 0390 00        		.byte	0
 3981 0391 0F        		.byte	15
 3982 0392 08        		.byte	8
 3983 0393 0B        		.byte	11
 3984 0394 0A        		.byte	10
 3985 0395 0A        		.byte	10
 3986 0396 00        		.byte	0
 3987 0397 FE        		.byte	-2
 3988 0398 02        		.byte	2
 3989 0399 FA        		.byte	-6
 3990 039a 0A        		.byte	10
 3991 039b 0A        		.byte	10
 3992 039c 0A        		.byte	10
 3993 039d 0B        		.byte	11
 3994 039e 08        		.byte	8
 3995 039f 0B        		.byte	11
 3996 03a0 0A        		.byte	10
 3997 03a1 0A        		.byte	10
 3998 03a2 0A        		.byte	10
 3999 03a3 FA        		.byte	-6
 4000 03a4 02        		.byte	2
 4001 03a5 FA        		.byte	-6
 4002 03a6 0A        		.byte	10
 4003 03a7 0A        		.byte	10
 4004 03a8 00        		.byte	0
 4005 03a9 FF        		.byte	-1
 4006 03aa 00        		.byte	0
 4007 03ab FB        		.byte	-5
 4008 03ac 0A        		.byte	10
 4009 03ad 0A        		.byte	10
 4010 03ae 0A        		.byte	10
 4011 03af 0A        		.byte	10
 4012 03b0 0A        		.byte	10
 4013 03b1 0A        		.byte	10
 4014 03b2 0A        		.byte	10
 4015 03b3 0A        		.byte	10
 4016 03b4 0A        		.byte	10
 4017 03b5 FB        		.byte	-5
 4018 03b6 00        		.byte	0
 4019 03b7 FB        		.byte	-5
 4020 03b8 0A        		.byte	10
 4021 03b9 0A        		.byte	10
 4022 03ba 0A        		.byte	10
 4023 03bb 0A        		.byte	10
 4024 03bc 0A        		.byte	10
 4025 03bd 0B        		.byte	11
 4026 03be 0A        		.byte	10
 4027 03bf 0A        		.byte	10
 4028 03c0 08        		.byte	8
 4029 03c1 0F        		.byte	15
 4030 03c2 08        		.byte	8
 4031 03c3 0F        		.byte	15
 4032 03c4 08        		.byte	8
 4033 03c5 08        		.byte	8
 4034 03c6 0A        		.byte	10
 4035 03c7 0A        		.byte	10
 4036 03c8 0A        		.byte	10
 4037 03c9 FA        		.byte	-6
 4038 03ca 0A        		.byte	10
 4039 03cb 0A        		.byte	10
 4040 03cc 08        		.byte	8
 4041 03cd F8        		.byte	-8
 4042 03ce 08        		.byte	8
 4043 03cf F8        		.byte	-8
 4044 03d0 08        		.byte	8
 4045 03d1 08        		.byte	8
 4046 03d2 00        		.byte	0
 4047 03d3 0F        		.byte	15
 4048 03d4 08        		.byte	8
 4049 03d5 0F        		.byte	15
 4050 03d6 08        		.byte	8
 4051 03d7 08        		.byte	8
 4052 03d8 00        		.byte	0
 4053 03d9 00        		.byte	0
 4054 03da 00        		.byte	0
 4055 03db 0F        		.byte	15
 4056 03dc 0A        		.byte	10
 4057 03dd 0A        		.byte	10
 4058 03de 00        		.byte	0
 4059 03df 00        		.byte	0
 4060 03e0 00        		.byte	0
 4061 03e1 FE        		.byte	-2
 4062 03e2 0A        		.byte	10
 4063 03e3 0A        		.byte	10
 4064 03e4 00        		.byte	0
 4065 03e5 F8        		.byte	-8
 4066 03e6 08        		.byte	8
 4067 03e7 F8        		.byte	-8
 4068 03e8 08        		.byte	8
 4069 03e9 08        		.byte	8
 4070 03ea 08        		.byte	8
 4071 03eb FF        		.byte	-1
 4072 03ec 08        		.byte	8
 4073 03ed FF        		.byte	-1
 4074 03ee 08        		.byte	8
 4075 03ef 08        		.byte	8
 4076 03f0 00        		.byte	0
 4077 03f1 7E        		.byte	126
 4078 03f2 4B        		.byte	75
 4079 03f3 4A        		.byte	74
 4080 03f4 4B        		.byte	75
 4081 03f5 42        		.byte	66
 4082 03f6 0A        		.byte	10
 4083 03f7 0A        		.byte	10
 4084 03f8 0A        		.byte	10
 4085 03f9 FF        		.byte	-1
 4086 03fa 0A        		.byte	10
 4087 03fb 0A        		.byte	10
 4088 03fc 08        		.byte	8
 4089 03fd 08        		.byte	8
 4090 03fe 08        		.byte	8
 4091 03ff 0F        		.byte	15
 4092 0400 00        		.byte	0
 4093 0401 00        		.byte	0
 4094 0402 00        		.byte	0
 4095 0403 00        		.byte	0
 4096 0404 00        		.byte	0
 4097 0405 F8        		.byte	-8
 4098 0406 08        		.byte	8
 4099 0407 08        		.byte	8
 4100 0408 FF        		.byte	-1
 4101 0409 FF        		.byte	-1
 4102 040a FF        		.byte	-1
 4103 040b FF        		.byte	-1
 4104 040c FF        		.byte	-1
 4105 040d FF        		.byte	-1
 4106 040e F0        		.byte	-16
 4107 040f F0        		.byte	-16
 4108 0410 F0        		.byte	-16
 4109 0411 F0        		.byte	-16
 4110 0412 F0        		.byte	-16
 4111 0413 F0        		.byte	-16
 4112 0414 FF        		.byte	-1
 4113 0415 FF        		.byte	-1
 4114 0416 FF        		.byte	-1
 4115 0417 00        		.byte	0
 4116 0418 00        		.byte	0
 4117 0419 00        		.byte	0
 4118 041a 00        		.byte	0
 4119 041b 00        		.byte	0
 4120 041c 00        		.byte	0
 4121 041d FF        		.byte	-1
 4122 041e FF        		.byte	-1
 4123 041f FF        		.byte	-1
 4124 0420 0F        		.byte	15
 4125 0421 0F        		.byte	15
 4126 0422 0F        		.byte	15
 4127 0423 0F        		.byte	15
 4128 0424 0F        		.byte	15
 4129 0425 0F        		.byte	15
 4130 0426 00        		.byte	0
 4131 0427 3E        		.byte	62
 4132 0428 49        		.byte	73
 4133 0429 49        		.byte	73
 4134 042a 41        		.byte	65
 4135 042b 22        		.byte	34
 4136 042c 00        		.byte	0
 4137 042d 38        		.byte	56
 4138 042e 54        		.byte	84
 4139 042f 54        		.byte	84
 4140 0430 44        		.byte	68
 4141 0431 28        		.byte	40
 4142 0432 00        		.byte	0
 4143 0433 01        		.byte	1
 4144 0434 40        		.byte	64
 4145 0435 7E        		.byte	126
 4146 0436 40        		.byte	64
 4147 0437 01        		.byte	1
 4148 0438 00        		.byte	0
 4149 0439 00        		.byte	0
 4150 043a 01        		.byte	1
 4151 043b 7C        		.byte	124
 4152 043c 41        		.byte	65
 4153 043d 00        		.byte	0
 4154 043e 00        		.byte	0
 4155 043f 27        		.byte	39
 4156 0440 48        		.byte	72
 4157 0441 4B        		.byte	75
 4158 0442 48        		.byte	72
 4159 0443 3F        		.byte	63
 4160 0444 00        		.byte	0
 4161 0445 9D        		.byte	-99
 4162 0446 A2        		.byte	-94
 4163 0447 62        		.byte	98
 4164 0448 3D        		.byte	61
 4165 0449 00        		.byte	0
 4166 044a 00        		.byte	0
 4167 044b 06        		.byte	6
 4168 044c 09        		.byte	9
 4169 044d 09        		.byte	9
 4170 044e 06        		.byte	6
 4171 044f 00        		.byte	0
 4172 0450 00        		.byte	0
 4173 0451 38        		.byte	56
 4174 0452 55        		.byte	85
 4175 0453 54        		.byte	84
 4176 0454 55        		.byte	85
 4177 0455 08        		.byte	8
 4178 0456 00        		.byte	0
 4179 0457 00        		.byte	0
 4180 0458 18        		.byte	24
 4181 0459 18        		.byte	24
 4182 045a 00        		.byte	0
 4183 045b 00        		.byte	0
 4184 045c 00        		.byte	0
 4185 045d 00        		.byte	0
 4186 045e 08        		.byte	8
 4187 045f 00        		.byte	0
 4188 0460 00        		.byte	0
 4189 0461 00        		.byte	0
 4190 0462 00        		.byte	0
 4191 0463 30        		.byte	48
 4192 0464 40        		.byte	64
 4193 0465 3E        		.byte	62
 4194 0466 02        		.byte	2
 4195 0467 02        		.byte	2
 4196 0468 7F        		.byte	127
 4197 0469 06        		.byte	6
 4198 046a 18        		.byte	24
 4199 046b 7F        		.byte	127
 4200 046c 13        		.byte	19
 4201 046d 13        		.byte	19
 4202 046e 2A        		.byte	42
 4203 046f 3E        		.byte	62
 4204 0470 14        		.byte	20
 4205 0471 14        		.byte	20
 4206 0472 3E        		.byte	62
 4207 0473 2A        		.byte	42
 4208 0474 00        		.byte	0
 4209 0475 3C        		.byte	60
 4210 0476 3C        		.byte	60
 4211 0477 3C        		.byte	60
 4212 0478 3C        		.byte	60
 4213 0479 00        		.byte	0
 4214 047a 00        		.byte	0
 4215 047b 00        		.byte	0
 4216 047c 00        		.byte	0
 4217 047d 00        		.byte	0
 4218 047e 00        		.byte	0
 4219 047f 00        		.byte	0
 4220 0480 00        		.byte	0
 4221 0481 7E        		.byte	126
 4222 0482 11        		.byte	17
 4223 0483 11        		.byte	17
 4224 0484 11        		.byte	17
 4225 0485 7E        		.byte	126
 4226 0486 00        		.byte	0
 4227 0487 7F        		.byte	127
 4228 0488 49        		.byte	73
 4229 0489 49        		.byte	73
 4230 048a 49        		.byte	73
 4231 048b 31        		.byte	49
 4232 048c 00        		.byte	0
 4233 048d 7F        		.byte	127
 4234 048e 49        		.byte	73
 4235 048f 49        		.byte	73
 4236 0490 49        		.byte	73
 4237 0491 36        		.byte	54
 4238 0492 00        		.byte	0
 4239 0493 7F        		.byte	127
 4240 0494 01        		.byte	1
 4241 0495 01        		.byte	1
 4242 0496 01        		.byte	1
 4243 0497 01        		.byte	1
 4244 0498 C0        		.byte	-64
 4245 0499 7E        		.byte	126
 4246 049a 41        		.byte	65
 4247 049b 41        		.byte	65
 4248 049c 7F        		.byte	127
 4249 049d C0        		.byte	-64
 4250 049e 00        		.byte	0
 4251 049f 7F        		.byte	127
 4252 04a0 49        		.byte	73
 4253 04a1 49        		.byte	73
 4254 04a2 49        		.byte	73
 4255 04a3 41        		.byte	65
 4256 04a4 00        		.byte	0
 4257 04a5 77        		.byte	119
 4258 04a6 08        		.byte	8
 4259 04a7 7F        		.byte	127
 4260 04a8 08        		.byte	8
 4261 04a9 77        		.byte	119
 4262 04aa 22        		.byte	34
 4263 04ab 49        		.byte	73
 4264 04ac 49        		.byte	73
 4265 04ad 49        		.byte	73
 4266 04ae 36        		.byte	54
 4267 04af 00        		.byte	0
 4268 04b0 00        		.byte	0
 4269 04b1 7F        		.byte	127
 4270 04b2 20        		.byte	32
 4271 04b3 10        		.byte	16
 4272 04b4 08        		.byte	8
 4273 04b5 7F        		.byte	127
 4274 04b6 00        		.byte	0
 4275 04b7 7E        		.byte	126
 4276 04b8 21        		.byte	33
 4277 04b9 11        		.byte	17
 4278 04ba 09        		.byte	9
 4279 04bb 7E        		.byte	126
 4280 04bc 00        		.byte	0
 4281 04bd 7F        		.byte	127
 4282 04be 08        		.byte	8
 4283 04bf 14        		.byte	20
 4284 04c0 22        		.byte	34
 4285 04c1 41        		.byte	65
 4286 04c2 00        		.byte	0
 4287 04c3 40        		.byte	64
 4288 04c4 7E        		.byte	126
 4289 04c5 01        		.byte	1
 4290 04c6 01        		.byte	1
 4291 04c7 7F        		.byte	127
 4292 04c8 00        		.byte	0
 4293 04c9 7F        		.byte	127
 4294 04ca 02        		.byte	2
 4295 04cb 04        		.byte	4
 4296 04cc 02        		.byte	2
 4297 04cd 7F        		.byte	127
 4298 04ce 00        		.byte	0
 4299 04cf 7F        		.byte	127
 4300 04d0 08        		.byte	8
 4301 04d1 08        		.byte	8
 4302 04d2 08        		.byte	8
 4303 04d3 7F        		.byte	127
 4304 04d4 00        		.byte	0
 4305 04d5 3E        		.byte	62
 4306 04d6 41        		.byte	65
 4307 04d7 41        		.byte	65
 4308 04d8 41        		.byte	65
 4309 04d9 3E        		.byte	62
 4310 04da 00        		.byte	0
 4311 04db 7F        		.byte	127
 4312 04dc 01        		.byte	1
 4313 04dd 01        		.byte	1
 4314 04de 01        		.byte	1
 4315 04df 7F        		.byte	127
 4316 04e0 00        		.byte	0
 4317 04e1 7F        		.byte	127
 4318 04e2 09        		.byte	9
 4319 04e3 09        		.byte	9
 4320 04e4 09        		.byte	9
 4321 04e5 06        		.byte	6
 4322 04e6 00        		.byte	0
 4323 04e7 3E        		.byte	62
 4324 04e8 41        		.byte	65
 4325 04e9 41        		.byte	65
 4326 04ea 41        		.byte	65
 4327 04eb 22        		.byte	34
 4328 04ec 00        		.byte	0
 4329 04ed 01        		.byte	1
 4330 04ee 01        		.byte	1
 4331 04ef 7F        		.byte	127
 4332 04f0 01        		.byte	1
 4333 04f1 01        		.byte	1
 4334 04f2 00        		.byte	0
 4335 04f3 27        		.byte	39
 4336 04f4 48        		.byte	72
 4337 04f5 48        		.byte	72
 4338 04f6 48        		.byte	72
 4339 04f7 3F        		.byte	63
 4340 04f8 00        		.byte	0
 4341 04f9 0E        		.byte	14
 4342 04fa 11        		.byte	17
 4343 04fb 7F        		.byte	127
 4344 04fc 11        		.byte	17
 4345 04fd 0E        		.byte	14
 4346 04fe 00        		.byte	0
 4347 04ff 63        		.byte	99
 4348 0500 14        		.byte	20
 4349 0501 08        		.byte	8
 4350 0502 14        		.byte	20
 4351 0503 63        		.byte	99
 4352 0504 00        		.byte	0
 4353 0505 7F        		.byte	127
 4354 0506 40        		.byte	64
 4355 0507 40        		.byte	64
 4356 0508 7F        		.byte	127
 4357 0509 C0        		.byte	-64
 4358 050a 00        		.byte	0
 4359 050b 07        		.byte	7
 4360 050c 08        		.byte	8
 4361 050d 08        		.byte	8
 4362 050e 08        		.byte	8
 4363 050f 7F        		.byte	127
 4364 0510 00        		.byte	0
 4365 0511 7F        		.byte	127
 4366 0512 40        		.byte	64
 4367 0513 7F        		.byte	127
 4368 0514 40        		.byte	64
 4369 0515 7F        		.byte	127
 4370 0516 00        		.byte	0
 4371 0517 7F        		.byte	127
 4372 0518 40        		.byte	64
 4373 0519 7F        		.byte	127
 4374 051a 40        		.byte	64
 4375 051b FF        		.byte	-1
 4376 051c 03        		.byte	3
 4377 051d 01        		.byte	1
 4378 051e 7F        		.byte	127
 4379 051f 48        		.byte	72
 4380 0520 48        		.byte	72
 4381 0521 30        		.byte	48
 4382 0522 00        		.byte	0
 4383 0523 7F        		.byte	127
 4384 0524 48        		.byte	72
 4385 0525 48        		.byte	72
 4386 0526 30        		.byte	48
 4387 0527 7F        		.byte	127
 4388 0528 00        		.byte	0
 4389 0529 7F        		.byte	127
 4390 052a 48        		.byte	72
 4391 052b 48        		.byte	72
 4392 052c 48        		.byte	72
 4393 052d 30        		.byte	48
 4394 052e 00        		.byte	0
 4395 052f 22        		.byte	34
 4396 0530 41        		.byte	65
 4397 0531 49        		.byte	73
 4398 0532 49        		.byte	73
 4399 0533 3E        		.byte	62
 4400 0534 00        		.byte	0
 4401 0535 7F        		.byte	127
 4402 0536 08        		.byte	8
 4403 0537 3E        		.byte	62
 4404 0538 41        		.byte	65
 4405 0539 3E        		.byte	62
 4406 053a 00        		.byte	0
 4407 053b 66        		.byte	102
 4408 053c 19        		.byte	25
 4409 053d 09        		.byte	9
 4410 053e 09        		.byte	9
 4411 053f 7F        		.byte	127
 4412 0540 00        		.byte	0
 4413 0541 20        		.byte	32
 4414 0542 54        		.byte	84
 4415 0543 54        		.byte	84
 4416 0544 54        		.byte	84
 4417 0545 78        		.byte	120
 4418 0546 00        		.byte	0
 4419 0547 3C        		.byte	60
 4420 0548 4A        		.byte	74
 4421 0549 4A        		.byte	74
 4422 054a 4A        		.byte	74
 4423 054b 31        		.byte	49
 4424 054c 00        		.byte	0
 4425 054d 7C        		.byte	124
 4426 054e 54        		.byte	84
 4427 054f 54        		.byte	84
 4428 0550 54        		.byte	84
 4429 0551 28        		.byte	40
 4430 0552 00        		.byte	0
 4431 0553 7C        		.byte	124
 4432 0554 04        		.byte	4
 4433 0555 04        		.byte	4
 4434 0556 0C        		.byte	12
 4435 0557 00        		.byte	0
 4436 0558 C0        		.byte	-64
 4437 0559 78        		.byte	120
 4438 055a 44        		.byte	68
 4439 055b 44        		.byte	68
 4440 055c 7C        		.byte	124
 4441 055d C0        		.byte	-64
 4442 055e 00        		.byte	0
 4443 055f 38        		.byte	56
 4444 0560 54        		.byte	84
 4445 0561 54        		.byte	84
 4446 0562 54        		.byte	84
 4447 0563 08        		.byte	8
 4448 0564 00        		.byte	0
 4449 0565 6C        		.byte	108
 4450 0566 10        		.byte	16
 4451 0567 7C        		.byte	124
 4452 0568 10        		.byte	16
 4453 0569 6C        		.byte	108
 4454 056a 00        		.byte	0
 4455 056b 28        		.byte	40
 4456 056c 44        		.byte	68
 4457 056d 54        		.byte	84
 4458 056e 54        		.byte	84
 4459 056f 28        		.byte	40
 4460 0570 00        		.byte	0
 4461 0571 7C        		.byte	124
 4462 0572 20        		.byte	32
 4463 0573 10        		.byte	16
 4464 0574 08        		.byte	8
 4465 0575 7C        		.byte	124
 4466 0576 00        		.byte	0
 4467 0577 7C        		.byte	124
 4468 0578 20        		.byte	32
 4469 0579 12        		.byte	18
 4470 057a 0A        		.byte	10
 4471 057b 7C        		.byte	124
 4472 057c 00        		.byte	0
 4473 057d 7C        		.byte	124
 4474 057e 10        		.byte	16
 4475 057f 28        		.byte	40
 4476 0580 44        		.byte	68
 4477 0581 00        		.byte	0
 4478 0582 40        		.byte	64
 4479 0583 38        		.byte	56
 4480 0584 04        		.byte	4
 4481 0585 04        		.byte	4
 4482 0586 7C        		.byte	124
 4483 0587 00        		.byte	0
 4484 0588 00        		.byte	0
 4485 0589 7C        		.byte	124
 4486 058a 08        		.byte	8
 4487 058b 10        		.byte	16
 4488 058c 08        		.byte	8
 4489 058d 7C        		.byte	124
 4490 058e 00        		.byte	0
 4491 058f 7C        		.byte	124
 4492 0590 10        		.byte	16
 4493 0591 10        		.byte	16
 4494 0592 10        		.byte	16
 4495 0593 7C        		.byte	124
 4496 0594 00        		.byte	0
 4497 0595 38        		.byte	56
 4498 0596 44        		.byte	68
 4499 0597 44        		.byte	68
 4500 0598 44        		.byte	68
 4501 0599 38        		.byte	56
 4502 059a 00        		.byte	0
 4503 059b 7C        		.byte	124
 4504 059c 04        		.byte	4
 4505 059d 04        		.byte	4
 4506 059e 04        		.byte	4
 4507 059f 7C        		.byte	124
 4508 05a0 00        		.byte	0
 4509 05a1 FC        		.byte	-4
 4510 05a2 44        		.byte	68
 4511 05a3 44        		.byte	68
 4512 05a4 44        		.byte	68
 4513 05a5 38        		.byte	56
 4514 05a6 00        		.byte	0
 4515 05a7 38        		.byte	56
 4516 05a8 44        		.byte	68
 4517 05a9 44        		.byte	68
 4518 05aa 44        		.byte	68
 4519 05ab 28        		.byte	40
 4520 05ac 00        		.byte	0
 4521 05ad 04        		.byte	4
 4522 05ae 04        		.byte	4
 4523 05af 7C        		.byte	124
 4524 05b0 04        		.byte	4
 4525 05b1 04        		.byte	4
 4526 05b2 00        		.byte	0
 4527 05b3 9C        		.byte	-100
 4528 05b4 A0        		.byte	-96
 4529 05b5 60        		.byte	96
 4530 05b6 3C        		.byte	60
 4531 05b7 00        		.byte	0
 4532 05b8 00        		.byte	0
 4533 05b9 18        		.byte	24
 4534 05ba 24        		.byte	36
 4535 05bb 7C        		.byte	124
 4536 05bc 24        		.byte	36
 4537 05bd 18        		.byte	24
 4538 05be 00        		.byte	0
 4539 05bf 6C        		.byte	108
 4540 05c0 10        		.byte	16
 4541 05c1 10        		.byte	16
 4542 05c2 6C        		.byte	108
 4543 05c3 00        		.byte	0
 4544 05c4 00        		.byte	0
 4545 05c5 7C        		.byte	124
 4546 05c6 40        		.byte	64
 4547 05c7 40        		.byte	64
 4548 05c8 7C        		.byte	124
 4549 05c9 C0        		.byte	-64
 4550 05ca 00        		.byte	0
 4551 05cb 0C        		.byte	12
 4552 05cc 10        		.byte	16
 4553 05cd 10        		.byte	16
 4554 05ce 10        		.byte	16
 4555 05cf 7C        		.byte	124
 4556 05d0 00        		.byte	0
 4557 05d1 7C        		.byte	124
 4558 05d2 40        		.byte	64
 4559 05d3 7C        		.byte	124
 4560 05d4 40        		.byte	64
 4561 05d5 7C        		.byte	124
 4562 05d6 00        		.byte	0
 4563 05d7 7C        		.byte	124
 4564 05d8 40        		.byte	64
 4565 05d9 7C        		.byte	124
 4566 05da 40        		.byte	64
 4567 05db FC        		.byte	-4
 4568 05dc 0C        		.byte	12
 4569 05dd 04        		.byte	4
 4570 05de 7C        		.byte	124
 4571 05df 50        		.byte	80
 4572 05e0 50        		.byte	80
 4573 05e1 20        		.byte	32
 4574 05e2 00        		.byte	0
 4575 05e3 7C        		.byte	124
 4576 05e4 50        		.byte	80
 4577 05e5 50        		.byte	80
 4578 05e6 20        		.byte	32
 4579 05e7 7C        		.byte	124
 4580 05e8 00        		.byte	0
 4581 05e9 7C        		.byte	124
 4582 05ea 50        		.byte	80
 4583 05eb 50        		.byte	80
 4584 05ec 50        		.byte	80
 4585 05ed 20        		.byte	32
 4586 05ee 00        		.byte	0
 4587 05ef 28        		.byte	40
 4588 05f0 44        		.byte	68
 4589 05f1 54        		.byte	84
 4590 05f2 54        		.byte	84
 4591 05f3 38        		.byte	56
 4592 05f4 00        		.byte	0
 4593 05f5 7C        		.byte	124
 4594 05f6 10        		.byte	16
 4595 05f7 38        		.byte	56
 4596 05f8 44        		.byte	68
 4597 05f9 38        		.byte	56
 4598 05fa 00        		.byte	0
 4599 05fb 48        		.byte	72
 4600 05fc 34        		.byte	52
 4601 05fd 14        		.byte	20
 4602 05fe 14        		.byte	20
 4603 05ff 7C        		.byte	124
 4604               	.global	Font_12x16_Data
 4607               	Font_12x16_Data:
 4608 0600 00        		.byte	0
 4609 0601 00        		.byte	0
 4610 0602 00        		.byte	0
 4611 0603 00        		.byte	0
 4612 0604 00        		.byte	0
 4613 0605 00        		.byte	0
 4614 0606 00        		.byte	0
 4615 0607 00        		.byte	0
 4616 0608 00        		.byte	0
 4617 0609 00        		.byte	0
 4618 060a 00        		.byte	0
 4619 060b 00        		.byte	0
 4620 060c 00        		.byte	0
 4621 060d 00        		.byte	0
 4622 060e 00        		.byte	0
 4623 060f 00        		.byte	0
 4624 0610 00        		.byte	0
 4625 0611 00        		.byte	0
 4626 0612 00        		.byte	0
 4627 0613 00        		.byte	0
 4628 0614 00        		.byte	0
 4629 0615 00        		.byte	0
 4630 0616 00        		.byte	0
 4631 0617 00        		.byte	0
 4632 0618 00        		.byte	0
 4633 0619 F0        		.byte	-16
 4634 061a 0C        		.byte	12
 4635 061b 02        		.byte	2
 4636 061c 32        		.byte	50
 4637 061d 31        		.byte	49
 4638 061e 01        		.byte	1
 4639 061f 31        		.byte	49
 4640 0620 32        		.byte	50
 4641 0621 02        		.byte	2
 4642 0622 0C        		.byte	12
 4643 0623 F0        		.byte	-16
 4644 0624 00        		.byte	0
 4645 0625 03        		.byte	3
 4646 0626 0C        		.byte	12
 4647 0627 10        		.byte	16
 4648 0628 11        		.byte	17
 4649 0629 22        		.byte	34
 4650 062a 22        		.byte	34
 4651 062b 22        		.byte	34
 4652 062c 11        		.byte	17
 4653 062d 10        		.byte	16
 4654 062e 0C        		.byte	12
 4655 062f 03        		.byte	3
 4656 0630 00        		.byte	0
 4657 0631 F0        		.byte	-16
 4658 0632 FC        		.byte	-4
 4659 0633 FE        		.byte	-2
 4660 0634 CE        		.byte	-50
 4661 0635 CF        		.byte	-49
 4662 0636 FF        		.byte	-1
 4663 0637 CF        		.byte	-49
 4664 0638 CE        		.byte	-50
 4665 0639 FE        		.byte	-2
 4666 063a FC        		.byte	-4
 4667 063b F0        		.byte	-16
 4668 063c 00        		.byte	0
 4669 063d 03        		.byte	3
 4670 063e 0F        		.byte	15
 4671 063f 1F        		.byte	31
 4672 0640 1E        		.byte	30
 4673 0641 3D        		.byte	61
 4674 0642 3D        		.byte	61
 4675 0643 3D        		.byte	61
 4676 0644 1E        		.byte	30
 4677 0645 1F        		.byte	31
 4678 0646 0F        		.byte	15
 4679 0647 03        		.byte	3
 4680 0648 00        		.byte	0
 4681 0649 00        		.byte	0
 4682 064a F0        		.byte	-16
 4683 064b F8        		.byte	-8
 4684 064c F8        		.byte	-8
 4685 064d F0        		.byte	-16
 4686 064e E0        		.byte	-32
 4687 064f F0        		.byte	-16
 4688 0650 F8        		.byte	-8
 4689 0651 F8        		.byte	-8
 4690 0652 F0        		.byte	-16
 4691 0653 00        		.byte	0
 4692 0654 00        		.byte	0
 4693 0655 00        		.byte	0
 4694 0656 00        		.byte	0
 4695 0657 01        		.byte	1
 4696 0658 03        		.byte	3
 4697 0659 07        		.byte	7
 4698 065a 0F        		.byte	15
 4699 065b 07        		.byte	7
 4700 065c 03        		.byte	3
 4701 065d 01        		.byte	1
 4702 065e 00        		.byte	0
 4703 065f 00        		.byte	0
 4704 0660 00        		.byte	0
 4705 0661 00        		.byte	0
 4706 0662 80        		.byte	-128
 4707 0663 C0        		.byte	-64
 4708 0664 E0        		.byte	-32
 4709 0665 F0        		.byte	-16
 4710 0666 F8        		.byte	-8
 4711 0667 F0        		.byte	-16
 4712 0668 E0        		.byte	-32
 4713 0669 C0        		.byte	-64
 4714 066a 80        		.byte	-128
 4715 066b 00        		.byte	0
 4716 066c 00        		.byte	0
 4717 066d 00        		.byte	0
 4718 066e 00        		.byte	0
 4719 066f 01        		.byte	1
 4720 0670 03        		.byte	3
 4721 0671 07        		.byte	7
 4722 0672 0F        		.byte	15
 4723 0673 07        		.byte	7
 4724 0674 03        		.byte	3
 4725 0675 01        		.byte	1
 4726 0676 00        		.byte	0
 4727 0677 00        		.byte	0
 4728 0678 00        		.byte	0
 4729 0679 80        		.byte	-128
 4730 067a C0        		.byte	-64
 4731 067b C0        		.byte	-64
 4732 067c B8        		.byte	-72
 4733 067d FC        		.byte	-4
 4734 067e FC        		.byte	-4
 4735 067f FC        		.byte	-4
 4736 0680 B8        		.byte	-72
 4737 0681 C0        		.byte	-64
 4738 0682 C0        		.byte	-64
 4739 0683 80        		.byte	-128
 4740 0684 00        		.byte	0
 4741 0685 03        		.byte	3
 4742 0686 07        		.byte	7
 4743 0687 07        		.byte	7
 4744 0688 13        		.byte	19
 4745 0689 1B        		.byte	27
 4746 068a 1F        		.byte	31
 4747 068b 1B        		.byte	27
 4748 068c 13        		.byte	19
 4749 068d 07        		.byte	7
 4750 068e 07        		.byte	7
 4751 068f 03        		.byte	3
 4752 0690 00        		.byte	0
 4753 0691 00        		.byte	0
 4754 0692 80        		.byte	-128
 4755 0693 C0        		.byte	-64
 4756 0694 E0        		.byte	-32
 4757 0695 F0        		.byte	-16
 4758 0696 FC        		.byte	-4
 4759 0697 F0        		.byte	-16
 4760 0698 E0        		.byte	-32
 4761 0699 C0        		.byte	-64
 4762 069a 80        		.byte	-128
 4763 069b 00        		.byte	0
 4764 069c 00        		.byte	0
 4765 069d 00        		.byte	0
 4766 069e 03        		.byte	3
 4767 069f 07        		.byte	7
 4768 06a0 17        		.byte	23
 4769 06a1 1B        		.byte	27
 4770 06a2 1F        		.byte	31
 4771 06a3 1B        		.byte	27
 4772 06a4 17        		.byte	23
 4773 06a5 07        		.byte	7
 4774 06a6 03        		.byte	3
 4775 06a7 00        		.byte	0
 4776 06a8 00        		.byte	0
 4777 06a9 00        		.byte	0
 4778 06aa 00        		.byte	0
 4779 06ab 00        		.byte	0
 4780 06ac 80        		.byte	-128
 4781 06ad C0        		.byte	-64
 4782 06ae C0        		.byte	-64
 4783 06af 80        		.byte	-128
 4784 06b0 00        		.byte	0
 4785 06b1 00        		.byte	0
 4786 06b2 00        		.byte	0
 4787 06b3 00        		.byte	0
 4788 06b4 00        		.byte	0
 4789 06b5 00        		.byte	0
 4790 06b6 00        		.byte	0
 4791 06b7 00        		.byte	0
 4792 06b8 01        		.byte	1
 4793 06b9 03        		.byte	3
 4794 06ba 03        		.byte	3
 4795 06bb 01        		.byte	1
 4796 06bc 00        		.byte	0
 4797 06bd 00        		.byte	0
 4798 06be 00        		.byte	0
 4799 06bf 00        		.byte	0
 4800 06c0 FF        		.byte	-1
 4801 06c1 FF        		.byte	-1
 4802 06c2 FF        		.byte	-1
 4803 06c3 FF        		.byte	-1
 4804 06c4 7F        		.byte	127
 4805 06c5 3F        		.byte	63
 4806 06c6 3F        		.byte	63
 4807 06c7 7F        		.byte	127
 4808 06c8 FF        		.byte	-1
 4809 06c9 FF        		.byte	-1
 4810 06ca FF        		.byte	-1
 4811 06cb FF        		.byte	-1
 4812 06cc FF        		.byte	-1
 4813 06cd FF        		.byte	-1
 4814 06ce FF        		.byte	-1
 4815 06cf FF        		.byte	-1
 4816 06d0 FE        		.byte	-2
 4817 06d1 FC        		.byte	-4
 4818 06d2 FC        		.byte	-4
 4819 06d3 FE        		.byte	-2
 4820 06d4 FF        		.byte	-1
 4821 06d5 FF        		.byte	-1
 4822 06d6 FF        		.byte	-1
 4823 06d7 FF        		.byte	-1
 4824 06d8 00        		.byte	0
 4825 06d9 00        		.byte	0
 4826 06da 00        		.byte	0
 4827 06db C0        		.byte	-64
 4828 06dc 20        		.byte	32
 4829 06dd 10        		.byte	16
 4830 06de 10        		.byte	16
 4831 06df 20        		.byte	32
 4832 06e0 C0        		.byte	-64
 4833 06e1 00        		.byte	0
 4834 06e2 00        		.byte	0
 4835 06e3 00        		.byte	0
 4836 06e4 00        		.byte	0
 4837 06e5 00        		.byte	0
 4838 06e6 00        		.byte	0
 4839 06e7 03        		.byte	3
 4840 06e8 04        		.byte	4
 4841 06e9 08        		.byte	8
 4842 06ea 08        		.byte	8
 4843 06eb 04        		.byte	4
 4844 06ec 03        		.byte	3
 4845 06ed 00        		.byte	0
 4846 06ee 00        		.byte	0
 4847 06ef 00        		.byte	0
 4848 06f0 FF        		.byte	-1
 4849 06f1 FF        		.byte	-1
 4850 06f2 FF        		.byte	-1
 4851 06f3 3F        		.byte	63
 4852 06f4 DF        		.byte	-33
 4853 06f5 EF        		.byte	-17
 4854 06f6 EF        		.byte	-17
 4855 06f7 DF        		.byte	-33
 4856 06f8 3F        		.byte	63
 4857 06f9 FF        		.byte	-1
 4858 06fa FF        		.byte	-1
 4859 06fb FF        		.byte	-1
 4860 06fc FF        		.byte	-1
 4861 06fd FF        		.byte	-1
 4862 06fe FF        		.byte	-1
 4863 06ff FC        		.byte	-4
 4864 0700 FB        		.byte	-5
 4865 0701 F7        		.byte	-9
 4866 0702 F7        		.byte	-9
 4867 0703 FB        		.byte	-5
 4868 0704 FC        		.byte	-4
 4869 0705 FF        		.byte	-1
 4870 0706 FF        		.byte	-1
 4871 0707 FF        		.byte	-1
 4872 0708 00        		.byte	0
 4873 0709 80        		.byte	-128
 4874 070a C0        		.byte	-64
 4875 070b 60        		.byte	96
 4876 070c 20        		.byte	32
 4877 070d 20        		.byte	32
 4878 070e 60        		.byte	96
 4879 070f C8        		.byte	-56
 4880 0710 A8        		.byte	-88
 4881 0711 18        		.byte	24
 4882 0712 78        		.byte	120
 4883 0713 00        		.byte	0
 4884 0714 00        		.byte	0
 4885 0715 03        		.byte	3
 4886 0716 07        		.byte	7
 4887 0717 0C        		.byte	12
 4888 0718 08        		.byte	8
 4889 0719 08        		.byte	8
 4890 071a 0C        		.byte	12
 4891 071b 07        		.byte	7
 4892 071c 03        		.byte	3
 4893 071d 00        		.byte	0
 4894 071e 00        		.byte	0
 4895 071f 00        		.byte	0
 4896 0720 00        		.byte	0
 4897 0721 00        		.byte	0
 4898 0722 00        		.byte	0
 4899 0723 70        		.byte	112
 4900 0724 F8        		.byte	-8
 4901 0725 8C        		.byte	-116
 4902 0726 04        		.byte	4
 4903 0727 04        		.byte	4
 4904 0728 8C        		.byte	-116
 4905 0729 F8        		.byte	-8
 4906 072a 70        		.byte	112
 4907 072b 00        		.byte	0
 4908 072c 00        		.byte	0
 4909 072d 00        		.byte	0
 4910 072e 00        		.byte	0
 4911 072f 00        		.byte	0
 4912 0730 08        		.byte	8
 4913 0731 09        		.byte	9
 4914 0732 3F        		.byte	63
 4915 0733 3F        		.byte	63
 4916 0734 09        		.byte	9
 4917 0735 08        		.byte	8
 4918 0736 00        		.byte	0
 4919 0737 00        		.byte	0
 4920 0738 00        		.byte	0
 4921 0739 00        		.byte	0
 4922 073a 00        		.byte	0
 4923 073b 00        		.byte	0
 4924 073c 00        		.byte	0
 4925 073d 00        		.byte	0
 4926 073e FF        		.byte	-1
 4927 073f 0E        		.byte	14
 4928 0740 7C        		.byte	124
 4929 0741 38        		.byte	56
 4930 0742 00        		.byte	0
 4931 0743 00        		.byte	0
 4932 0744 00        		.byte	0
 4933 0745 00        		.byte	0
 4934 0746 00        		.byte	0
 4935 0747 0C        		.byte	12
 4936 0748 1E        		.byte	30
 4937 0749 1E        		.byte	30
 4938 074a 0F        		.byte	15
 4939 074b 00        		.byte	0
 4940 074c 00        		.byte	0
 4941 074d 00        		.byte	0
 4942 074e 00        		.byte	0
 4943 074f 00        		.byte	0
 4944 0750 00        		.byte	0
 4945 0751 00        		.byte	0
 4946 0752 00        		.byte	0
 4947 0753 00        		.byte	0
 4948 0754 FF        		.byte	-1
 4949 0755 33        		.byte	51
 4950 0756 66        		.byte	102
 4951 0757 CC        		.byte	-52
 4952 0758 98        		.byte	-104
 4953 0759 F0        		.byte	-16
 4954 075a 00        		.byte	0
 4955 075b 00        		.byte	0
 4956 075c 00        		.byte	0
 4957 075d 06        		.byte	6
 4958 075e 0F        		.byte	15
 4959 075f 0F        		.byte	15
 4960 0760 07        		.byte	7
 4961 0761 00        		.byte	0
 4962 0762 30        		.byte	48
 4963 0763 78        		.byte	120
 4964 0764 79        		.byte	121
 4965 0765 3F        		.byte	63
 4966 0766 00        		.byte	0
 4967 0767 00        		.byte	0
 4968 0768 00        		.byte	0
 4969 0769 80        		.byte	-128
 4970 076a C8        		.byte	-56
 4971 076b F0        		.byte	-16
 4972 076c 30        		.byte	48
 4973 076d 18        		.byte	24
 4974 076e 1E        		.byte	30
 4975 076f 18        		.byte	24
 4976 0770 30        		.byte	48
 4977 0771 F0        		.byte	-16
 4978 0772 C8        		.byte	-56
 4979 0773 80        		.byte	-128
 4980 0774 00        		.byte	0
 4981 0775 00        		.byte	0
 4982 0776 09        		.byte	9
 4983 0777 07        		.byte	7
 4984 0778 06        		.byte	6
 4985 0779 0C        		.byte	12
 4986 077a 3C        		.byte	60
 4987 077b 0C        		.byte	12
 4988 077c 06        		.byte	6
 4989 077d 07        		.byte	7
 4990 077e 09        		.byte	9
 4991 077f 00        		.byte	0
 4992 0780 00        		.byte	0
 4993 0781 00        		.byte	0
 4994 0782 00        		.byte	0
 4995 0783 FC        		.byte	-4
 4996 0784 F8        		.byte	-8
 4997 0785 F0        		.byte	-16
 4998 0786 E0        		.byte	-32
 4999 0787 C0        		.byte	-64
 5000 0788 80        		.byte	-128
 5001 0789 00        		.byte	0
 5002 078a 00        		.byte	0
 5003 078b 00        		.byte	0
 5004 078c 00        		.byte	0
 5005 078d 00        		.byte	0
 5006 078e 00        		.byte	0
 5007 078f 1F        		.byte	31
 5008 0790 0F        		.byte	15
 5009 0791 07        		.byte	7
 5010 0792 03        		.byte	3
 5011 0793 01        		.byte	1
 5012 0794 00        		.byte	0
 5013 0795 00        		.byte	0
 5014 0796 00        		.byte	0
 5015 0797 00        		.byte	0
 5016 0798 00        		.byte	0
 5017 0799 00        		.byte	0
 5018 079a 00        		.byte	0
 5019 079b 80        		.byte	-128
 5020 079c C0        		.byte	-64
 5021 079d E0        		.byte	-32
 5022 079e F0        		.byte	-16
 5023 079f F8        		.byte	-8
 5024 07a0 FC        		.byte	-4
 5025 07a1 00        		.byte	0
 5026 07a2 00        		.byte	0
 5027 07a3 00        		.byte	0
 5028 07a4 00        		.byte	0
 5029 07a5 00        		.byte	0
 5030 07a6 00        		.byte	0
 5031 07a7 00        		.byte	0
 5032 07a8 01        		.byte	1
 5033 07a9 03        		.byte	3
 5034 07aa 07        		.byte	7
 5035 07ab 0F        		.byte	15
 5036 07ac 1F        		.byte	31
 5037 07ad 00        		.byte	0
 5038 07ae 00        		.byte	0
 5039 07af 00        		.byte	0
 5040 07b0 00        		.byte	0
 5041 07b1 00        		.byte	0
 5042 07b2 00        		.byte	0
 5043 07b3 10        		.byte	16
 5044 07b4 18        		.byte	24
 5045 07b5 1C        		.byte	28
 5046 07b6 FE        		.byte	-2
 5047 07b7 1C        		.byte	28
 5048 07b8 18        		.byte	24
 5049 07b9 10        		.byte	16
 5050 07ba 00        		.byte	0
 5051 07bb 00        		.byte	0
 5052 07bc 00        		.byte	0
 5053 07bd 00        		.byte	0
 5054 07be 00        		.byte	0
 5055 07bf 04        		.byte	4
 5056 07c0 0C        		.byte	12
 5057 07c1 1C        		.byte	28
 5058 07c2 3F        		.byte	63
 5059 07c3 1C        		.byte	28
 5060 07c4 0C        		.byte	12
 5061 07c5 04        		.byte	4
 5062 07c6 00        		.byte	0
 5063 07c7 00        		.byte	0
 5064 07c8 00        		.byte	0
 5065 07c9 00        		.byte	0
 5066 07ca 00        		.byte	0
 5067 07cb FE        		.byte	-2
 5068 07cc FE        		.byte	-2
 5069 07cd 00        		.byte	0
 5070 07ce 00        		.byte	0
 5071 07cf FE        		.byte	-2
 5072 07d0 FE        		.byte	-2
 5073 07d1 00        		.byte	0
 5074 07d2 00        		.byte	0
 5075 07d3 00        		.byte	0
 5076 07d4 00        		.byte	0
 5077 07d5 00        		.byte	0
 5078 07d6 00        		.byte	0
 5079 07d7 37        		.byte	55
 5080 07d8 37        		.byte	55
 5081 07d9 00        		.byte	0
 5082 07da 00        		.byte	0
 5083 07db 37        		.byte	55
 5084 07dc 37        		.byte	55
 5085 07dd 00        		.byte	0
 5086 07de 00        		.byte	0
 5087 07df 00        		.byte	0
 5088 07e0 00        		.byte	0
 5089 07e1 38        		.byte	56
 5090 07e2 7C        		.byte	124
 5091 07e3 C6        		.byte	-58
 5092 07e4 82        		.byte	-126
 5093 07e5 FE        		.byte	-2
 5094 07e6 FE        		.byte	-2
 5095 07e7 02        		.byte	2
 5096 07e8 FE        		.byte	-2
 5097 07e9 FE        		.byte	-2
 5098 07ea 02        		.byte	2
 5099 07eb 00        		.byte	0
 5100 07ec 00        		.byte	0
 5101 07ed 00        		.byte	0
 5102 07ee 00        		.byte	0
 5103 07ef 00        		.byte	0
 5104 07f0 00        		.byte	0
 5105 07f1 3F        		.byte	63
 5106 07f2 3F        		.byte	63
 5107 07f3 00        		.byte	0
 5108 07f4 3F        		.byte	63
 5109 07f5 3F        		.byte	63
 5110 07f6 00        		.byte	0
 5111 07f7 00        		.byte	0
 5112 07f8 00        		.byte	0
 5113 07f9 00        		.byte	0
 5114 07fa DC        		.byte	-36
 5115 07fb FE        		.byte	-2
 5116 07fc 22        		.byte	34
 5117 07fd 22        		.byte	34
 5118 07fe 22        		.byte	34
 5119 07ff 22        		.byte	34
 5120 0800 E6        		.byte	-26
 5121 0801 C4        		.byte	-60
 5122 0802 00        		.byte	0
 5123 0803 00        		.byte	0
 5124 0804 00        		.byte	0
 5125 0805 00        		.byte	0
 5126 0806 08        		.byte	8
 5127 0807 19        		.byte	25
 5128 0808 11        		.byte	17
 5129 0809 11        		.byte	17
 5130 080a 11        		.byte	17
 5131 080b 11        		.byte	17
 5132 080c 1F        		.byte	31
 5133 080d 0E        		.byte	14
 5134 080e 00        		.byte	0
 5135 080f 00        		.byte	0
 5136 0810 00        		.byte	0
 5137 0811 00        		.byte	0
 5138 0812 00        		.byte	0
 5139 0813 00        		.byte	0
 5140 0814 00        		.byte	0
 5141 0815 00        		.byte	0
 5142 0816 00        		.byte	0
 5143 0817 00        		.byte	0
 5144 0818 00        		.byte	0
 5145 0819 00        		.byte	0
 5146 081a 00        		.byte	0
 5147 081b 00        		.byte	0
 5148 081c 00        		.byte	0
 5149 081d 00        		.byte	0
 5150 081e 00        		.byte	0
 5151 081f 38        		.byte	56
 5152 0820 38        		.byte	56
 5153 0821 38        		.byte	56
 5154 0822 38        		.byte	56
 5155 0823 38        		.byte	56
 5156 0824 38        		.byte	56
 5157 0825 38        		.byte	56
 5158 0826 38        		.byte	56
 5159 0827 00        		.byte	0
 5160 0828 00        		.byte	0
 5161 0829 00        		.byte	0
 5162 082a 00        		.byte	0
 5163 082b 08        		.byte	8
 5164 082c 0C        		.byte	12
 5165 082d 0E        		.byte	14
 5166 082e FF        		.byte	-1
 5167 082f 0E        		.byte	14
 5168 0830 0C        		.byte	12
 5169 0831 08        		.byte	8
 5170 0832 00        		.byte	0
 5171 0833 00        		.byte	0
 5172 0834 00        		.byte	0
 5173 0835 00        		.byte	0
 5174 0836 00        		.byte	0
 5175 0837 44        		.byte	68
 5176 0838 4C        		.byte	76
 5177 0839 5C        		.byte	92
 5178 083a 7F        		.byte	127
 5179 083b 5C        		.byte	92
 5180 083c 4C        		.byte	76
 5181 083d 44        		.byte	68
 5182 083e 00        		.byte	0
 5183 083f 00        		.byte	0
 5184 0840 00        		.byte	0
 5185 0841 00        		.byte	0
 5186 0842 00        		.byte	0
 5187 0843 10        		.byte	16
 5188 0844 18        		.byte	24
 5189 0845 1C        		.byte	28
 5190 0846 FE        		.byte	-2
 5191 0847 1C        		.byte	28
 5192 0848 18        		.byte	24
 5193 0849 10        		.byte	16
 5194 084a 00        		.byte	0
 5195 084b 00        		.byte	0
 5196 084c 00        		.byte	0
 5197 084d 00        		.byte	0
 5198 084e 00        		.byte	0
 5199 084f 00        		.byte	0
 5200 0850 00        		.byte	0
 5201 0851 00        		.byte	0
 5202 0852 3F        		.byte	63
 5203 0853 00        		.byte	0
 5204 0854 00        		.byte	0
 5205 0855 00        		.byte	0
 5206 0856 00        		.byte	0
 5207 0857 00        		.byte	0
 5208 0858 00        		.byte	0
 5209 0859 00        		.byte	0
 5210 085a 00        		.byte	0
 5211 085b 00        		.byte	0
 5212 085c 00        		.byte	0
 5213 085d 00        		.byte	0
 5214 085e FE        		.byte	-2
 5215 085f 00        		.byte	0
 5216 0860 00        		.byte	0
 5217 0861 00        		.byte	0
 5218 0862 00        		.byte	0
 5219 0863 00        		.byte	0
 5220 0864 00        		.byte	0
 5221 0865 00        		.byte	0
 5222 0866 00        		.byte	0
 5223 0867 04        		.byte	4
 5224 0868 0C        		.byte	12
 5225 0869 1C        		.byte	28
 5226 086a 3F        		.byte	63
 5227 086b 1C        		.byte	28
 5228 086c 0C        		.byte	12
 5229 086d 04        		.byte	4
 5230 086e 00        		.byte	0
 5231 086f 00        		.byte	0
 5232 0870 00        		.byte	0
 5233 0871 00        		.byte	0
 5234 0872 80        		.byte	-128
 5235 0873 80        		.byte	-128
 5236 0874 80        		.byte	-128
 5237 0875 80        		.byte	-128
 5238 0876 80        		.byte	-128
 5239 0877 F0        		.byte	-16
 5240 0878 E0        		.byte	-32
 5241 0879 C0        		.byte	-64
 5242 087a 80        		.byte	-128
 5243 087b 00        		.byte	0
 5244 087c 00        		.byte	0
 5245 087d 00        		.byte	0
 5246 087e 00        		.byte	0
 5247 087f 00        		.byte	0
 5248 0880 00        		.byte	0
 5249 0881 00        		.byte	0
 5250 0882 00        		.byte	0
 5251 0883 07        		.byte	7
 5252 0884 03        		.byte	3
 5253 0885 01        		.byte	1
 5254 0886 00        		.byte	0
 5255 0887 00        		.byte	0
 5256 0888 00        		.byte	0
 5257 0889 00        		.byte	0
 5258 088a 80        		.byte	-128
 5259 088b C0        		.byte	-64
 5260 088c E0        		.byte	-32
 5261 088d F0        		.byte	-16
 5262 088e 80        		.byte	-128
 5263 088f 80        		.byte	-128
 5264 0890 80        		.byte	-128
 5265 0891 80        		.byte	-128
 5266 0892 80        		.byte	-128
 5267 0893 00        		.byte	0
 5268 0894 00        		.byte	0
 5269 0895 00        		.byte	0
 5270 0896 00        		.byte	0
 5271 0897 01        		.byte	1
 5272 0898 03        		.byte	3
 5273 0899 07        		.byte	7
 5274 089a 00        		.byte	0
 5275 089b 00        		.byte	0
 5276 089c 00        		.byte	0
 5277 089d 00        		.byte	0
 5278 089e 00        		.byte	0
 5279 089f 00        		.byte	0
 5280 08a0 00        		.byte	0
 5281 08a1 00        		.byte	0
 5282 08a2 00        		.byte	0
 5283 08a3 00        		.byte	0
 5284 08a4 00        		.byte	0
 5285 08a5 00        		.byte	0
 5286 08a6 00        		.byte	0
 5287 08a7 00        		.byte	0
 5288 08a8 00        		.byte	0
 5289 08a9 00        		.byte	0
 5290 08aa 00        		.byte	0
 5291 08ab 00        		.byte	0
 5292 08ac 00        		.byte	0
 5293 08ad 3F        		.byte	63
 5294 08ae 20        		.byte	32
 5295 08af 20        		.byte	32
 5296 08b0 20        		.byte	32
 5297 08b1 20        		.byte	32
 5298 08b2 20        		.byte	32
 5299 08b3 20        		.byte	32
 5300 08b4 20        		.byte	32
 5301 08b5 20        		.byte	32
 5302 08b6 20        		.byte	32
 5303 08b7 00        		.byte	0
 5304 08b8 00        		.byte	0
 5305 08b9 80        		.byte	-128
 5306 08ba C0        		.byte	-64
 5307 08bb E0        		.byte	-32
 5308 08bc F0        		.byte	-16
 5309 08bd 80        		.byte	-128
 5310 08be 80        		.byte	-128
 5311 08bf 80        		.byte	-128
 5312 08c0 F0        		.byte	-16
 5313 08c1 E0        		.byte	-32
 5314 08c2 C0        		.byte	-64
 5315 08c3 80        		.byte	-128
 5316 08c4 00        		.byte	0
 5317 08c5 00        		.byte	0
 5318 08c6 01        		.byte	1
 5319 08c7 03        		.byte	3
 5320 08c8 07        		.byte	7
 5321 08c9 00        		.byte	0
 5322 08ca 00        		.byte	0
 5323 08cb 00        		.byte	0
 5324 08cc 07        		.byte	7
 5325 08cd 03        		.byte	3
 5326 08ce 01        		.byte	1
 5327 08cf 00        		.byte	0
 5328 08d0 00        		.byte	0
 5329 08d1 00        		.byte	0
 5330 08d2 00        		.byte	0
 5331 08d3 00        		.byte	0
 5332 08d4 80        		.byte	-128
 5333 08d5 C0        		.byte	-64
 5334 08d6 E0        		.byte	-32
 5335 08d7 C0        		.byte	-64
 5336 08d8 80        		.byte	-128
 5337 08d9 00        		.byte	0
 5338 08da 00        		.byte	0
 5339 08db 00        		.byte	0
 5340 08dc 00        		.byte	0
 5341 08dd 04        		.byte	4
 5342 08de 06        		.byte	6
 5343 08df 07        		.byte	7
 5344 08e0 07        		.byte	7
 5345 08e1 07        		.byte	7
 5346 08e2 07        		.byte	7
 5347 08e3 07        		.byte	7
 5348 08e4 07        		.byte	7
 5349 08e5 07        		.byte	7
 5350 08e6 06        		.byte	6
 5351 08e7 04        		.byte	4
 5352 08e8 00        		.byte	0
 5353 08e9 20        		.byte	32
 5354 08ea 60        		.byte	96
 5355 08eb E0        		.byte	-32
 5356 08ec E0        		.byte	-32
 5357 08ed E0        		.byte	-32
 5358 08ee E0        		.byte	-32
 5359 08ef E0        		.byte	-32
 5360 08f0 E0        		.byte	-32
 5361 08f1 E0        		.byte	-32
 5362 08f2 60        		.byte	96
 5363 08f3 20        		.byte	32
 5364 08f4 00        		.byte	0
 5365 08f5 00        		.byte	0
 5366 08f6 00        		.byte	0
 5367 08f7 00        		.byte	0
 5368 08f8 01        		.byte	1
 5369 08f9 03        		.byte	3
 5370 08fa 07        		.byte	7
 5371 08fb 03        		.byte	3
 5372 08fc 01        		.byte	1
 5373 08fd 00        		.byte	0
 5374 08fe 00        		.byte	0
 5375 08ff 00        		.byte	0
 5376 0900 00        		.byte	0
 5377 0901 00        		.byte	0
 5378 0902 00        		.byte	0
 5379 0903 00        		.byte	0
 5380 0904 00        		.byte	0
 5381 0905 00        		.byte	0
 5382 0906 00        		.byte	0
 5383 0907 00        		.byte	0
 5384 0908 00        		.byte	0
 5385 0909 00        		.byte	0
 5386 090a 00        		.byte	0
 5387 090b 00        		.byte	0
 5388 090c 00        		.byte	0
 5389 090d 00        		.byte	0
 5390 090e 00        		.byte	0
 5391 090f 00        		.byte	0
 5392 0910 00        		.byte	0
 5393 0911 00        		.byte	0
 5394 0912 00        		.byte	0
 5395 0913 00        		.byte	0
 5396 0914 00        		.byte	0
 5397 0915 00        		.byte	0
 5398 0916 00        		.byte	0
 5399 0917 00        		.byte	0
 5400 0918 00        		.byte	0
 5401 0919 00        		.byte	0
 5402 091a 00        		.byte	0
 5403 091b 00        		.byte	0
 5404 091c 7C        		.byte	124
 5405 091d FF        		.byte	-1
 5406 091e FF        		.byte	-1
 5407 091f 7C        		.byte	124
 5408 0920 00        		.byte	0
 5409 0921 00        		.byte	0
 5410 0922 00        		.byte	0
 5411 0923 00        		.byte	0
 5412 0924 00        		.byte	0
 5413 0925 00        		.byte	0
 5414 0926 00        		.byte	0
 5415 0927 00        		.byte	0
 5416 0928 00        		.byte	0
 5417 0929 33        		.byte	51
 5418 092a 33        		.byte	51
 5419 092b 00        		.byte	0
 5420 092c 00        		.byte	0
 5421 092d 00        		.byte	0
 5422 092e 00        		.byte	0
 5423 092f 00        		.byte	0
 5424 0930 00        		.byte	0
 5425 0931 00        		.byte	0
 5426 0932 00        		.byte	0
 5427 0933 3C        		.byte	60
 5428 0934 3C        		.byte	60
 5429 0935 00        		.byte	0
 5430 0936 00        		.byte	0
 5431 0937 3C        		.byte	60
 5432 0938 3C        		.byte	60
 5433 0939 00        		.byte	0
 5434 093a 00        		.byte	0
 5435 093b 00        		.byte	0
 5436 093c 00        		.byte	0
 5437 093d 00        		.byte	0
 5438 093e 00        		.byte	0
 5439 093f 00        		.byte	0
 5440 0940 00        		.byte	0
 5441 0941 00        		.byte	0
 5442 0942 00        		.byte	0
 5443 0943 00        		.byte	0
 5444 0944 00        		.byte	0
 5445 0945 00        		.byte	0
 5446 0946 00        		.byte	0
 5447 0947 00        		.byte	0
 5448 0948 00        		.byte	0
 5449 0949 00        		.byte	0
 5450 094a 10        		.byte	16
 5451 094b 90        		.byte	-112
 5452 094c F0        		.byte	-16
 5453 094d 7E        		.byte	126
 5454 094e 1E        		.byte	30
 5455 094f 90        		.byte	-112
 5456 0950 F0        		.byte	-16
 5457 0951 7E        		.byte	126
 5458 0952 1E        		.byte	30
 5459 0953 10        		.byte	16
 5460 0954 00        		.byte	0
 5461 0955 02        		.byte	2
 5462 0956 1E        		.byte	30
 5463 0957 1F        		.byte	31
 5464 0958 03        		.byte	3
 5465 0959 02        		.byte	2
 5466 095a 1E        		.byte	30
 5467 095b 1F        		.byte	31
 5468 095c 03        		.byte	3
 5469 095d 02        		.byte	2
 5470 095e 00        		.byte	0
 5471 095f 00        		.byte	0
 5472 0960 00        		.byte	0
 5473 0961 00        		.byte	0
 5474 0962 78        		.byte	120
 5475 0963 FC        		.byte	-4
 5476 0964 CC        		.byte	-52
 5477 0965 FF        		.byte	-1
 5478 0966 FF        		.byte	-1
 5479 0967 CC        		.byte	-52
 5480 0968 CC        		.byte	-52
 5481 0969 88        		.byte	-120
 5482 096a 00        		.byte	0
 5483 096b 00        		.byte	0
 5484 096c 00        		.byte	0
 5485 096d 00        		.byte	0
 5486 096e 04        		.byte	4
 5487 096f 0C        		.byte	12
 5488 0970 0C        		.byte	12
 5489 0971 3F        		.byte	63
 5490 0972 3F        		.byte	63
 5491 0973 0C        		.byte	12
 5492 0974 0F        		.byte	15
 5493 0975 07        		.byte	7
 5494 0976 00        		.byte	0
 5495 0977 00        		.byte	0
 5496 0978 00        		.byte	0
 5497 0979 00        		.byte	0
 5498 097a 38        		.byte	56
 5499 097b 38        		.byte	56
 5500 097c 38        		.byte	56
 5501 097d 00        		.byte	0
 5502 097e 80        		.byte	-128
 5503 097f C0        		.byte	-64
 5504 0980 E0        		.byte	-32
 5505 0981 70        		.byte	112
 5506 0982 38        		.byte	56
 5507 0983 1C        		.byte	28
 5508 0984 00        		.byte	0
 5509 0985 30        		.byte	48
 5510 0986 38        		.byte	56
 5511 0987 1C        		.byte	28
 5512 0988 0E        		.byte	14
 5513 0989 07        		.byte	7
 5514 098a 03        		.byte	3
 5515 098b 01        		.byte	1
 5516 098c 38        		.byte	56
 5517 098d 38        		.byte	56
 5518 098e 38        		.byte	56
 5519 098f 00        		.byte	0
 5520 0990 00        		.byte	0
 5521 0991 00        		.byte	0
 5522 0992 00        		.byte	0
 5523 0993 B8        		.byte	-72
 5524 0994 FC        		.byte	-4
 5525 0995 C6        		.byte	-58
 5526 0996 E2        		.byte	-30
 5527 0997 3E        		.byte	62
 5528 0998 1C        		.byte	28
 5529 0999 00        		.byte	0
 5530 099a 00        		.byte	0
 5531 099b 00        		.byte	0
 5532 099c 00        		.byte	0
 5533 099d 00        		.byte	0
 5534 099e 1F        		.byte	31
 5535 099f 3F        		.byte	63
 5536 09a0 31        		.byte	49
 5537 09a1 21        		.byte	33
 5538 09a2 37        		.byte	55
 5539 09a3 1E        		.byte	30
 5540 09a4 1C        		.byte	28
 5541 09a5 36        		.byte	54
 5542 09a6 22        		.byte	34
 5543 09a7 00        		.byte	0
 5544 09a8 00        		.byte	0
 5545 09a9 00        		.byte	0
 5546 09aa 00        		.byte	0
 5547 09ab 00        		.byte	0
 5548 09ac 27        		.byte	39
 5549 09ad 3F        		.byte	63
 5550 09ae 1F        		.byte	31
 5551 09af 00        		.byte	0
 5552 09b0 00        		.byte	0
 5553 09b1 00        		.byte	0
 5554 09b2 00        		.byte	0
 5555 09b3 00        		.byte	0
 5556 09b4 00        		.byte	0
 5557 09b5 00        		.byte	0
 5558 09b6 00        		.byte	0
 5559 09b7 00        		.byte	0
 5560 09b8 00        		.byte	0
 5561 09b9 00        		.byte	0
 5562 09ba 00        		.byte	0
 5563 09bb 00        		.byte	0
 5564 09bc 00        		.byte	0
 5565 09bd 00        		.byte	0
 5566 09be 00        		.byte	0
 5567 09bf 00        		.byte	0
 5568 09c0 00        		.byte	0
 5569 09c1 00        		.byte	0
 5570 09c2 00        		.byte	0
 5571 09c3 F0        		.byte	-16
 5572 09c4 FC        		.byte	-4
 5573 09c5 FE        		.byte	-2
 5574 09c6 07        		.byte	7
 5575 09c7 01        		.byte	1
 5576 09c8 01        		.byte	1
 5577 09c9 00        		.byte	0
 5578 09ca 00        		.byte	0
 5579 09cb 00        		.byte	0
 5580 09cc 00        		.byte	0
 5581 09cd 00        		.byte	0
 5582 09ce 00        		.byte	0
 5583 09cf 03        		.byte	3
 5584 09d0 0F        		.byte	15
 5585 09d1 1F        		.byte	31
 5586 09d2 38        		.byte	56
 5587 09d3 20        		.byte	32
 5588 09d4 20        		.byte	32
 5589 09d5 00        		.byte	0
 5590 09d6 00        		.byte	0
 5591 09d7 00        		.byte	0
 5592 09d8 00        		.byte	0
 5593 09d9 00        		.byte	0
 5594 09da 00        		.byte	0
 5595 09db 01        		.byte	1
 5596 09dc 01        		.byte	1
 5597 09dd 07        		.byte	7
 5598 09de FE        		.byte	-2
 5599 09df FC        		.byte	-4
 5600 09e0 F0        		.byte	-16
 5601 09e1 00        		.byte	0
 5602 09e2 00        		.byte	0
 5603 09e3 00        		.byte	0
 5604 09e4 00        		.byte	0
 5605 09e5 00        		.byte	0
 5606 09e6 00        		.byte	0
 5607 09e7 20        		.byte	32
 5608 09e8 20        		.byte	32
 5609 09e9 38        		.byte	56
 5610 09ea 1F        		.byte	31
 5611 09eb 0F        		.byte	15
 5612 09ec 03        		.byte	3
 5613 09ed 00        		.byte	0
 5614 09ee 00        		.byte	0
 5615 09ef 00        		.byte	0
 5616 09f0 00        		.byte	0
 5617 09f1 00        		.byte	0
 5618 09f2 98        		.byte	-104
 5619 09f3 B8        		.byte	-72
 5620 09f4 E0        		.byte	-32
 5621 09f5 F8        		.byte	-8
 5622 09f6 F8        		.byte	-8
 5623 09f7 E0        		.byte	-32
 5624 09f8 B8        		.byte	-72
 5625 09f9 98        		.byte	-104
 5626 09fa 00        		.byte	0
 5627 09fb 00        		.byte	0
 5628 09fc 00        		.byte	0
 5629 09fd 00        		.byte	0
 5630 09fe 0C        		.byte	12
 5631 09ff 0E        		.byte	14
 5632 0a00 03        		.byte	3
 5633 0a01 0F        		.byte	15
 5634 0a02 0F        		.byte	15
 5635 0a03 03        		.byte	3
 5636 0a04 0E        		.byte	14
 5637 0a05 0C        		.byte	12
 5638 0a06 00        		.byte	0
 5639 0a07 00        		.byte	0
 5640 0a08 00        		.byte	0
 5641 0a09 00        		.byte	0
 5642 0a0a 80        		.byte	-128
 5643 0a0b 80        		.byte	-128
 5644 0a0c 80        		.byte	-128
 5645 0a0d F0        		.byte	-16
 5646 0a0e F0        		.byte	-16
 5647 0a0f 80        		.byte	-128
 5648 0a10 80        		.byte	-128
 5649 0a11 80        		.byte	-128
 5650 0a12 00        		.byte	0
 5651 0a13 00        		.byte	0
 5652 0a14 00        		.byte	0
 5653 0a15 00        		.byte	0
 5654 0a16 01        		.byte	1
 5655 0a17 01        		.byte	1
 5656 0a18 01        		.byte	1
 5657 0a19 0F        		.byte	15
 5658 0a1a 0F        		.byte	15
 5659 0a1b 01        		.byte	1
 5660 0a1c 01        		.byte	1
 5661 0a1d 01        		.byte	1
 5662 0a1e 00        		.byte	0
 5663 0a1f 00        		.byte	0
 5664 0a20 00        		.byte	0
 5665 0a21 00        		.byte	0
 5666 0a22 00        		.byte	0
 5667 0a23 00        		.byte	0
 5668 0a24 00        		.byte	0
 5669 0a25 00        		.byte	0
 5670 0a26 00        		.byte	0
 5671 0a27 00        		.byte	0
 5672 0a28 00        		.byte	0
 5673 0a29 00        		.byte	0
 5674 0a2a 00        		.byte	0
 5675 0a2b 00        		.byte	0
 5676 0a2c 00        		.byte	0
 5677 0a2d 00        		.byte	0
 5678 0a2e 00        		.byte	0
 5679 0a2f 00        		.byte	0
 5680 0a30 B8        		.byte	-72
 5681 0a31 F8        		.byte	-8
 5682 0a32 78        		.byte	120
 5683 0a33 00        		.byte	0
 5684 0a34 00        		.byte	0
 5685 0a35 00        		.byte	0
 5686 0a36 00        		.byte	0
 5687 0a37 00        		.byte	0
 5688 0a38 00        		.byte	0
 5689 0a39 00        		.byte	0
 5690 0a3a 80        		.byte	-128
 5691 0a3b 80        		.byte	-128
 5692 0a3c 80        		.byte	-128
 5693 0a3d 80        		.byte	-128
 5694 0a3e 80        		.byte	-128
 5695 0a3f 80        		.byte	-128
 5696 0a40 80        		.byte	-128
 5697 0a41 80        		.byte	-128
 5698 0a42 00        		.byte	0
 5699 0a43 00        		.byte	0
 5700 0a44 00        		.byte	0
 5701 0a45 00        		.byte	0
 5702 0a46 01        		.byte	1
 5703 0a47 01        		.byte	1
 5704 0a48 01        		.byte	1
 5705 0a49 01        		.byte	1
 5706 0a4a 01        		.byte	1
 5707 0a4b 01        		.byte	1
 5708 0a4c 01        		.byte	1
 5709 0a4d 01        		.byte	1
 5710 0a4e 00        		.byte	0
 5711 0a4f 00        		.byte	0
 5712 0a50 00        		.byte	0
 5713 0a51 00        		.byte	0
 5714 0a52 00        		.byte	0
 5715 0a53 00        		.byte	0
 5716 0a54 00        		.byte	0
 5717 0a55 00        		.byte	0
 5718 0a56 00        		.byte	0
 5719 0a57 00        		.byte	0
 5720 0a58 00        		.byte	0
 5721 0a59 00        		.byte	0
 5722 0a5a 00        		.byte	0
 5723 0a5b 00        		.byte	0
 5724 0a5c 00        		.byte	0
 5725 0a5d 00        		.byte	0
 5726 0a5e 00        		.byte	0
 5727 0a5f 00        		.byte	0
 5728 0a60 38        		.byte	56
 5729 0a61 38        		.byte	56
 5730 0a62 38        		.byte	56
 5731 0a63 00        		.byte	0
 5732 0a64 00        		.byte	0
 5733 0a65 00        		.byte	0
 5734 0a66 00        		.byte	0
 5735 0a67 00        		.byte	0
 5736 0a68 00        		.byte	0
 5737 0a69 00        		.byte	0
 5738 0a6a 00        		.byte	0
 5739 0a6b 00        		.byte	0
 5740 0a6c 00        		.byte	0
 5741 0a6d 80        		.byte	-128
 5742 0a6e C0        		.byte	-64
 5743 0a6f E0        		.byte	-32
 5744 0a70 70        		.byte	112
 5745 0a71 38        		.byte	56
 5746 0a72 1C        		.byte	28
 5747 0a73 0E        		.byte	14
 5748 0a74 00        		.byte	0
 5749 0a75 18        		.byte	24
 5750 0a76 1C        		.byte	28
 5751 0a77 0E        		.byte	14
 5752 0a78 07        		.byte	7
 5753 0a79 03        		.byte	3
 5754 0a7a 01        		.byte	1
 5755 0a7b 00        		.byte	0
 5756 0a7c 00        		.byte	0
 5757 0a7d 00        		.byte	0
 5758 0a7e 00        		.byte	0
 5759 0a7f 00        		.byte	0
 5760 0a80 00        		.byte	0
 5761 0a81 F8        		.byte	-8
 5762 0a82 FE        		.byte	-2
 5763 0a83 06        		.byte	6
 5764 0a84 03        		.byte	3
 5765 0a85 83        		.byte	-125
 5766 0a86 C3        		.byte	-61
 5767 0a87 63        		.byte	99
 5768 0a88 33        		.byte	51
 5769 0a89 1E        		.byte	30
 5770 0a8a FE        		.byte	-2
 5771 0a8b F8        		.byte	-8
 5772 0a8c 00        		.byte	0
 5773 0a8d 07        		.byte	7
 5774 0a8e 1F        		.byte	31
 5775 0a8f 1E        		.byte	30
 5776 0a90 33        		.byte	51
 5777 0a91 31        		.byte	49
 5778 0a92 30        		.byte	48
 5779 0a93 30        		.byte	48
 5780 0a94 30        		.byte	48
 5781 0a95 18        		.byte	24
 5782 0a96 1F        		.byte	31
 5783 0a97 07        		.byte	7
 5784 0a98 00        		.byte	0
 5785 0a99 00        		.byte	0
 5786 0a9a 00        		.byte	0
 5787 0a9b 0C        		.byte	12
 5788 0a9c 0C        		.byte	12
 5789 0a9d 0E        		.byte	14
 5790 0a9e FF        		.byte	-1
 5791 0a9f FF        		.byte	-1
 5792 0aa0 00        		.byte	0
 5793 0aa1 00        		.byte	0
 5794 0aa2 00        		.byte	0
 5795 0aa3 00        		.byte	0
 5796 0aa4 00        		.byte	0
 5797 0aa5 00        		.byte	0
 5798 0aa6 00        		.byte	0
 5799 0aa7 30        		.byte	48
 5800 0aa8 30        		.byte	48
 5801 0aa9 30        		.byte	48
 5802 0aaa 3F        		.byte	63
 5803 0aab 3F        		.byte	63
 5804 0aac 30        		.byte	48
 5805 0aad 30        		.byte	48
 5806 0aae 30        		.byte	48
 5807 0aaf 00        		.byte	0
 5808 0ab0 00        		.byte	0
 5809 0ab1 1C        		.byte	28
 5810 0ab2 1E        		.byte	30
 5811 0ab3 07        		.byte	7
 5812 0ab4 03        		.byte	3
 5813 0ab5 03        		.byte	3
 5814 0ab6 83        		.byte	-125
 5815 0ab7 C3        		.byte	-61
 5816 0ab8 E3        		.byte	-29
 5817 0ab9 77        		.byte	119
 5818 0aba 3E        		.byte	62
 5819 0abb 1C        		.byte	28
 5820 0abc 00        		.byte	0
 5821 0abd 30        		.byte	48
 5822 0abe 38        		.byte	56
 5823 0abf 3C        		.byte	60
 5824 0ac0 3E        		.byte	62
 5825 0ac1 37        		.byte	55
 5826 0ac2 33        		.byte	51
 5827 0ac3 31        		.byte	49
 5828 0ac4 30        		.byte	48
 5829 0ac5 30        		.byte	48
 5830 0ac6 30        		.byte	48
 5831 0ac7 30        		.byte	48
 5832 0ac8 00        		.byte	0
 5833 0ac9 0C        		.byte	12
 5834 0aca 0E        		.byte	14
 5835 0acb 07        		.byte	7
 5836 0acc C3        		.byte	-61
 5837 0acd C3        		.byte	-61
 5838 0ace C3        		.byte	-61
 5839 0acf C3        		.byte	-61
 5840 0ad0 C3        		.byte	-61
 5841 0ad1 E7        		.byte	-25
 5842 0ad2 7E        		.byte	126
 5843 0ad3 3C        		.byte	60
 5844 0ad4 00        		.byte	0
 5845 0ad5 0C        		.byte	12
 5846 0ad6 1C        		.byte	28
 5847 0ad7 38        		.byte	56
 5848 0ad8 30        		.byte	48
 5849 0ad9 30        		.byte	48
 5850 0ada 30        		.byte	48
 5851 0adb 30        		.byte	48
 5852 0adc 30        		.byte	48
 5853 0add 39        		.byte	57
 5854 0ade 1F        		.byte	31
 5855 0adf 0E        		.byte	14
 5856 0ae0 00        		.byte	0
 5857 0ae1 C0        		.byte	-64
 5858 0ae2 E0        		.byte	-32
 5859 0ae3 70        		.byte	112
 5860 0ae4 38        		.byte	56
 5861 0ae5 1C        		.byte	28
 5862 0ae6 0E        		.byte	14
 5863 0ae7 07        		.byte	7
 5864 0ae8 FF        		.byte	-1
 5865 0ae9 FF        		.byte	-1
 5866 0aea 00        		.byte	0
 5867 0aeb 00        		.byte	0
 5868 0aec 00        		.byte	0
 5869 0aed 03        		.byte	3
 5870 0aee 03        		.byte	3
 5871 0aef 03        		.byte	3
 5872 0af0 03        		.byte	3
 5873 0af1 03        		.byte	3
 5874 0af2 03        		.byte	3
 5875 0af3 03        		.byte	3
 5876 0af4 3F        		.byte	63
 5877 0af5 3F        		.byte	63
 5878 0af6 03        		.byte	3
 5879 0af7 03        		.byte	3
 5880 0af8 00        		.byte	0
 5881 0af9 3F        		.byte	63
 5882 0afa 7F        		.byte	127
 5883 0afb 63        		.byte	99
 5884 0afc 63        		.byte	99
 5885 0afd 63        		.byte	99
 5886 0afe 63        		.byte	99
 5887 0aff 63        		.byte	99
 5888 0b00 63        		.byte	99
 5889 0b01 E3        		.byte	-29
 5890 0b02 C3        		.byte	-61
 5891 0b03 83        		.byte	-125
 5892 0b04 00        		.byte	0
 5893 0b05 0C        		.byte	12
 5894 0b06 1C        		.byte	28
 5895 0b07 38        		.byte	56
 5896 0b08 30        		.byte	48
 5897 0b09 30        		.byte	48
 5898 0b0a 30        		.byte	48
 5899 0b0b 30        		.byte	48
 5900 0b0c 30        		.byte	48
 5901 0b0d 38        		.byte	56
 5902 0b0e 1F        		.byte	31
 5903 0b0f 0F        		.byte	15
 5904 0b10 00        		.byte	0
 5905 0b11 C0        		.byte	-64
 5906 0b12 F0        		.byte	-16
 5907 0b13 F8        		.byte	-8
 5908 0b14 DC        		.byte	-36
 5909 0b15 CE        		.byte	-50
 5910 0b16 C7        		.byte	-57
 5911 0b17 C3        		.byte	-61
 5912 0b18 C3        		.byte	-61
 5913 0b19 C3        		.byte	-61
 5914 0b1a 80        		.byte	-128
 5915 0b1b 00        		.byte	0
 5916 0b1c 00        		.byte	0
 5917 0b1d 0F        		.byte	15
 5918 0b1e 1F        		.byte	31
 5919 0b1f 39        		.byte	57
 5920 0b20 30        		.byte	48
 5921 0b21 30        		.byte	48
 5922 0b22 30        		.byte	48
 5923 0b23 30        		.byte	48
 5924 0b24 30        		.byte	48
 5925 0b25 39        		.byte	57
 5926 0b26 1F        		.byte	31
 5927 0b27 0F        		.byte	15
 5928 0b28 00        		.byte	0
 5929 0b29 03        		.byte	3
 5930 0b2a 03        		.byte	3
 5931 0b2b 03        		.byte	3
 5932 0b2c 03        		.byte	3
 5933 0b2d 03        		.byte	3
 5934 0b2e 03        		.byte	3
 5935 0b2f C3        		.byte	-61
 5936 0b30 F3        		.byte	-13
 5937 0b31 3F        		.byte	63
 5938 0b32 0F        		.byte	15
 5939 0b33 03        		.byte	3
 5940 0b34 00        		.byte	0
 5941 0b35 00        		.byte	0
 5942 0b36 00        		.byte	0
 5943 0b37 00        		.byte	0
 5944 0b38 30        		.byte	48
 5945 0b39 3C        		.byte	60
 5946 0b3a 0F        		.byte	15
 5947 0b3b 03        		.byte	3
 5948 0b3c 00        		.byte	0
 5949 0b3d 00        		.byte	0
 5950 0b3e 00        		.byte	0
 5951 0b3f 00        		.byte	0
 5952 0b40 00        		.byte	0
 5953 0b41 00        		.byte	0
 5954 0b42 BC        		.byte	-68
 5955 0b43 FE        		.byte	-2
 5956 0b44 E7        		.byte	-25
 5957 0b45 C3        		.byte	-61
 5958 0b46 C3        		.byte	-61
 5959 0b47 C3        		.byte	-61
 5960 0b48 E7        		.byte	-25
 5961 0b49 FE        		.byte	-2
 5962 0b4a BC        		.byte	-68
 5963 0b4b 00        		.byte	0
 5964 0b4c 00        		.byte	0
 5965 0b4d 0F        		.byte	15
 5966 0b4e 1F        		.byte	31
 5967 0b4f 39        		.byte	57
 5968 0b50 30        		.byte	48
 5969 0b51 30        		.byte	48
 5970 0b52 30        		.byte	48
 5971 0b53 30        		.byte	48
 5972 0b54 30        		.byte	48
 5973 0b55 39        		.byte	57
 5974 0b56 1F        		.byte	31
 5975 0b57 0F        		.byte	15
 5976 0b58 00        		.byte	0
 5977 0b59 3C        		.byte	60
 5978 0b5a 7E        		.byte	126
 5979 0b5b E7        		.byte	-25
 5980 0b5c C3        		.byte	-61
 5981 0b5d C3        		.byte	-61
 5982 0b5e C3        		.byte	-61
 5983 0b5f C3        		.byte	-61
 5984 0b60 C3        		.byte	-61
 5985 0b61 E7        		.byte	-25
 5986 0b62 FE        		.byte	-2
 5987 0b63 FC        		.byte	-4
 5988 0b64 00        		.byte	0
 5989 0b65 00        		.byte	0
 5990 0b66 00        		.byte	0
 5991 0b67 30        		.byte	48
 5992 0b68 30        		.byte	48
 5993 0b69 30        		.byte	48
 5994 0b6a 38        		.byte	56
 5995 0b6b 1C        		.byte	28
 5996 0b6c 0E        		.byte	14
 5997 0b6d 07        		.byte	7
 5998 0b6e 03        		.byte	3
 5999 0b6f 00        		.byte	0
 6000 0b70 00        		.byte	0
 6001 0b71 00        		.byte	0
 6002 0b72 00        		.byte	0
 6003 0b73 00        		.byte	0
 6004 0b74 70        		.byte	112
 6005 0b75 70        		.byte	112
 6006 0b76 70        		.byte	112
 6007 0b77 00        		.byte	0
 6008 0b78 00        		.byte	0
 6009 0b79 00        		.byte	0
 6010 0b7a 00        		.byte	0
 6011 0b7b 00        		.byte	0
 6012 0b7c 00        		.byte	0
 6013 0b7d 00        		.byte	0
 6014 0b7e 00        		.byte	0
 6015 0b7f 00        		.byte	0
 6016 0b80 1C        		.byte	28
 6017 0b81 1C        		.byte	28
 6018 0b82 1C        		.byte	28
 6019 0b83 00        		.byte	0
 6020 0b84 00        		.byte	0
 6021 0b85 00        		.byte	0
 6022 0b86 00        		.byte	0
 6023 0b87 00        		.byte	0
 6024 0b88 00        		.byte	0
 6025 0b89 00        		.byte	0
 6026 0b8a 00        		.byte	0
 6027 0b8b 00        		.byte	0
 6028 0b8c 70        		.byte	112
 6029 0b8d 70        		.byte	112
 6030 0b8e 70        		.byte	112
 6031 0b8f 00        		.byte	0
 6032 0b90 00        		.byte	0
 6033 0b91 00        		.byte	0
 6034 0b92 00        		.byte	0
 6035 0b93 00        		.byte	0
 6036 0b94 00        		.byte	0
 6037 0b95 00        		.byte	0
 6038 0b96 00        		.byte	0
 6039 0b97 00        		.byte	0
 6040 0b98 9C        		.byte	-100
 6041 0b99 FC        		.byte	-4
 6042 0b9a 7C        		.byte	124
 6043 0b9b 00        		.byte	0
 6044 0b9c 00        		.byte	0
 6045 0b9d 00        		.byte	0
 6046 0b9e 00        		.byte	0
 6047 0b9f 00        		.byte	0
 6048 0ba0 00        		.byte	0
 6049 0ba1 00        		.byte	0
 6050 0ba2 C0        		.byte	-64
 6051 0ba3 E0        		.byte	-32
 6052 0ba4 F0        		.byte	-16
 6053 0ba5 38        		.byte	56
 6054 0ba6 1C        		.byte	28
 6055 0ba7 0E        		.byte	14
 6056 0ba8 07        		.byte	7
 6057 0ba9 03        		.byte	3
 6058 0baa 00        		.byte	0
 6059 0bab 00        		.byte	0
 6060 0bac 00        		.byte	0
 6061 0bad 00        		.byte	0
 6062 0bae 00        		.byte	0
 6063 0baf 01        		.byte	1
 6064 0bb0 03        		.byte	3
 6065 0bb1 07        		.byte	7
 6066 0bb2 0E        		.byte	14
 6067 0bb3 1C        		.byte	28
 6068 0bb4 38        		.byte	56
 6069 0bb5 30        		.byte	48
 6070 0bb6 00        		.byte	0
 6071 0bb7 00        		.byte	0
 6072 0bb8 00        		.byte	0
 6073 0bb9 00        		.byte	0
 6074 0bba 60        		.byte	96
 6075 0bbb 60        		.byte	96
 6076 0bbc 60        		.byte	96
 6077 0bbd 60        		.byte	96
 6078 0bbe 60        		.byte	96
 6079 0bbf 60        		.byte	96
 6080 0bc0 60        		.byte	96
 6081 0bc1 60        		.byte	96
 6082 0bc2 60        		.byte	96
 6083 0bc3 00        		.byte	0
 6084 0bc4 00        		.byte	0
 6085 0bc5 00        		.byte	0
 6086 0bc6 06        		.byte	6
 6087 0bc7 06        		.byte	6
 6088 0bc8 06        		.byte	6
 6089 0bc9 06        		.byte	6
 6090 0bca 06        		.byte	6
 6091 0bcb 06        		.byte	6
 6092 0bcc 06        		.byte	6
 6093 0bcd 06        		.byte	6
 6094 0bce 06        		.byte	6
 6095 0bcf 00        		.byte	0
 6096 0bd0 00        		.byte	0
 6097 0bd1 00        		.byte	0
 6098 0bd2 03        		.byte	3
 6099 0bd3 07        		.byte	7
 6100 0bd4 0E        		.byte	14
 6101 0bd5 1C        		.byte	28
 6102 0bd6 38        		.byte	56
 6103 0bd7 F0        		.byte	-16
 6104 0bd8 E0        		.byte	-32
 6105 0bd9 C0        		.byte	-64
 6106 0bda 00        		.byte	0
 6107 0bdb 00        		.byte	0
 6108 0bdc 00        		.byte	0
 6109 0bdd 00        		.byte	0
 6110 0bde 30        		.byte	48
 6111 0bdf 38        		.byte	56
 6112 0be0 1C        		.byte	28
 6113 0be1 0E        		.byte	14
 6114 0be2 07        		.byte	7
 6115 0be3 03        		.byte	3
 6116 0be4 01        		.byte	1
 6117 0be5 00        		.byte	0
 6118 0be6 00        		.byte	0
 6119 0be7 00        		.byte	0
 6120 0be8 00        		.byte	0
 6121 0be9 1C        		.byte	28
 6122 0bea 1E        		.byte	30
 6123 0beb 07        		.byte	7
 6124 0bec 03        		.byte	3
 6125 0bed 83        		.byte	-125
 6126 0bee C3        		.byte	-61
 6127 0bef E3        		.byte	-29
 6128 0bf0 77        		.byte	119
 6129 0bf1 3E        		.byte	62
 6130 0bf2 1C        		.byte	28
 6131 0bf3 00        		.byte	0
 6132 0bf4 00        		.byte	0
 6133 0bf5 00        		.byte	0
 6134 0bf6 00        		.byte	0
 6135 0bf7 00        		.byte	0
 6136 0bf8 00        		.byte	0
 6137 0bf9 37        		.byte	55
 6138 0bfa 37        		.byte	55
 6139 0bfb 00        		.byte	0
 6140 0bfc 00        		.byte	0
 6141 0bfd 00        		.byte	0
 6142 0bfe 00        		.byte	0
 6143 0bff 00        		.byte	0
 6144 0c00 00        		.byte	0
 6145 0c01 F8        		.byte	-8
 6146 0c02 FE        		.byte	-2
 6147 0c03 07        		.byte	7
 6148 0c04 F3        		.byte	-13
 6149 0c05 FB        		.byte	-5
 6150 0c06 1B        		.byte	27
 6151 0c07 FB        		.byte	-5
 6152 0c08 FB        		.byte	-5
 6153 0c09 07        		.byte	7
 6154 0c0a FE        		.byte	-2
 6155 0c0b F8        		.byte	-8
 6156 0c0c 00        		.byte	0
 6157 0c0d 0F        		.byte	15
 6158 0c0e 1F        		.byte	31
 6159 0c0f 18        		.byte	24
 6160 0c10 33        		.byte	51
 6161 0c11 37        		.byte	55
 6162 0c12 36        		.byte	54
 6163 0c13 37        		.byte	55
 6164 0c14 37        		.byte	55
 6165 0c15 36        		.byte	54
 6166 0c16 03        		.byte	3
 6167 0c17 01        		.byte	1
 6168 0c18 00        		.byte	0
 6169 0c19 00        		.byte	0
 6170 0c1a 00        		.byte	0
 6171 0c1b E0        		.byte	-32
 6172 0c1c FC        		.byte	-4
 6173 0c1d 1F        		.byte	31
 6174 0c1e 1F        		.byte	31
 6175 0c1f FC        		.byte	-4
 6176 0c20 E0        		.byte	-32
 6177 0c21 00        		.byte	0
 6178 0c22 00        		.byte	0
 6179 0c23 00        		.byte	0
 6180 0c24 00        		.byte	0
 6181 0c25 38        		.byte	56
 6182 0c26 3F        		.byte	63
 6183 0c27 07        		.byte	7
 6184 0c28 06        		.byte	6
 6185 0c29 06        		.byte	6
 6186 0c2a 06        		.byte	6
 6187 0c2b 06        		.byte	6
 6188 0c2c 07        		.byte	7
 6189 0c2d 3F        		.byte	63
 6190 0c2e 38        		.byte	56
 6191 0c2f 00        		.byte	0
 6192 0c30 00        		.byte	0
 6193 0c31 FF        		.byte	-1
 6194 0c32 FF        		.byte	-1
 6195 0c33 C3        		.byte	-61
 6196 0c34 C3        		.byte	-61
 6197 0c35 C3        		.byte	-61
 6198 0c36 C3        		.byte	-61
 6199 0c37 E7        		.byte	-25
 6200 0c38 FE        		.byte	-2
 6201 0c39 BC        		.byte	-68
 6202 0c3a 00        		.byte	0
 6203 0c3b 00        		.byte	0
 6204 0c3c 00        		.byte	0
 6205 0c3d 3F        		.byte	63
 6206 0c3e 3F        		.byte	63
 6207 0c3f 30        		.byte	48
 6208 0c40 30        		.byte	48
 6209 0c41 30        		.byte	48
 6210 0c42 30        		.byte	48
 6211 0c43 30        		.byte	48
 6212 0c44 39        		.byte	57
 6213 0c45 1F        		.byte	31
 6214 0c46 0F        		.byte	15
 6215 0c47 00        		.byte	0
 6216 0c48 00        		.byte	0
 6217 0c49 F0        		.byte	-16
 6218 0c4a FC        		.byte	-4
 6219 0c4b 0E        		.byte	14
 6220 0c4c 07        		.byte	7
 6221 0c4d 03        		.byte	3
 6222 0c4e 03        		.byte	3
 6223 0c4f 03        		.byte	3
 6224 0c50 07        		.byte	7
 6225 0c51 0E        		.byte	14
 6226 0c52 0C        		.byte	12
 6227 0c53 00        		.byte	0
 6228 0c54 00        		.byte	0
 6229 0c55 03        		.byte	3
 6230 0c56 0F        		.byte	15
 6231 0c57 1C        		.byte	28
 6232 0c58 38        		.byte	56
 6233 0c59 30        		.byte	48
 6234 0c5a 30        		.byte	48
 6235 0c5b 30        		.byte	48
 6236 0c5c 38        		.byte	56
 6237 0c5d 1C        		.byte	28
 6238 0c5e 0C        		.byte	12
 6239 0c5f 00        		.byte	0
 6240 0c60 00        		.byte	0
 6241 0c61 FF        		.byte	-1
 6242 0c62 FF        		.byte	-1
 6243 0c63 03        		.byte	3
 6244 0c64 03        		.byte	3
 6245 0c65 03        		.byte	3
 6246 0c66 03        		.byte	3
 6247 0c67 07        		.byte	7
 6248 0c68 0E        		.byte	14
 6249 0c69 FC        		.byte	-4
 6250 0c6a F0        		.byte	-16
 6251 0c6b 00        		.byte	0
 6252 0c6c 00        		.byte	0
 6253 0c6d 3F        		.byte	63
 6254 0c6e 3F        		.byte	63
 6255 0c6f 30        		.byte	48
 6256 0c70 30        		.byte	48
 6257 0c71 30        		.byte	48
 6258 0c72 30        		.byte	48
 6259 0c73 38        		.byte	56
 6260 0c74 1C        		.byte	28
 6261 0c75 0F        		.byte	15
 6262 0c76 03        		.byte	3
 6263 0c77 00        		.byte	0
 6264 0c78 00        		.byte	0
 6265 0c79 FF        		.byte	-1
 6266 0c7a FF        		.byte	-1
 6267 0c7b C3        		.byte	-61
 6268 0c7c C3        		.byte	-61
 6269 0c7d C3        		.byte	-61
 6270 0c7e C3        		.byte	-61
 6271 0c7f C3        		.byte	-61
 6272 0c80 C3        		.byte	-61
 6273 0c81 03        		.byte	3
 6274 0c82 03        		.byte	3
 6275 0c83 00        		.byte	0
 6276 0c84 00        		.byte	0
 6277 0c85 3F        		.byte	63
 6278 0c86 3F        		.byte	63
 6279 0c87 30        		.byte	48
 6280 0c88 30        		.byte	48
 6281 0c89 30        		.byte	48
 6282 0c8a 30        		.byte	48
 6283 0c8b 30        		.byte	48
 6284 0c8c 30        		.byte	48
 6285 0c8d 30        		.byte	48
 6286 0c8e 30        		.byte	48
 6287 0c8f 00        		.byte	0
 6288 0c90 00        		.byte	0
 6289 0c91 FF        		.byte	-1
 6290 0c92 FF        		.byte	-1
 6291 0c93 C3        		.byte	-61
 6292 0c94 C3        		.byte	-61
 6293 0c95 C3        		.byte	-61
 6294 0c96 C3        		.byte	-61
 6295 0c97 C3        		.byte	-61
 6296 0c98 C3        		.byte	-61
 6297 0c99 03        		.byte	3
 6298 0c9a 03        		.byte	3
 6299 0c9b 00        		.byte	0
 6300 0c9c 00        		.byte	0
 6301 0c9d 3F        		.byte	63
 6302 0c9e 3F        		.byte	63
 6303 0c9f 00        		.byte	0
 6304 0ca0 00        		.byte	0
 6305 0ca1 00        		.byte	0
 6306 0ca2 00        		.byte	0
 6307 0ca3 00        		.byte	0
 6308 0ca4 00        		.byte	0
 6309 0ca5 00        		.byte	0
 6310 0ca6 00        		.byte	0
 6311 0ca7 00        		.byte	0
 6312 0ca8 00        		.byte	0
 6313 0ca9 F0        		.byte	-16
 6314 0caa FC        		.byte	-4
 6315 0cab 0E        		.byte	14
 6316 0cac 07        		.byte	7
 6317 0cad 03        		.byte	3
 6318 0cae C3        		.byte	-61
 6319 0caf C3        		.byte	-61
 6320 0cb0 C3        		.byte	-61
 6321 0cb1 C7        		.byte	-57
 6322 0cb2 C6        		.byte	-58
 6323 0cb3 00        		.byte	0
 6324 0cb4 00        		.byte	0
 6325 0cb5 03        		.byte	3
 6326 0cb6 0F        		.byte	15
 6327 0cb7 1C        		.byte	28
 6328 0cb8 38        		.byte	56
 6329 0cb9 30        		.byte	48
 6330 0cba 30        		.byte	48
 6331 0cbb 30        		.byte	48
 6332 0cbc 30        		.byte	48
 6333 0cbd 3F        		.byte	63
 6334 0cbe 3F        		.byte	63
 6335 0cbf 00        		.byte	0
 6336 0cc0 00        		.byte	0
 6337 0cc1 FF        		.byte	-1
 6338 0cc2 FF        		.byte	-1
 6339 0cc3 C0        		.byte	-64
 6340 0cc4 C0        		.byte	-64
 6341 0cc5 C0        		.byte	-64
 6342 0cc6 C0        		.byte	-64
 6343 0cc7 C0        		.byte	-64
 6344 0cc8 C0        		.byte	-64
 6345 0cc9 FF        		.byte	-1
 6346 0cca FF        		.byte	-1
 6347 0ccb 00        		.byte	0
 6348 0ccc 00        		.byte	0
 6349 0ccd 3F        		.byte	63
 6350 0cce 3F        		.byte	63
 6351 0ccf 00        		.byte	0
 6352 0cd0 00        		.byte	0
 6353 0cd1 00        		.byte	0
 6354 0cd2 00        		.byte	0
 6355 0cd3 00        		.byte	0
 6356 0cd4 00        		.byte	0
 6357 0cd5 3F        		.byte	63
 6358 0cd6 3F        		.byte	63
 6359 0cd7 00        		.byte	0
 6360 0cd8 00        		.byte	0
 6361 0cd9 00        		.byte	0
 6362 0cda 00        		.byte	0
 6363 0cdb 03        		.byte	3
 6364 0cdc 03        		.byte	3
 6365 0cdd FF        		.byte	-1
 6366 0cde FF        		.byte	-1
 6367 0cdf 03        		.byte	3
 6368 0ce0 03        		.byte	3
 6369 0ce1 00        		.byte	0
 6370 0ce2 00        		.byte	0
 6371 0ce3 00        		.byte	0
 6372 0ce4 00        		.byte	0
 6373 0ce5 00        		.byte	0
 6374 0ce6 00        		.byte	0
 6375 0ce7 30        		.byte	48
 6376 0ce8 30        		.byte	48
 6377 0ce9 3F        		.byte	63
 6378 0cea 3F        		.byte	63
 6379 0ceb 30        		.byte	48
 6380 0cec 30        		.byte	48
 6381 0ced 00        		.byte	0
 6382 0cee 00        		.byte	0
 6383 0cef 00        		.byte	0
 6384 0cf0 00        		.byte	0
 6385 0cf1 00        		.byte	0
 6386 0cf2 00        		.byte	0
 6387 0cf3 00        		.byte	0
 6388 0cf4 00        		.byte	0
 6389 0cf5 00        		.byte	0
 6390 0cf6 00        		.byte	0
 6391 0cf7 00        		.byte	0
 6392 0cf8 00        		.byte	0
 6393 0cf9 FF        		.byte	-1
 6394 0cfa FF        		.byte	-1
 6395 0cfb 00        		.byte	0
 6396 0cfc 00        		.byte	0
 6397 0cfd 0E        		.byte	14
 6398 0cfe 1E        		.byte	30
 6399 0cff 38        		.byte	56
 6400 0d00 30        		.byte	48
 6401 0d01 30        		.byte	48
 6402 0d02 30        		.byte	48
 6403 0d03 30        		.byte	48
 6404 0d04 38        		.byte	56
 6405 0d05 1F        		.byte	31
 6406 0d06 07        		.byte	7
 6407 0d07 00        		.byte	0
 6408 0d08 00        		.byte	0
 6409 0d09 FF        		.byte	-1
 6410 0d0a FF        		.byte	-1
 6411 0d0b C0        		.byte	-64
 6412 0d0c E0        		.byte	-32
 6413 0d0d F0        		.byte	-16
 6414 0d0e 38        		.byte	56
 6415 0d0f 1C        		.byte	28
 6416 0d10 0E        		.byte	14
 6417 0d11 07        		.byte	7
 6418 0d12 03        		.byte	3
 6419 0d13 00        		.byte	0
 6420 0d14 00        		.byte	0
 6421 0d15 3F        		.byte	63
 6422 0d16 3F        		.byte	63
 6423 0d17 00        		.byte	0
 6424 0d18 01        		.byte	1
 6425 0d19 03        		.byte	3
 6426 0d1a 07        		.byte	7
 6427 0d1b 0E        		.byte	14
 6428 0d1c 1C        		.byte	28
 6429 0d1d 38        		.byte	56
 6430 0d1e 30        		.byte	48
 6431 0d1f 00        		.byte	0
 6432 0d20 00        		.byte	0
 6433 0d21 FF        		.byte	-1
 6434 0d22 FF        		.byte	-1
 6435 0d23 00        		.byte	0
 6436 0d24 00        		.byte	0
 6437 0d25 00        		.byte	0
 6438 0d26 00        		.byte	0
 6439 0d27 00        		.byte	0
 6440 0d28 00        		.byte	0
 6441 0d29 00        		.byte	0
 6442 0d2a 00        		.byte	0
 6443 0d2b 00        		.byte	0
 6444 0d2c 00        		.byte	0
 6445 0d2d 3F        		.byte	63
 6446 0d2e 3F        		.byte	63
 6447 0d2f 30        		.byte	48
 6448 0d30 30        		.byte	48
 6449 0d31 30        		.byte	48
 6450 0d32 30        		.byte	48
 6451 0d33 30        		.byte	48
 6452 0d34 30        		.byte	48
 6453 0d35 30        		.byte	48
 6454 0d36 30        		.byte	48
 6455 0d37 00        		.byte	0
 6456 0d38 00        		.byte	0
 6457 0d39 FF        		.byte	-1
 6458 0d3a FF        		.byte	-1
 6459 0d3b 1E        		.byte	30
 6460 0d3c 78        		.byte	120
 6461 0d3d E0        		.byte	-32
 6462 0d3e E0        		.byte	-32
 6463 0d3f 78        		.byte	120
 6464 0d40 1E        		.byte	30
 6465 0d41 FF        		.byte	-1
 6466 0d42 FF        		.byte	-1
 6467 0d43 00        		.byte	0
 6468 0d44 00        		.byte	0
 6469 0d45 3F        		.byte	63
 6470 0d46 3F        		.byte	63
 6471 0d47 00        		.byte	0
 6472 0d48 00        		.byte	0
 6473 0d49 01        		.byte	1
 6474 0d4a 01        		.byte	1
 6475 0d4b 00        		.byte	0
 6476 0d4c 00        		.byte	0
 6477 0d4d 3F        		.byte	63
 6478 0d4e 3F        		.byte	63
 6479 0d4f 00        		.byte	0
 6480 0d50 00        		.byte	0
 6481 0d51 FF        		.byte	-1
 6482 0d52 FF        		.byte	-1
 6483 0d53 0E        		.byte	14
 6484 0d54 38        		.byte	56
 6485 0d55 F0        		.byte	-16
 6486 0d56 C0        		.byte	-64
 6487 0d57 00        		.byte	0
 6488 0d58 00        		.byte	0
 6489 0d59 FF        		.byte	-1
 6490 0d5a FF        		.byte	-1
 6491 0d5b 00        		.byte	0
 6492 0d5c 00        		.byte	0
 6493 0d5d 3F        		.byte	63
 6494 0d5e 3F        		.byte	63
 6495 0d5f 00        		.byte	0
 6496 0d60 00        		.byte	0
 6497 0d61 00        		.byte	0
 6498 0d62 03        		.byte	3
 6499 0d63 07        		.byte	7
 6500 0d64 1C        		.byte	28
 6501 0d65 3F        		.byte	63
 6502 0d66 3F        		.byte	63
 6503 0d67 00        		.byte	0
 6504 0d68 00        		.byte	0
 6505 0d69 F0        		.byte	-16
 6506 0d6a FC        		.byte	-4
 6507 0d6b 0E        		.byte	14
 6508 0d6c 07        		.byte	7
 6509 0d6d 03        		.byte	3
 6510 0d6e 03        		.byte	3
 6511 0d6f 07        		.byte	7
 6512 0d70 0E        		.byte	14
 6513 0d71 FC        		.byte	-4
 6514 0d72 F0        		.byte	-16
 6515 0d73 00        		.byte	0
 6516 0d74 00        		.byte	0
 6517 0d75 03        		.byte	3
 6518 0d76 0F        		.byte	15
 6519 0d77 1C        		.byte	28
 6520 0d78 38        		.byte	56
 6521 0d79 30        		.byte	48
 6522 0d7a 30        		.byte	48
 6523 0d7b 38        		.byte	56
 6524 0d7c 1C        		.byte	28
 6525 0d7d 0F        		.byte	15
 6526 0d7e 03        		.byte	3
 6527 0d7f 00        		.byte	0
 6528 0d80 00        		.byte	0
 6529 0d81 FF        		.byte	-1
 6530 0d82 FF        		.byte	-1
 6531 0d83 83        		.byte	-125
 6532 0d84 83        		.byte	-125
 6533 0d85 83        		.byte	-125
 6534 0d86 83        		.byte	-125
 6535 0d87 83        		.byte	-125
 6536 0d88 C7        		.byte	-57
 6537 0d89 FE        		.byte	-2
 6538 0d8a 7C        		.byte	124
 6539 0d8b 00        		.byte	0
 6540 0d8c 00        		.byte	0
 6541 0d8d 3F        		.byte	63
 6542 0d8e 3F        		.byte	63
 6543 0d8f 01        		.byte	1
 6544 0d90 01        		.byte	1
 6545 0d91 01        		.byte	1
 6546 0d92 01        		.byte	1
 6547 0d93 01        		.byte	1
 6548 0d94 01        		.byte	1
 6549 0d95 00        		.byte	0
 6550 0d96 00        		.byte	0
 6551 0d97 00        		.byte	0
 6552 0d98 00        		.byte	0
 6553 0d99 F0        		.byte	-16
 6554 0d9a FC        		.byte	-4
 6555 0d9b 0E        		.byte	14
 6556 0d9c 07        		.byte	7
 6557 0d9d 03        		.byte	3
 6558 0d9e 03        		.byte	3
 6559 0d9f 07        		.byte	7
 6560 0da0 0E        		.byte	14
 6561 0da1 FC        		.byte	-4
 6562 0da2 F0        		.byte	-16
 6563 0da3 00        		.byte	0
 6564 0da4 00        		.byte	0
 6565 0da5 03        		.byte	3
 6566 0da6 0F        		.byte	15
 6567 0da7 1C        		.byte	28
 6568 0da8 38        		.byte	56
 6569 0da9 30        		.byte	48
 6570 0daa 36        		.byte	54
 6571 0dab 3E        		.byte	62
 6572 0dac 1C        		.byte	28
 6573 0dad 3F        		.byte	63
 6574 0dae 33        		.byte	51
 6575 0daf 00        		.byte	0
 6576 0db0 00        		.byte	0
 6577 0db1 FF        		.byte	-1
 6578 0db2 FF        		.byte	-1
 6579 0db3 83        		.byte	-125
 6580 0db4 83        		.byte	-125
 6581 0db5 83        		.byte	-125
 6582 0db6 83        		.byte	-125
 6583 0db7 83        		.byte	-125
 6584 0db8 C7        		.byte	-57
 6585 0db9 FE        		.byte	-2
 6586 0dba 7C        		.byte	124
 6587 0dbb 00        		.byte	0
 6588 0dbc 00        		.byte	0
 6589 0dbd 3F        		.byte	63
 6590 0dbe 3F        		.byte	63
 6591 0dbf 01        		.byte	1
 6592 0dc0 01        		.byte	1
 6593 0dc1 03        		.byte	3
 6594 0dc2 07        		.byte	7
 6595 0dc3 0F        		.byte	15
 6596 0dc4 1D        		.byte	29
 6597 0dc5 38        		.byte	56
 6598 0dc6 30        		.byte	48
 6599 0dc7 00        		.byte	0
 6600 0dc8 00        		.byte	0
 6601 0dc9 3C        		.byte	60
 6602 0dca 7E        		.byte	126
 6603 0dcb E7        		.byte	-25
 6604 0dcc C3        		.byte	-61
 6605 0dcd C3        		.byte	-61
 6606 0dce C3        		.byte	-61
 6607 0dcf C3        		.byte	-61
 6608 0dd0 C7        		.byte	-57
 6609 0dd1 8E        		.byte	-114
 6610 0dd2 0C        		.byte	12
 6611 0dd3 00        		.byte	0
 6612 0dd4 00        		.byte	0
 6613 0dd5 0C        		.byte	12
 6614 0dd6 1C        		.byte	28
 6615 0dd7 38        		.byte	56
 6616 0dd8 30        		.byte	48
 6617 0dd9 30        		.byte	48
 6618 0dda 30        		.byte	48
 6619 0ddb 30        		.byte	48
 6620 0ddc 39        		.byte	57
 6621 0ddd 1F        		.byte	31
 6622 0dde 0F        		.byte	15
 6623 0ddf 00        		.byte	0
 6624 0de0 00        		.byte	0
 6625 0de1 00        		.byte	0
 6626 0de2 03        		.byte	3
 6627 0de3 03        		.byte	3
 6628 0de4 03        		.byte	3
 6629 0de5 FF        		.byte	-1
 6630 0de6 FF        		.byte	-1
 6631 0de7 03        		.byte	3
 6632 0de8 03        		.byte	3
 6633 0de9 03        		.byte	3
 6634 0dea 00        		.byte	0
 6635 0deb 00        		.byte	0
 6636 0dec 00        		.byte	0
 6637 0ded 00        		.byte	0
 6638 0dee 00        		.byte	0
 6639 0def 00        		.byte	0
 6640 0df0 00        		.byte	0
 6641 0df1 3F        		.byte	63
 6642 0df2 3F        		.byte	63
 6643 0df3 00        		.byte	0
 6644 0df4 00        		.byte	0
 6645 0df5 00        		.byte	0
 6646 0df6 00        		.byte	0
 6647 0df7 00        		.byte	0
 6648 0df8 00        		.byte	0
 6649 0df9 FF        		.byte	-1
 6650 0dfa FF        		.byte	-1
 6651 0dfb 00        		.byte	0
 6652 0dfc 00        		.byte	0
 6653 0dfd 00        		.byte	0
 6654 0dfe 00        		.byte	0
 6655 0dff 00        		.byte	0
 6656 0e00 00        		.byte	0
 6657 0e01 FF        		.byte	-1
 6658 0e02 FF        		.byte	-1
 6659 0e03 00        		.byte	0
 6660 0e04 00        		.byte	0
 6661 0e05 07        		.byte	7
 6662 0e06 1F        		.byte	31
 6663 0e07 38        		.byte	56
 6664 0e08 30        		.byte	48
 6665 0e09 30        		.byte	48
 6666 0e0a 30        		.byte	48
 6667 0e0b 30        		.byte	48
 6668 0e0c 38        		.byte	56
 6669 0e0d 1F        		.byte	31
 6670 0e0e 07        		.byte	7
 6671 0e0f 00        		.byte	0
 6672 0e10 00        		.byte	0
 6673 0e11 07        		.byte	7
 6674 0e12 3F        		.byte	63
 6675 0e13 F8        		.byte	-8
 6676 0e14 C0        		.byte	-64
 6677 0e15 00        		.byte	0
 6678 0e16 00        		.byte	0
 6679 0e17 C0        		.byte	-64
 6680 0e18 F8        		.byte	-8
 6681 0e19 3F        		.byte	63
 6682 0e1a 07        		.byte	7
 6683 0e1b 00        		.byte	0
 6684 0e1c 00        		.byte	0
 6685 0e1d 00        		.byte	0
 6686 0e1e 00        		.byte	0
 6687 0e1f 01        		.byte	1
 6688 0e20 0F        		.byte	15
 6689 0e21 3E        		.byte	62
 6690 0e22 3E        		.byte	62
 6691 0e23 0F        		.byte	15
 6692 0e24 01        		.byte	1
 6693 0e25 00        		.byte	0
 6694 0e26 00        		.byte	0
 6695 0e27 00        		.byte	0
 6696 0e28 00        		.byte	0
 6697 0e29 FF        		.byte	-1
 6698 0e2a FF        		.byte	-1
 6699 0e2b 00        		.byte	0
 6700 0e2c 00        		.byte	0
 6701 0e2d 80        		.byte	-128
 6702 0e2e 80        		.byte	-128
 6703 0e2f 00        		.byte	0
 6704 0e30 00        		.byte	0
 6705 0e31 FF        		.byte	-1
 6706 0e32 FF        		.byte	-1
 6707 0e33 00        		.byte	0
 6708 0e34 00        		.byte	0
 6709 0e35 3F        		.byte	63
 6710 0e36 3F        		.byte	63
 6711 0e37 1C        		.byte	28
 6712 0e38 06        		.byte	6
 6713 0e39 03        		.byte	3
 6714 0e3a 03        		.byte	3
 6715 0e3b 06        		.byte	6
 6716 0e3c 1C        		.byte	28
 6717 0e3d 3F        		.byte	63
 6718 0e3e 3F        		.byte	63
 6719 0e3f 00        		.byte	0
 6720 0e40 00        		.byte	0
 6721 0e41 03        		.byte	3
 6722 0e42 0F        		.byte	15
 6723 0e43 1C        		.byte	28
 6724 0e44 30        		.byte	48
 6725 0e45 E0        		.byte	-32
 6726 0e46 E0        		.byte	-32
 6727 0e47 30        		.byte	48
 6728 0e48 1C        		.byte	28
 6729 0e49 0F        		.byte	15
 6730 0e4a 03        		.byte	3
 6731 0e4b 00        		.byte	0
 6732 0e4c 00        		.byte	0
 6733 0e4d 30        		.byte	48
 6734 0e4e 3C        		.byte	60
 6735 0e4f 0E        		.byte	14
 6736 0e50 03        		.byte	3
 6737 0e51 01        		.byte	1
 6738 0e52 01        		.byte	1
 6739 0e53 03        		.byte	3
 6740 0e54 0E        		.byte	14
 6741 0e55 3C        		.byte	60
 6742 0e56 30        		.byte	48
 6743 0e57 00        		.byte	0
 6744 0e58 00        		.byte	0
 6745 0e59 03        		.byte	3
 6746 0e5a 0F        		.byte	15
 6747 0e5b 3C        		.byte	60
 6748 0e5c F0        		.byte	-16
 6749 0e5d C0        		.byte	-64
 6750 0e5e C0        		.byte	-64
 6751 0e5f F0        		.byte	-16
 6752 0e60 3C        		.byte	60
 6753 0e61 0F        		.byte	15
 6754 0e62 03        		.byte	3
 6755 0e63 00        		.byte	0
 6756 0e64 00        		.byte	0
 6757 0e65 00        		.byte	0
 6758 0e66 00        		.byte	0
 6759 0e67 00        		.byte	0
 6760 0e68 00        		.byte	0
 6761 0e69 3F        		.byte	63
 6762 0e6a 3F        		.byte	63
 6763 0e6b 00        		.byte	0
 6764 0e6c 00        		.byte	0
 6765 0e6d 00        		.byte	0
 6766 0e6e 00        		.byte	0
 6767 0e6f 00        		.byte	0
 6768 0e70 00        		.byte	0
 6769 0e71 03        		.byte	3
 6770 0e72 03        		.byte	3
 6771 0e73 03        		.byte	3
 6772 0e74 03        		.byte	3
 6773 0e75 C3        		.byte	-61
 6774 0e76 E3        		.byte	-29
 6775 0e77 33        		.byte	51
 6776 0e78 1F        		.byte	31
 6777 0e79 0F        		.byte	15
 6778 0e7a 03        		.byte	3
 6779 0e7b 00        		.byte	0
 6780 0e7c 00        		.byte	0
 6781 0e7d 30        		.byte	48
 6782 0e7e 3C        		.byte	60
 6783 0e7f 3E        		.byte	62
 6784 0e80 33        		.byte	51
 6785 0e81 31        		.byte	49
 6786 0e82 30        		.byte	48
 6787 0e83 30        		.byte	48
 6788 0e84 30        		.byte	48
 6789 0e85 30        		.byte	48
 6790 0e86 30        		.byte	48
 6791 0e87 00        		.byte	0
 6792 0e88 00        		.byte	0
 6793 0e89 00        		.byte	0
 6794 0e8a 00        		.byte	0
 6795 0e8b FF        		.byte	-1
 6796 0e8c FF        		.byte	-1
 6797 0e8d 03        		.byte	3
 6798 0e8e 03        		.byte	3
 6799 0e8f 03        		.byte	3
 6800 0e90 03        		.byte	3
 6801 0e91 00        		.byte	0
 6802 0e92 00        		.byte	0
 6803 0e93 00        		.byte	0
 6804 0e94 00        		.byte	0
 6805 0e95 00        		.byte	0
 6806 0e96 00        		.byte	0
 6807 0e97 3F        		.byte	63
 6808 0e98 3F        		.byte	63
 6809 0e99 30        		.byte	48
 6810 0e9a 30        		.byte	48
 6811 0e9b 30        		.byte	48
 6812 0e9c 30        		.byte	48
 6813 0e9d 00        		.byte	0
 6814 0e9e 00        		.byte	0
 6815 0e9f 00        		.byte	0
 6816 0ea0 00        		.byte	0
 6817 0ea1 0E        		.byte	14
 6818 0ea2 1C        		.byte	28
 6819 0ea3 38        		.byte	56
 6820 0ea4 70        		.byte	112
 6821 0ea5 E0        		.byte	-32
 6822 0ea6 C0        		.byte	-64
 6823 0ea7 80        		.byte	-128
 6824 0ea8 00        		.byte	0
 6825 0ea9 00        		.byte	0
 6826 0eaa 00        		.byte	0
 6827 0eab 00        		.byte	0
 6828 0eac 00        		.byte	0
 6829 0ead 00        		.byte	0
 6830 0eae 00        		.byte	0
 6831 0eaf 00        		.byte	0
 6832 0eb0 00        		.byte	0
 6833 0eb1 00        		.byte	0
 6834 0eb2 01        		.byte	1
 6835 0eb3 03        		.byte	3
 6836 0eb4 07        		.byte	7
 6837 0eb5 0E        		.byte	14
 6838 0eb6 1C        		.byte	28
 6839 0eb7 18        		.byte	24
 6840 0eb8 00        		.byte	0
 6841 0eb9 00        		.byte	0
 6842 0eba 00        		.byte	0
 6843 0ebb 03        		.byte	3
 6844 0ebc 03        		.byte	3
 6845 0ebd 03        		.byte	3
 6846 0ebe 03        		.byte	3
 6847 0ebf FF        		.byte	-1
 6848 0ec0 FF        		.byte	-1
 6849 0ec1 00        		.byte	0
 6850 0ec2 00        		.byte	0
 6851 0ec3 00        		.byte	0
 6852 0ec4 00        		.byte	0
 6853 0ec5 00        		.byte	0
 6854 0ec6 00        		.byte	0
 6855 0ec7 30        		.byte	48
 6856 0ec8 30        		.byte	48
 6857 0ec9 30        		.byte	48
 6858 0eca 30        		.byte	48
 6859 0ecb 3F        		.byte	63
 6860 0ecc 3F        		.byte	63
 6861 0ecd 00        		.byte	0
 6862 0ece 00        		.byte	0
 6863 0ecf 00        		.byte	0
 6864 0ed0 00        		.byte	0
 6865 0ed1 60        		.byte	96
 6866 0ed2 70        		.byte	112
 6867 0ed3 38        		.byte	56
 6868 0ed4 1C        		.byte	28
 6869 0ed5 0E        		.byte	14
 6870 0ed6 07        		.byte	7
 6871 0ed7 0E        		.byte	14
 6872 0ed8 1C        		.byte	28
 6873 0ed9 38        		.byte	56
 6874 0eda 70        		.byte	112
 6875 0edb 60        		.byte	96
 6876 0edc 00        		.byte	0
 6877 0edd 00        		.byte	0
 6878 0ede 00        		.byte	0
 6879 0edf 00        		.byte	0
 6880 0ee0 00        		.byte	0
 6881 0ee1 00        		.byte	0
 6882 0ee2 00        		.byte	0
 6883 0ee3 00        		.byte	0
 6884 0ee4 00        		.byte	0
 6885 0ee5 00        		.byte	0
 6886 0ee6 00        		.byte	0
 6887 0ee7 00        		.byte	0
 6888 0ee8 00        		.byte	0
 6889 0ee9 00        		.byte	0
 6890 0eea 00        		.byte	0
 6891 0eeb 00        		.byte	0
 6892 0eec 00        		.byte	0
 6893 0eed 00        		.byte	0
 6894 0eee 00        		.byte	0
 6895 0eef 00        		.byte	0
 6896 0ef0 00        		.byte	0
 6897 0ef1 00        		.byte	0
 6898 0ef2 00        		.byte	0
 6899 0ef3 00        		.byte	0
 6900 0ef4 00        		.byte	0
 6901 0ef5 C0        		.byte	-64
 6902 0ef6 C0        		.byte	-64
 6903 0ef7 C0        		.byte	-64
 6904 0ef8 C0        		.byte	-64
 6905 0ef9 C0        		.byte	-64
 6906 0efa C0        		.byte	-64
 6907 0efb C0        		.byte	-64
 6908 0efc C0        		.byte	-64
 6909 0efd C0        		.byte	-64
 6910 0efe C0        		.byte	-64
 6911 0eff C0        		.byte	-64
 6912 0f00 00        		.byte	0
 6913 0f01 00        		.byte	0
 6914 0f02 00        		.byte	0
 6915 0f03 00        		.byte	0
 6916 0f04 00        		.byte	0
 6917 0f05 3E        		.byte	62
 6918 0f06 7E        		.byte	126
 6919 0f07 4E        		.byte	78
 6920 0f08 00        		.byte	0
 6921 0f09 00        		.byte	0
 6922 0f0a 00        		.byte	0
 6923 0f0b 00        		.byte	0
 6924 0f0c 00        		.byte	0
 6925 0f0d 00        		.byte	0
 6926 0f0e 00        		.byte	0
 6927 0f0f 00        		.byte	0
 6928 0f10 00        		.byte	0
 6929 0f11 00        		.byte	0
 6930 0f12 00        		.byte	0
 6931 0f13 00        		.byte	0
 6932 0f14 00        		.byte	0
 6933 0f15 00        		.byte	0
 6934 0f16 00        		.byte	0
 6935 0f17 00        		.byte	0
 6936 0f18 00        		.byte	0
 6937 0f19 00        		.byte	0
 6938 0f1a 40        		.byte	64
 6939 0f1b 60        		.byte	96
 6940 0f1c 60        		.byte	96
 6941 0f1d 60        		.byte	96
 6942 0f1e 60        		.byte	96
 6943 0f1f 60        		.byte	96
 6944 0f20 60        		.byte	96
 6945 0f21 E0        		.byte	-32
 6946 0f22 C0        		.byte	-64
 6947 0f23 00        		.byte	0
 6948 0f24 00        		.byte	0
 6949 0f25 1C        		.byte	28
 6950 0f26 3E        		.byte	62
 6951 0f27 33        		.byte	51
 6952 0f28 33        		.byte	51
 6953 0f29 33        		.byte	51
 6954 0f2a 33        		.byte	51
 6955 0f2b 33        		.byte	51
 6956 0f2c 33        		.byte	51
 6957 0f2d 3F        		.byte	63
 6958 0f2e 3F        		.byte	63
 6959 0f2f 00        		.byte	0
 6960 0f30 00        		.byte	0
 6961 0f31 FF        		.byte	-1
 6962 0f32 FF        		.byte	-1
 6963 0f33 C0        		.byte	-64
 6964 0f34 60        		.byte	96
 6965 0f35 60        		.byte	96
 6966 0f36 60        		.byte	96
 6967 0f37 60        		.byte	96
 6968 0f38 E0        		.byte	-32
 6969 0f39 C0        		.byte	-64
 6970 0f3a 80        		.byte	-128
 6971 0f3b 00        		.byte	0
 6972 0f3c 00        		.byte	0
 6973 0f3d 3F        		.byte	63
 6974 0f3e 3F        		.byte	63
 6975 0f3f 30        		.byte	48
 6976 0f40 30        		.byte	48
 6977 0f41 30        		.byte	48
 6978 0f42 30        		.byte	48
 6979 0f43 30        		.byte	48
 6980 0f44 38        		.byte	56
 6981 0f45 1F        		.byte	31
 6982 0f46 0F        		.byte	15
 6983 0f47 00        		.byte	0
 6984 0f48 00        		.byte	0
 6985 0f49 80        		.byte	-128
 6986 0f4a C0        		.byte	-64
 6987 0f4b E0        		.byte	-32
 6988 0f4c 60        		.byte	96
 6989 0f4d 60        		.byte	96
 6990 0f4e 60        		.byte	96
 6991 0f4f 60        		.byte	96
 6992 0f50 60        		.byte	96
 6993 0f51 C0        		.byte	-64
 6994 0f52 80        		.byte	-128
 6995 0f53 00        		.byte	0
 6996 0f54 00        		.byte	0
 6997 0f55 0F        		.byte	15
 6998 0f56 1F        		.byte	31
 6999 0f57 38        		.byte	56
 7000 0f58 30        		.byte	48
 7001 0f59 30        		.byte	48
 7002 0f5a 30        		.byte	48
 7003 0f5b 30        		.byte	48
 7004 0f5c 30        		.byte	48
 7005 0f5d 18        		.byte	24
 7006 0f5e 08        		.byte	8
 7007 0f5f 00        		.byte	0
 7008 0f60 00        		.byte	0
 7009 0f61 80        		.byte	-128
 7010 0f62 C0        		.byte	-64
 7011 0f63 E0        		.byte	-32
 7012 0f64 60        		.byte	96
 7013 0f65 60        		.byte	96
 7014 0f66 60        		.byte	96
 7015 0f67 E0        		.byte	-32
 7016 0f68 C0        		.byte	-64
 7017 0f69 FF        		.byte	-1
 7018 0f6a FF        		.byte	-1
 7019 0f6b 00        		.byte	0
 7020 0f6c 00        		.byte	0
 7021 0f6d 0F        		.byte	15
 7022 0f6e 1F        		.byte	31
 7023 0f6f 38        		.byte	56
 7024 0f70 30        		.byte	48
 7025 0f71 30        		.byte	48
 7026 0f72 30        		.byte	48
 7027 0f73 30        		.byte	48
 7028 0f74 30        		.byte	48
 7029 0f75 3F        		.byte	63
 7030 0f76 3F        		.byte	63
 7031 0f77 00        		.byte	0
 7032 0f78 00        		.byte	0
 7033 0f79 80        		.byte	-128
 7034 0f7a C0        		.byte	-64
 7035 0f7b E0        		.byte	-32
 7036 0f7c 60        		.byte	96
 7037 0f7d 60        		.byte	96
 7038 0f7e 60        		.byte	96
 7039 0f7f 60        		.byte	96
 7040 0f80 60        		.byte	96
 7041 0f81 C0        		.byte	-64
 7042 0f82 80        		.byte	-128
 7043 0f83 00        		.byte	0
 7044 0f84 00        		.byte	0
 7045 0f85 0F        		.byte	15
 7046 0f86 1F        		.byte	31
 7047 0f87 3B        		.byte	59
 7048 0f88 33        		.byte	51
 7049 0f89 33        		.byte	51
 7050 0f8a 33        		.byte	51
 7051 0f8b 33        		.byte	51
 7052 0f8c 33        		.byte	51
 7053 0f8d 13        		.byte	19
 7054 0f8e 01        		.byte	1
 7055 0f8f 00        		.byte	0
 7056 0f90 00        		.byte	0
 7057 0f91 C0        		.byte	-64
 7058 0f92 C0        		.byte	-64
 7059 0f93 FC        		.byte	-4
 7060 0f94 FE        		.byte	-2
 7061 0f95 C7        		.byte	-57
 7062 0f96 C3        		.byte	-61
 7063 0f97 C3        		.byte	-61
 7064 0f98 03        		.byte	3
 7065 0f99 00        		.byte	0
 7066 0f9a 00        		.byte	0
 7067 0f9b 00        		.byte	0
 7068 0f9c 00        		.byte	0
 7069 0f9d 00        		.byte	0
 7070 0f9e 00        		.byte	0
 7071 0f9f 3F        		.byte	63
 7072 0fa0 3F        		.byte	63
 7073 0fa1 00        		.byte	0
 7074 0fa2 00        		.byte	0
 7075 0fa3 00        		.byte	0
 7076 0fa4 00        		.byte	0
 7077 0fa5 00        		.byte	0
 7078 0fa6 00        		.byte	0
 7079 0fa7 00        		.byte	0
 7080 0fa8 00        		.byte	0
 7081 0fa9 80        		.byte	-128
 7082 0faa C0        		.byte	-64
 7083 0fab E0        		.byte	-32
 7084 0fac 60        		.byte	96
 7085 0fad 60        		.byte	96
 7086 0fae 60        		.byte	96
 7087 0faf 60        		.byte	96
 7088 0fb0 60        		.byte	96
 7089 0fb1 E0        		.byte	-32
 7090 0fb2 E0        		.byte	-32
 7091 0fb3 00        		.byte	0
 7092 0fb4 00        		.byte	0
 7093 0fb5 03        		.byte	3
 7094 0fb6 C7        		.byte	-57
 7095 0fb7 CE        		.byte	-50
 7096 0fb8 CC        		.byte	-52
 7097 0fb9 CC        		.byte	-52
 7098 0fba CC        		.byte	-52
 7099 0fbb CC        		.byte	-52
 7100 0fbc E6        		.byte	-26
 7101 0fbd 7F        		.byte	127
 7102 0fbe 3F        		.byte	63
 7103 0fbf 00        		.byte	0
 7104 0fc0 00        		.byte	0
 7105 0fc1 FF        		.byte	-1
 7106 0fc2 FF        		.byte	-1
 7107 0fc3 C0        		.byte	-64
 7108 0fc4 60        		.byte	96
 7109 0fc5 60        		.byte	96
 7110 0fc6 60        		.byte	96
 7111 0fc7 E0        		.byte	-32
 7112 0fc8 C0        		.byte	-64
 7113 0fc9 80        		.byte	-128
 7114 0fca 00        		.byte	0
 7115 0fcb 00        		.byte	0
 7116 0fcc 00        		.byte	0
 7117 0fcd 3F        		.byte	63
 7118 0fce 3F        		.byte	63
 7119 0fcf 00        		.byte	0
 7120 0fd0 00        		.byte	0
 7121 0fd1 00        		.byte	0
 7122 0fd2 00        		.byte	0
 7123 0fd3 00        		.byte	0
 7124 0fd4 3F        		.byte	63
 7125 0fd5 3F        		.byte	63
 7126 0fd6 00        		.byte	0
 7127 0fd7 00        		.byte	0
 7128 0fd8 00        		.byte	0
 7129 0fd9 00        		.byte	0
 7130 0fda 00        		.byte	0
 7131 0fdb 00        		.byte	0
 7132 0fdc 60        		.byte	96
 7133 0fdd EC        		.byte	-20
 7134 0fde EC        		.byte	-20
 7135 0fdf 00        		.byte	0
 7136 0fe0 00        		.byte	0
 7137 0fe1 00        		.byte	0
 7138 0fe2 00        		.byte	0
 7139 0fe3 00        		.byte	0
 7140 0fe4 00        		.byte	0
 7141 0fe5 00        		.byte	0
 7142 0fe6 00        		.byte	0
 7143 0fe7 30        		.byte	48
 7144 0fe8 30        		.byte	48
 7145 0fe9 3F        		.byte	63
 7146 0fea 3F        		.byte	63
 7147 0feb 30        		.byte	48
 7148 0fec 30        		.byte	48
 7149 0fed 00        		.byte	0
 7150 0fee 00        		.byte	0
 7151 0fef 00        		.byte	0
 7152 0ff0 00        		.byte	0
 7153 0ff1 00        		.byte	0
 7154 0ff2 00        		.byte	0
 7155 0ff3 00        		.byte	0
 7156 0ff4 00        		.byte	0
 7157 0ff5 00        		.byte	0
 7158 0ff6 60        		.byte	96
 7159 0ff7 EC        		.byte	-20
 7160 0ff8 EC        		.byte	-20
 7161 0ff9 00        		.byte	0
 7162 0ffa 00        		.byte	0
 7163 0ffb 00        		.byte	0
 7164 0ffc 00        		.byte	0
 7165 0ffd 00        		.byte	0
 7166 0ffe 00        		.byte	0
 7167 0fff 60        		.byte	96
 7168 1000 E0        		.byte	-32
 7169 1001 C0        		.byte	-64
 7170 1002 C0        		.byte	-64
 7171 1003 FF        		.byte	-1
 7172 1004 7F        		.byte	127
 7173 1005 00        		.byte	0
 7174 1006 00        		.byte	0
 7175 1007 00        		.byte	0
 7176 1008 00        		.byte	0
 7177 1009 00        		.byte	0
 7178 100a FF        		.byte	-1
 7179 100b FF        		.byte	-1
 7180 100c 00        		.byte	0
 7181 100d 80        		.byte	-128
 7182 100e C0        		.byte	-64
 7183 100f E0        		.byte	-32
 7184 1010 60        		.byte	96
 7185 1011 00        		.byte	0
 7186 1012 00        		.byte	0
 7187 1013 00        		.byte	0
 7188 1014 00        		.byte	0
 7189 1015 00        		.byte	0
 7190 1016 3F        		.byte	63
 7191 1017 3F        		.byte	63
 7192 1018 03        		.byte	3
 7193 1019 07        		.byte	7
 7194 101a 0F        		.byte	15
 7195 101b 1C        		.byte	28
 7196 101c 38        		.byte	56
 7197 101d 30        		.byte	48
 7198 101e 00        		.byte	0
 7199 101f 00        		.byte	0
 7200 1020 00        		.byte	0
 7201 1021 00        		.byte	0
 7202 1022 00        		.byte	0
 7203 1023 00        		.byte	0
 7204 1024 03        		.byte	3
 7205 1025 FF        		.byte	-1
 7206 1026 FF        		.byte	-1
 7207 1027 00        		.byte	0
 7208 1028 00        		.byte	0
 7209 1029 00        		.byte	0
 7210 102a 00        		.byte	0
 7211 102b 00        		.byte	0
 7212 102c 00        		.byte	0
 7213 102d 00        		.byte	0
 7214 102e 00        		.byte	0
 7215 102f 30        		.byte	48
 7216 1030 30        		.byte	48
 7217 1031 3F        		.byte	63
 7218 1032 3F        		.byte	63
 7219 1033 30        		.byte	48
 7220 1034 30        		.byte	48
 7221 1035 00        		.byte	0
 7222 1036 00        		.byte	0
 7223 1037 00        		.byte	0
 7224 1038 00        		.byte	0
 7225 1039 E0        		.byte	-32
 7226 103a C0        		.byte	-64
 7227 103b E0        		.byte	-32
 7228 103c E0        		.byte	-32
 7229 103d C0        		.byte	-64
 7230 103e C0        		.byte	-64
 7231 103f E0        		.byte	-32
 7232 1040 E0        		.byte	-32
 7233 1041 C0        		.byte	-64
 7234 1042 80        		.byte	-128
 7235 1043 00        		.byte	0
 7236 1044 00        		.byte	0
 7237 1045 3F        		.byte	63
 7238 1046 3F        		.byte	63
 7239 1047 00        		.byte	0
 7240 1048 00        		.byte	0
 7241 1049 3F        		.byte	63
 7242 104a 3F        		.byte	63
 7243 104b 00        		.byte	0
 7244 104c 00        		.byte	0
 7245 104d 3F        		.byte	63
 7246 104e 3F        		.byte	63
 7247 104f 00        		.byte	0
 7248 1050 00        		.byte	0
 7249 1051 00        		.byte	0
 7250 1052 E0        		.byte	-32
 7251 1053 E0        		.byte	-32
 7252 1054 60        		.byte	96
 7253 1055 60        		.byte	96
 7254 1056 60        		.byte	96
 7255 1057 60        		.byte	96
 7256 1058 E0        		.byte	-32
 7257 1059 C0        		.byte	-64
 7258 105a 80        		.byte	-128
 7259 105b 00        		.byte	0
 7260 105c 00        		.byte	0
 7261 105d 00        		.byte	0
 7262 105e 3F        		.byte	63
 7263 105f 3F        		.byte	63
 7264 1060 00        		.byte	0
 7265 1061 00        		.byte	0
 7266 1062 00        		.byte	0
 7267 1063 00        		.byte	0
 7268 1064 00        		.byte	0
 7269 1065 3F        		.byte	63
 7270 1066 3F        		.byte	63
 7271 1067 00        		.byte	0
 7272 1068 00        		.byte	0
 7273 1069 80        		.byte	-128
 7274 106a C0        		.byte	-64
 7275 106b E0        		.byte	-32
 7276 106c 60        		.byte	96
 7277 106d 60        		.byte	96
 7278 106e 60        		.byte	96
 7279 106f 60        		.byte	96
 7280 1070 E0        		.byte	-32
 7281 1071 C0        		.byte	-64
 7282 1072 80        		.byte	-128
 7283 1073 00        		.byte	0
 7284 1074 00        		.byte	0
 7285 1075 0F        		.byte	15
 7286 1076 1F        		.byte	31
 7287 1077 38        		.byte	56
 7288 1078 30        		.byte	48
 7289 1079 30        		.byte	48
 7290 107a 30        		.byte	48
 7291 107b 30        		.byte	48
 7292 107c 38        		.byte	56
 7293 107d 1F        		.byte	31
 7294 107e 0F        		.byte	15
 7295 107f 00        		.byte	0
 7296 1080 00        		.byte	0
 7297 1081 E0        		.byte	-32
 7298 1082 E0        		.byte	-32
 7299 1083 60        		.byte	96
 7300 1084 60        		.byte	96
 7301 1085 60        		.byte	96
 7302 1086 60        		.byte	96
 7303 1087 60        		.byte	96
 7304 1088 E0        		.byte	-32
 7305 1089 C0        		.byte	-64
 7306 108a 80        		.byte	-128
 7307 108b 00        		.byte	0
 7308 108c 00        		.byte	0
 7309 108d FF        		.byte	-1
 7310 108e FF        		.byte	-1
 7311 108f 0C        		.byte	12
 7312 1090 18        		.byte	24
 7313 1091 18        		.byte	24
 7314 1092 18        		.byte	24
 7315 1093 18        		.byte	24
 7316 1094 1C        		.byte	28
 7317 1095 0F        		.byte	15
 7318 1096 07        		.byte	7
 7319 1097 00        		.byte	0
 7320 1098 00        		.byte	0
 7321 1099 80        		.byte	-128
 7322 109a C0        		.byte	-64
 7323 109b E0        		.byte	-32
 7324 109c 60        		.byte	96
 7325 109d 60        		.byte	96
 7326 109e 60        		.byte	96
 7327 109f 60        		.byte	96
 7328 10a0 60        		.byte	96
 7329 10a1 E0        		.byte	-32
 7330 10a2 E0        		.byte	-32
 7331 10a3 00        		.byte	0
 7332 10a4 00        		.byte	0
 7333 10a5 07        		.byte	7
 7334 10a6 0F        		.byte	15
 7335 10a7 1C        		.byte	28
 7336 10a8 18        		.byte	24
 7337 10a9 18        		.byte	24
 7338 10aa 18        		.byte	24
 7339 10ab 18        		.byte	24
 7340 10ac 0C        		.byte	12
 7341 10ad FF        		.byte	-1
 7342 10ae FF        		.byte	-1
 7343 10af 00        		.byte	0
 7344 10b0 00        		.byte	0
 7345 10b1 00        		.byte	0
 7346 10b2 E0        		.byte	-32
 7347 10b3 E0        		.byte	-32
 7348 10b4 C0        		.byte	-64
 7349 10b5 60        		.byte	96
 7350 10b6 60        		.byte	96
 7351 10b7 60        		.byte	96
 7352 10b8 60        		.byte	96
 7353 10b9 E0        		.byte	-32
 7354 10ba C0        		.byte	-64
 7355 10bb 00        		.byte	0
 7356 10bc 00        		.byte	0
 7357 10bd 00        		.byte	0
 7358 10be 3F        		.byte	63
 7359 10bf 3F        		.byte	63
 7360 10c0 00        		.byte	0
 7361 10c1 00        		.byte	0
 7362 10c2 00        		.byte	0
 7363 10c3 00        		.byte	0
 7364 10c4 00        		.byte	0
 7365 10c5 00        		.byte	0
 7366 10c6 00        		.byte	0
 7367 10c7 00        		.byte	0
 7368 10c8 00        		.byte	0
 7369 10c9 C0        		.byte	-64
 7370 10ca E0        		.byte	-32
 7371 10cb 60        		.byte	96
 7372 10cc 60        		.byte	96
 7373 10cd 60        		.byte	96
 7374 10ce 60        		.byte	96
 7375 10cf 60        		.byte	96
 7376 10d0 40        		.byte	64
 7377 10d1 00        		.byte	0
 7378 10d2 00        		.byte	0
 7379 10d3 00        		.byte	0
 7380 10d4 00        		.byte	0
 7381 10d5 11        		.byte	17
 7382 10d6 33        		.byte	51
 7383 10d7 33        		.byte	51
 7384 10d8 33        		.byte	51
 7385 10d9 33        		.byte	51
 7386 10da 33        		.byte	51
 7387 10db 3F        		.byte	63
 7388 10dc 1E        		.byte	30
 7389 10dd 00        		.byte	0
 7390 10de 00        		.byte	0
 7391 10df 00        		.byte	0
 7392 10e0 00        		.byte	0
 7393 10e1 60        		.byte	96
 7394 10e2 60        		.byte	96
 7395 10e3 FE        		.byte	-2
 7396 10e4 FE        		.byte	-2
 7397 10e5 60        		.byte	96
 7398 10e6 60        		.byte	96
 7399 10e7 60        		.byte	96
 7400 10e8 00        		.byte	0
 7401 10e9 00        		.byte	0
 7402 10ea 00        		.byte	0
 7403 10eb 00        		.byte	0
 7404 10ec 00        		.byte	0
 7405 10ed 00        		.byte	0
 7406 10ee 00        		.byte	0
 7407 10ef 1F        		.byte	31
 7408 10f0 3F        		.byte	63
 7409 10f1 30        		.byte	48
 7410 10f2 30        		.byte	48
 7411 10f3 30        		.byte	48
 7412 10f4 30        		.byte	48
 7413 10f5 00        		.byte	0
 7414 10f6 00        		.byte	0
 7415 10f7 00        		.byte	0
 7416 10f8 00        		.byte	0
 7417 10f9 E0        		.byte	-32
 7418 10fa E0        		.byte	-32
 7419 10fb 00        		.byte	0
 7420 10fc 00        		.byte	0
 7421 10fd 00        		.byte	0
 7422 10fe 00        		.byte	0
 7423 10ff 00        		.byte	0
 7424 1100 00        		.byte	0
 7425 1101 E0        		.byte	-32
 7426 1102 E0        		.byte	-32
 7427 1103 00        		.byte	0
 7428 1104 00        		.byte	0
 7429 1105 0F        		.byte	15
 7430 1106 1F        		.byte	31
 7431 1107 38        		.byte	56
 7432 1108 30        		.byte	48
 7433 1109 30        		.byte	48
 7434 110a 30        		.byte	48
 7435 110b 30        		.byte	48
 7436 110c 18        		.byte	24
 7437 110d 3F        		.byte	63
 7438 110e 3F        		.byte	63
 7439 110f 00        		.byte	0
 7440 1110 00        		.byte	0
 7441 1111 60        		.byte	96
 7442 1112 E0        		.byte	-32
 7443 1113 80        		.byte	-128
 7444 1114 00        		.byte	0
 7445 1115 00        		.byte	0
 7446 1116 00        		.byte	0
 7447 1117 00        		.byte	0
 7448 1118 80        		.byte	-128
 7449 1119 E0        		.byte	-32
 7450 111a 60        		.byte	96
 7451 111b 00        		.byte	0
 7452 111c 00        		.byte	0
 7453 111d 00        		.byte	0
 7454 111e 01        		.byte	1
 7455 111f 07        		.byte	7
 7456 1120 1E        		.byte	30
 7457 1121 38        		.byte	56
 7458 1122 38        		.byte	56
 7459 1123 1E        		.byte	30
 7460 1124 07        		.byte	7
 7461 1125 01        		.byte	1
 7462 1126 00        		.byte	0
 7463 1127 00        		.byte	0
 7464 1128 00        		.byte	0
 7465 1129 E0        		.byte	-32
 7466 112a E0        		.byte	-32
 7467 112b 00        		.byte	0
 7468 112c 00        		.byte	0
 7469 112d E0        		.byte	-32
 7470 112e E0        		.byte	-32
 7471 112f 00        		.byte	0
 7472 1130 00        		.byte	0
 7473 1131 E0        		.byte	-32
 7474 1132 E0        		.byte	-32
 7475 1133 00        		.byte	0
 7476 1134 00        		.byte	0
 7477 1135 07        		.byte	7
 7478 1136 1F        		.byte	31
 7479 1137 38        		.byte	56
 7480 1138 1C        		.byte	28
 7481 1139 0F        		.byte	15
 7482 113a 0F        		.byte	15
 7483 113b 1C        		.byte	28
 7484 113c 38        		.byte	56
 7485 113d 1F        		.byte	31
 7486 113e 07        		.byte	7
 7487 113f 00        		.byte	0
 7488 1140 00        		.byte	0
 7489 1141 60        		.byte	96
 7490 1142 E0        		.byte	-32
 7491 1143 C0        		.byte	-64
 7492 1144 80        		.byte	-128
 7493 1145 00        		.byte	0
 7494 1146 80        		.byte	-128
 7495 1147 C0        		.byte	-64
 7496 1148 E0        		.byte	-32
 7497 1149 60        		.byte	96
 7498 114a 00        		.byte	0
 7499 114b 00        		.byte	0
 7500 114c 00        		.byte	0
 7501 114d 30        		.byte	48
 7502 114e 38        		.byte	56
 7503 114f 1D        		.byte	29
 7504 1150 0F        		.byte	15
 7505 1151 07        		.byte	7
 7506 1152 0F        		.byte	15
 7507 1153 1D        		.byte	29
 7508 1154 38        		.byte	56
 7509 1155 30        		.byte	48
 7510 1156 00        		.byte	0
 7511 1157 00        		.byte	0
 7512 1158 00        		.byte	0
 7513 1159 00        		.byte	0
 7514 115a 60        		.byte	96
 7515 115b E0        		.byte	-32
 7516 115c 80        		.byte	-128
 7517 115d 00        		.byte	0
 7518 115e 00        		.byte	0
 7519 115f 80        		.byte	-128
 7520 1160 E0        		.byte	-32
 7521 1161 60        		.byte	96
 7522 1162 00        		.byte	0
 7523 1163 00        		.byte	0
 7524 1164 00        		.byte	0
 7525 1165 00        		.byte	0
 7526 1166 00        		.byte	0
 7527 1167 81        		.byte	-127
 7528 1168 E7        		.byte	-25
 7529 1169 7E        		.byte	126
 7530 116a 1E        		.byte	30
 7531 116b 07        		.byte	7
 7532 116c 01        		.byte	1
 7533 116d 00        		.byte	0
 7534 116e 00        		.byte	0
 7535 116f 00        		.byte	0
 7536 1170 00        		.byte	0
 7537 1171 60        		.byte	96
 7538 1172 60        		.byte	96
 7539 1173 60        		.byte	96
 7540 1174 60        		.byte	96
 7541 1175 60        		.byte	96
 7542 1176 E0        		.byte	-32
 7543 1177 E0        		.byte	-32
 7544 1178 60        		.byte	96
 7545 1179 20        		.byte	32
 7546 117a 00        		.byte	0
 7547 117b 00        		.byte	0
 7548 117c 00        		.byte	0
 7549 117d 30        		.byte	48
 7550 117e 38        		.byte	56
 7551 117f 3C        		.byte	60
 7552 1180 36        		.byte	54
 7553 1181 33        		.byte	51
 7554 1182 31        		.byte	49
 7555 1183 30        		.byte	48
 7556 1184 30        		.byte	48
 7557 1185 30        		.byte	48
 7558 1186 00        		.byte	0
 7559 1187 00        		.byte	0
 7560 1188 00        		.byte	0
 7561 1189 00        		.byte	0
 7562 118a 80        		.byte	-128
 7563 118b C0        		.byte	-64
 7564 118c FC        		.byte	-4
 7565 118d 7E        		.byte	126
 7566 118e 07        		.byte	7
 7567 118f 03        		.byte	3
 7568 1190 03        		.byte	3
 7569 1191 03        		.byte	3
 7570 1192 00        		.byte	0
 7571 1193 00        		.byte	0
 7572 1194 00        		.byte	0
 7573 1195 00        		.byte	0
 7574 1196 00        		.byte	0
 7575 1197 01        		.byte	1
 7576 1198 1F        		.byte	31
 7577 1199 3F        		.byte	63
 7578 119a 70        		.byte	112
 7579 119b 60        		.byte	96
 7580 119c 60        		.byte	96
 7581 119d 60        		.byte	96
 7582 119e 00        		.byte	0
 7583 119f 00        		.byte	0
 7584 11a0 00        		.byte	0
 7585 11a1 00        		.byte	0
 7586 11a2 00        		.byte	0
 7587 11a3 00        		.byte	0
 7588 11a4 00        		.byte	0
 7589 11a5 FF        		.byte	-1
 7590 11a6 FF        		.byte	-1
 7591 11a7 00        		.byte	0
 7592 11a8 00        		.byte	0
 7593 11a9 00        		.byte	0
 7594 11aa 00        		.byte	0
 7595 11ab 00        		.byte	0
 7596 11ac 00        		.byte	0
 7597 11ad 00        		.byte	0
 7598 11ae 00        		.byte	0
 7599 11af 00        		.byte	0
 7600 11b0 00        		.byte	0
 7601 11b1 3F        		.byte	63
 7602 11b2 3F        		.byte	63
 7603 11b3 00        		.byte	0
 7604 11b4 00        		.byte	0
 7605 11b5 00        		.byte	0
 7606 11b6 00        		.byte	0
 7607 11b7 00        		.byte	0
 7608 11b8 00        		.byte	0
 7609 11b9 00        		.byte	0
 7610 11ba 03        		.byte	3
 7611 11bb 03        		.byte	3
 7612 11bc 03        		.byte	3
 7613 11bd 07        		.byte	7
 7614 11be 7E        		.byte	126
 7615 11bf FC        		.byte	-4
 7616 11c0 C0        		.byte	-64
 7617 11c1 80        		.byte	-128
 7618 11c2 00        		.byte	0
 7619 11c3 00        		.byte	0
 7620 11c4 00        		.byte	0
 7621 11c5 00        		.byte	0
 7622 11c6 60        		.byte	96
 7623 11c7 60        		.byte	96
 7624 11c8 60        		.byte	96
 7625 11c9 70        		.byte	112
 7626 11ca 3F        		.byte	63
 7627 11cb 1F        		.byte	31
 7628 11cc 01        		.byte	1
 7629 11cd 00        		.byte	0
 7630 11ce 00        		.byte	0
 7631 11cf 00        		.byte	0
 7632 11d0 00        		.byte	0
 7633 11d1 10        		.byte	16
 7634 11d2 18        		.byte	24
 7635 11d3 0C        		.byte	12
 7636 11d4 04        		.byte	4
 7637 11d5 0C        		.byte	12
 7638 11d6 18        		.byte	24
 7639 11d7 10        		.byte	16
 7640 11d8 18        		.byte	24
 7641 11d9 0C        		.byte	12
 7642 11da 04        		.byte	4
 7643 11db 00        		.byte	0
 7644 11dc 00        		.byte	0
 7645 11dd 00        		.byte	0
 7646 11de 00        		.byte	0
 7647 11df 00        		.byte	0
 7648 11e0 00        		.byte	0
 7649 11e1 00        		.byte	0
 7650 11e2 00        		.byte	0
 7651 11e3 00        		.byte	0
 7652 11e4 00        		.byte	0
 7653 11e5 00        		.byte	0
 7654 11e6 00        		.byte	0
 7655 11e7 00        		.byte	0
 7656 11e8 00        		.byte	0
 7657 11e9 00        		.byte	0
 7658 11ea 80        		.byte	-128
 7659 11eb C0        		.byte	-64
 7660 11ec 60        		.byte	96
 7661 11ed 30        		.byte	48
 7662 11ee 30        		.byte	48
 7663 11ef 60        		.byte	96
 7664 11f0 C0        		.byte	-64
 7665 11f1 80        		.byte	-128
 7666 11f2 00        		.byte	0
 7667 11f3 00        		.byte	0
 7668 11f4 00        		.byte	0
 7669 11f5 0F        		.byte	15
 7670 11f6 0F        		.byte	15
 7671 11f7 0C        		.byte	12
 7672 11f8 0C        		.byte	12
 7673 11f9 0C        		.byte	12
 7674 11fa 0C        		.byte	12
 7675 11fb 0C        		.byte	12
 7676 11fc 0C        		.byte	12
 7677 11fd 0F        		.byte	15
 7678 11fe 0F        		.byte	15
 7679 11ff 00        		.byte	0
 7680 1200 55        		.byte	85
 7681 1201 00        		.byte	0
 7682 1202 AA        		.byte	-86
 7683 1203 00        		.byte	0
 7684 1204 55        		.byte	85
 7685 1205 00        		.byte	0
 7686 1206 AA        		.byte	-86
 7687 1207 00        		.byte	0
 7688 1208 55        		.byte	85
 7689 1209 00        		.byte	0
 7690 120a AA        		.byte	-86
 7691 120b 00        		.byte	0
 7692 120c 55        		.byte	85
 7693 120d 00        		.byte	0
 7694 120e AA        		.byte	-86
 7695 120f 00        		.byte	0
 7696 1210 55        		.byte	85
 7697 1211 00        		.byte	0
 7698 1212 AA        		.byte	-86
 7699 1213 00        		.byte	0
 7700 1214 55        		.byte	85
 7701 1215 00        		.byte	0
 7702 1216 AA        		.byte	-86
 7703 1217 00        		.byte	0
 7704 1218 AA        		.byte	-86
 7705 1219 55        		.byte	85
 7706 121a AA        		.byte	-86
 7707 121b 55        		.byte	85
 7708 121c AA        		.byte	-86
 7709 121d 55        		.byte	85
 7710 121e AA        		.byte	-86
 7711 121f 55        		.byte	85
 7712 1220 AA        		.byte	-86
 7713 1221 55        		.byte	85
 7714 1222 AA        		.byte	-86
 7715 1223 55        		.byte	85
 7716 1224 AA        		.byte	-86
 7717 1225 55        		.byte	85
 7718 1226 AA        		.byte	-86
 7719 1227 55        		.byte	85
 7720 1228 AA        		.byte	-86
 7721 1229 55        		.byte	85
 7722 122a AA        		.byte	-86
 7723 122b 55        		.byte	85
 7724 122c AA        		.byte	-86
 7725 122d 55        		.byte	85
 7726 122e AA        		.byte	-86
 7727 122f 55        		.byte	85
 7728 1230 AA        		.byte	-86
 7729 1231 FF        		.byte	-1
 7730 1232 55        		.byte	85
 7731 1233 FF        		.byte	-1
 7732 1234 AA        		.byte	-86
 7733 1235 FF        		.byte	-1
 7734 1236 55        		.byte	85
 7735 1237 FF        		.byte	-1
 7736 1238 AA        		.byte	-86
 7737 1239 FF        		.byte	-1
 7738 123a 55        		.byte	85
 7739 123b FF        		.byte	-1
 7740 123c AA        		.byte	-86
 7741 123d FF        		.byte	-1
 7742 123e 55        		.byte	85
 7743 123f FF        		.byte	-1
 7744 1240 AA        		.byte	-86
 7745 1241 FF        		.byte	-1
 7746 1242 55        		.byte	85
 7747 1243 FF        		.byte	-1
 7748 1244 AA        		.byte	-86
 7749 1245 FF        		.byte	-1
 7750 1246 55        		.byte	85
 7751 1247 FF        		.byte	-1
 7752 1248 00        		.byte	0
 7753 1249 00        		.byte	0
 7754 124a 00        		.byte	0
 7755 124b 00        		.byte	0
 7756 124c 00        		.byte	0
 7757 124d FF        		.byte	-1
 7758 124e FF        		.byte	-1
 7759 124f 00        		.byte	0
 7760 1250 00        		.byte	0
 7761 1251 00        		.byte	0
 7762 1252 00        		.byte	0
 7763 1253 00        		.byte	0
 7764 1254 00        		.byte	0
 7765 1255 00        		.byte	0
 7766 1256 00        		.byte	0
 7767 1257 00        		.byte	0
 7768 1258 00        		.byte	0
 7769 1259 FF        		.byte	-1
 7770 125a FF        		.byte	-1
 7771 125b 00        		.byte	0
 7772 125c 00        		.byte	0
 7773 125d 00        		.byte	0
 7774 125e 00        		.byte	0
 7775 125f 00        		.byte	0
 7776 1260 80        		.byte	-128
 7777 1261 80        		.byte	-128
 7778 1262 80        		.byte	-128
 7779 1263 80        		.byte	-128
 7780 1264 80        		.byte	-128
 7781 1265 FF        		.byte	-1
 7782 1266 FF        		.byte	-1
 7783 1267 00        		.byte	0
 7784 1268 00        		.byte	0
 7785 1269 00        		.byte	0
 7786 126a 00        		.byte	0
 7787 126b 00        		.byte	0
 7788 126c 01        		.byte	1
 7789 126d 01        		.byte	1
 7790 126e 01        		.byte	1
 7791 126f 01        		.byte	1
 7792 1270 01        		.byte	1
 7793 1271 FF        		.byte	-1
 7794 1272 FF        		.byte	-1
 7795 1273 00        		.byte	0
 7796 1274 00        		.byte	0
 7797 1275 00        		.byte	0
 7798 1276 00        		.byte	0
 7799 1277 00        		.byte	0
 7800 1278 C0        		.byte	-64
 7801 1279 C0        		.byte	-64
 7802 127a C0        		.byte	-64
 7803 127b C0        		.byte	-64
 7804 127c C0        		.byte	-64
 7805 127d FF        		.byte	-1
 7806 127e FF        		.byte	-1
 7807 127f 00        		.byte	0
 7808 1280 00        		.byte	0
 7809 1281 00        		.byte	0
 7810 1282 00        		.byte	0
 7811 1283 00        		.byte	0
 7812 1284 06        		.byte	6
 7813 1285 06        		.byte	6
 7814 1286 06        		.byte	6
 7815 1287 06        		.byte	6
 7816 1288 06        		.byte	6
 7817 1289 FF        		.byte	-1
 7818 128a FF        		.byte	-1
 7819 128b 00        		.byte	0
 7820 128c 00        		.byte	0
 7821 128d 00        		.byte	0
 7822 128e 00        		.byte	0
 7823 128f 00        		.byte	0
 7824 1290 80        		.byte	-128
 7825 1291 80        		.byte	-128
 7826 1292 FF        		.byte	-1
 7827 1293 FF        		.byte	-1
 7828 1294 00        		.byte	0
 7829 1295 FF        		.byte	-1
 7830 1296 FF        		.byte	-1
 7831 1297 00        		.byte	0
 7832 1298 00        		.byte	0
 7833 1299 00        		.byte	0
 7834 129a 00        		.byte	0
 7835 129b 00        		.byte	0
 7836 129c 01        		.byte	1
 7837 129d 01        		.byte	1
 7838 129e FF        		.byte	-1
 7839 129f FF        		.byte	-1
 7840 12a0 00        		.byte	0
 7841 12a1 FF        		.byte	-1
 7842 12a2 FF        		.byte	-1
 7843 12a3 00        		.byte	0
 7844 12a4 00        		.byte	0
 7845 12a5 00        		.byte	0
 7846 12a6 00        		.byte	0
 7847 12a7 00        		.byte	0
 7848 12a8 80        		.byte	-128
 7849 12a9 80        		.byte	-128
 7850 12aa 80        		.byte	-128
 7851 12ab 80        		.byte	-128
 7852 12ac 80        		.byte	-128
 7853 12ad 80        		.byte	-128
 7854 12ae 80        		.byte	-128
 7855 12af 00        		.byte	0
 7856 12b0 00        		.byte	0
 7857 12b1 00        		.byte	0
 7858 12b2 00        		.byte	0
 7859 12b3 00        		.byte	0
 7860 12b4 01        		.byte	1
 7861 12b5 01        		.byte	1
 7862 12b6 FF        		.byte	-1
 7863 12b7 FF        		.byte	-1
 7864 12b8 01        		.byte	1
 7865 12b9 FF        		.byte	-1
 7866 12ba FF        		.byte	-1
 7867 12bb 00        		.byte	0
 7868 12bc 00        		.byte	0
 7869 12bd 00        		.byte	0
 7870 12be 00        		.byte	0
 7871 12bf 00        		.byte	0
 7872 12c0 C0        		.byte	-64
 7873 12c1 C0        		.byte	-64
 7874 12c2 C0        		.byte	-64
 7875 12c3 C0        		.byte	-64
 7876 12c4 C0        		.byte	-64
 7877 12c5 C0        		.byte	-64
 7878 12c6 C0        		.byte	-64
 7879 12c7 00        		.byte	0
 7880 12c8 00        		.byte	0
 7881 12c9 00        		.byte	0
 7882 12ca 00        		.byte	0
 7883 12cb 00        		.byte	0
 7884 12cc 06        		.byte	6
 7885 12cd 06        		.byte	6
 7886 12ce 06        		.byte	6
 7887 12cf 06        		.byte	6
 7888 12d0 06        		.byte	6
 7889 12d1 FF        		.byte	-1
 7890 12d2 FF        		.byte	-1
 7891 12d3 00        		.byte	0
 7892 12d4 00        		.byte	0
 7893 12d5 00        		.byte	0
 7894 12d6 00        		.byte	0
 7895 12d7 00        		.byte	0
 7896 12d8 C0        		.byte	-64
 7897 12d9 C0        		.byte	-64
 7898 12da FF        		.byte	-1
 7899 12db FF        		.byte	-1
 7900 12dc 00        		.byte	0
 7901 12dd FF        		.byte	-1
 7902 12de FF        		.byte	-1
 7903 12df 00        		.byte	0
 7904 12e0 00        		.byte	0
 7905 12e1 00        		.byte	0
 7906 12e2 00        		.byte	0
 7907 12e3 00        		.byte	0
 7908 12e4 06        		.byte	6
 7909 12e5 06        		.byte	6
 7910 12e6 FE        		.byte	-2
 7911 12e7 FE        		.byte	-2
 7912 12e8 00        		.byte	0
 7913 12e9 FF        		.byte	-1
 7914 12ea FF        		.byte	-1
 7915 12eb 00        		.byte	0
 7916 12ec 00        		.byte	0
 7917 12ed 00        		.byte	0
 7918 12ee 00        		.byte	0
 7919 12ef 00        		.byte	0
 7920 12f0 00        		.byte	0
 7921 12f1 00        		.byte	0
 7922 12f2 FF        		.byte	-1
 7923 12f3 FF        		.byte	-1
 7924 12f4 00        		.byte	0
 7925 12f5 FF        		.byte	-1
 7926 12f6 FF        		.byte	-1
 7927 12f7 00        		.byte	0
 7928 12f8 00        		.byte	0
 7929 12f9 00        		.byte	0
 7930 12fa 00        		.byte	0
 7931 12fb 00        		.byte	0
 7932 12fc 00        		.byte	0
 7933 12fd 00        		.byte	0
 7934 12fe FF        		.byte	-1
 7935 12ff FF        		.byte	-1
 7936 1300 00        		.byte	0
 7937 1301 FF        		.byte	-1
 7938 1302 FF        		.byte	-1
 7939 1303 00        		.byte	0
 7940 1304 00        		.byte	0
 7941 1305 00        		.byte	0
 7942 1306 00        		.byte	0
 7943 1307 00        		.byte	0
 7944 1308 C0        		.byte	-64
 7945 1309 C0        		.byte	-64
 7946 130a C0        		.byte	-64
 7947 130b C0        		.byte	-64
 7948 130c C0        		.byte	-64
 7949 130d C0        		.byte	-64
 7950 130e C0        		.byte	-64
 7951 130f 00        		.byte	0
 7952 1310 00        		.byte	0
 7953 1311 00        		.byte	0
 7954 1312 00        		.byte	0
 7955 1313 00        		.byte	0
 7956 1314 06        		.byte	6
 7957 1315 06        		.byte	6
 7958 1316 FE        		.byte	-2
 7959 1317 FE        		.byte	-2
 7960 1318 00        		.byte	0
 7961 1319 FF        		.byte	-1
 7962 131a FF        		.byte	-1
 7963 131b 00        		.byte	0
 7964 131c 00        		.byte	0
 7965 131d 00        		.byte	0
 7966 131e 00        		.byte	0
 7967 131f 00        		.byte	0
 7968 1320 C0        		.byte	-64
 7969 1321 C0        		.byte	-64
 7970 1322 FF        		.byte	-1
 7971 1323 FF        		.byte	-1
 7972 1324 00        		.byte	0
 7973 1325 FF        		.byte	-1
 7974 1326 FF        		.byte	-1
 7975 1327 00        		.byte	0
 7976 1328 00        		.byte	0
 7977 1329 00        		.byte	0
 7978 132a 00        		.byte	0
 7979 132b 00        		.byte	0
 7980 132c 06        		.byte	6
 7981 132d 06        		.byte	6
 7982 132e 06        		.byte	6
 7983 132f 06        		.byte	6
 7984 1330 06        		.byte	6
 7985 1331 07        		.byte	7
 7986 1332 07        		.byte	7
 7987 1333 00        		.byte	0
 7988 1334 00        		.byte	0
 7989 1335 00        		.byte	0
 7990 1336 00        		.byte	0
 7991 1337 00        		.byte	0
 7992 1338 80        		.byte	-128
 7993 1339 80        		.byte	-128
 7994 133a FF        		.byte	-1
 7995 133b FF        		.byte	-1
 7996 133c 80        		.byte	-128
 7997 133d FF        		.byte	-1
 7998 133e FF        		.byte	-1
 7999 133f 00        		.byte	0
 8000 1340 00        		.byte	0
 8001 1341 00        		.byte	0
 8002 1342 00        		.byte	0
 8003 1343 00        		.byte	0
 8004 1344 01        		.byte	1
 8005 1345 01        		.byte	1
 8006 1346 01        		.byte	1
 8007 1347 01        		.byte	1
 8008 1348 01        		.byte	1
 8009 1349 01        		.byte	1
 8010 134a 01        		.byte	1
 8011 134b 00        		.byte	0
 8012 134c 00        		.byte	0
 8013 134d 00        		.byte	0
 8014 134e 00        		.byte	0
 8015 134f 00        		.byte	0
 8016 1350 C0        		.byte	-64
 8017 1351 C0        		.byte	-64
 8018 1352 C0        		.byte	-64
 8019 1353 C0        		.byte	-64
 8020 1354 C0        		.byte	-64
 8021 1355 FF        		.byte	-1
 8022 1356 FF        		.byte	-1
 8023 1357 00        		.byte	0
 8024 1358 00        		.byte	0
 8025 1359 00        		.byte	0
 8026 135a 00        		.byte	0
 8027 135b 00        		.byte	0
 8028 135c 06        		.byte	6
 8029 135d 06        		.byte	6
 8030 135e 06        		.byte	6
 8031 135f 06        		.byte	6
 8032 1360 06        		.byte	6
 8033 1361 07        		.byte	7
 8034 1362 07        		.byte	7
 8035 1363 00        		.byte	0
 8036 1364 00        		.byte	0
 8037 1365 00        		.byte	0
 8038 1366 00        		.byte	0
 8039 1367 00        		.byte	0
 8040 1368 80        		.byte	-128
 8041 1369 80        		.byte	-128
 8042 136a 80        		.byte	-128
 8043 136b 80        		.byte	-128
 8044 136c 80        		.byte	-128
 8045 136d 80        		.byte	-128
 8046 136e 80        		.byte	-128
 8047 136f 00        		.byte	0
 8048 1370 00        		.byte	0
 8049 1371 00        		.byte	0
 8050 1372 00        		.byte	0
 8051 1373 00        		.byte	0
 8052 1374 01        		.byte	1
 8053 1375 01        		.byte	1
 8054 1376 01        		.byte	1
 8055 1377 01        		.byte	1
 8056 1378 01        		.byte	1
 8057 1379 FF        		.byte	-1
 8058 137a FF        		.byte	-1
 8059 137b 00        		.byte	0
 8060 137c 00        		.byte	0
 8061 137d 00        		.byte	0
 8062 137e 00        		.byte	0
 8063 137f 00        		.byte	0
 8064 1380 00        		.byte	0
 8065 1381 00        		.byte	0
 8066 1382 00        		.byte	0
 8067 1383 00        		.byte	0
 8068 1384 00        		.byte	0
 8069 1385 FF        		.byte	-1
 8070 1386 FF        		.byte	-1
 8071 1387 80        		.byte	-128
 8072 1388 80        		.byte	-128
 8073 1389 80        		.byte	-128
 8074 138a 80        		.byte	-128
 8075 138b 80        		.byte	-128
 8076 138c 00        		.byte	0
 8077 138d 00        		.byte	0
 8078 138e 00        		.byte	0
 8079 138f 00        		.byte	0
 8080 1390 00        		.byte	0
 8081 1391 01        		.byte	1
 8082 1392 01        		.byte	1
 8083 1393 01        		.byte	1
 8084 1394 01        		.byte	1
 8085 1395 01        		.byte	1
 8086 1396 01        		.byte	1
 8087 1397 01        		.byte	1
 8088 1398 80        		.byte	-128
 8089 1399 80        		.byte	-128
 8090 139a 80        		.byte	-128
 8091 139b 80        		.byte	-128
 8092 139c 80        		.byte	-128
 8093 139d FF        		.byte	-1
 8094 139e FF        		.byte	-1
 8095 139f 80        		.byte	-128
 8096 13a0 80        		.byte	-128
 8097 13a1 80        		.byte	-128
 8098 13a2 80        		.byte	-128
 8099 13a3 80        		.byte	-128
 8100 13a4 01        		.byte	1
 8101 13a5 01        		.byte	1
 8102 13a6 01        		.byte	1
 8103 13a7 01        		.byte	1
 8104 13a8 01        		.byte	1
 8105 13a9 01        		.byte	1
 8106 13aa 01        		.byte	1
 8107 13ab 01        		.byte	1
 8108 13ac 01        		.byte	1
 8109 13ad 01        		.byte	1
 8110 13ae 01        		.byte	1
 8111 13af 01        		.byte	1
 8112 13b0 80        		.byte	-128
 8113 13b1 80        		.byte	-128
 8114 13b2 80        		.byte	-128
 8115 13b3 80        		.byte	-128
 8116 13b4 80        		.byte	-128
 8117 13b5 80        		.byte	-128
 8118 13b6 80        		.byte	-128
 8119 13b7 80        		.byte	-128
 8120 13b8 80        		.byte	-128
 8121 13b9 80        		.byte	-128
 8122 13ba 80        		.byte	-128
 8123 13bb 80        		.byte	-128
 8124 13bc 01        		.byte	1
 8125 13bd 01        		.byte	1
 8126 13be 01        		.byte	1
 8127 13bf 01        		.byte	1
 8128 13c0 01        		.byte	1
 8129 13c1 FF        		.byte	-1
 8130 13c2 FF        		.byte	-1
 8131 13c3 01        		.byte	1
 8132 13c4 01        		.byte	1
 8133 13c5 01        		.byte	1
 8134 13c6 01        		.byte	1
 8135 13c7 01        		.byte	1
 8136 13c8 00        		.byte	0
 8137 13c9 00        		.byte	0
 8138 13ca 00        		.byte	0
 8139 13cb 00        		.byte	0
 8140 13cc 00        		.byte	0
 8141 13cd FF        		.byte	-1
 8142 13ce FF        		.byte	-1
 8143 13cf 80        		.byte	-128
 8144 13d0 80        		.byte	-128
 8145 13d1 80        		.byte	-128
 8146 13d2 80        		.byte	-128
 8147 13d3 80        		.byte	-128
 8148 13d4 00        		.byte	0
 8149 13d5 00        		.byte	0
 8150 13d6 00        		.byte	0
 8151 13d7 00        		.byte	0
 8152 13d8 00        		.byte	0
 8153 13d9 FF        		.byte	-1
 8154 13da FF        		.byte	-1
 8155 13db 01        		.byte	1
 8156 13dc 01        		.byte	1
 8157 13dd 01        		.byte	1
 8158 13de 01        		.byte	1
 8159 13df 01        		.byte	1
 8160 13e0 80        		.byte	-128
 8161 13e1 80        		.byte	-128
 8162 13e2 80        		.byte	-128
 8163 13e3 80        		.byte	-128
 8164 13e4 80        		.byte	-128
 8165 13e5 80        		.byte	-128
 8166 13e6 80        		.byte	-128
 8167 13e7 80        		.byte	-128
 8168 13e8 80        		.byte	-128
 8169 13e9 80        		.byte	-128
 8170 13ea 80        		.byte	-128
 8171 13eb 80        		.byte	-128
 8172 13ec 01        		.byte	1
 8173 13ed 01        		.byte	1
 8174 13ee 01        		.byte	1
 8175 13ef 01        		.byte	1
 8176 13f0 01        		.byte	1
 8177 13f1 01        		.byte	1
 8178 13f2 01        		.byte	1
 8179 13f3 01        		.byte	1
 8180 13f4 01        		.byte	1
 8181 13f5 01        		.byte	1
 8182 13f6 01        		.byte	1
 8183 13f7 01        		.byte	1
 8184 13f8 80        		.byte	-128
 8185 13f9 80        		.byte	-128
 8186 13fa 80        		.byte	-128
 8187 13fb 80        		.byte	-128
 8188 13fc 80        		.byte	-128
 8189 13fd FF        		.byte	-1
 8190 13fe FF        		.byte	-1
 8191 13ff 80        		.byte	-128
 8192 1400 80        		.byte	-128
 8193 1401 80        		.byte	-128
 8194 1402 80        		.byte	-128
 8195 1403 80        		.byte	-128
 8196 1404 01        		.byte	1
 8197 1405 01        		.byte	1
 8198 1406 01        		.byte	1
 8199 1407 01        		.byte	1
 8200 1408 01        		.byte	1
 8201 1409 FF        		.byte	-1
 8202 140a FF        		.byte	-1
 8203 140b 01        		.byte	1
 8204 140c 01        		.byte	1
 8205 140d 01        		.byte	1
 8206 140e 01        		.byte	1
 8207 140f 01        		.byte	1
 8208 1410 00        		.byte	0
 8209 1411 00        		.byte	0
 8210 1412 00        		.byte	0
 8211 1413 00        		.byte	0
 8212 1414 00        		.byte	0
 8213 1415 FF        		.byte	-1
 8214 1416 FF        		.byte	-1
 8215 1417 C0        		.byte	-64
 8216 1418 C0        		.byte	-64
 8217 1419 C0        		.byte	-64
 8218 141a C0        		.byte	-64
 8219 141b C0        		.byte	-64
 8220 141c 00        		.byte	0
 8221 141d 00        		.byte	0
 8222 141e 00        		.byte	0
 8223 141f 00        		.byte	0
 8224 1420 00        		.byte	0
 8225 1421 FF        		.byte	-1
 8226 1422 FF        		.byte	-1
 8227 1423 06        		.byte	6
 8228 1424 06        		.byte	6
 8229 1425 06        		.byte	6
 8230 1426 06        		.byte	6
 8231 1427 06        		.byte	6
 8232 1428 00        		.byte	0
 8233 1429 00        		.byte	0
 8234 142a FF        		.byte	-1
 8235 142b FF        		.byte	-1
 8236 142c 00        		.byte	0
 8237 142d FF        		.byte	-1
 8238 142e FF        		.byte	-1
 8239 142f 80        		.byte	-128
 8240 1430 80        		.byte	-128
 8241 1431 80        		.byte	-128
 8242 1432 80        		.byte	-128
 8243 1433 80        		.byte	-128
 8244 1434 00        		.byte	0
 8245 1435 00        		.byte	0
 8246 1436 FF        		.byte	-1
 8247 1437 FF        		.byte	-1
 8248 1438 00        		.byte	0
 8249 1439 FF        		.byte	-1
 8250 143a FF        		.byte	-1
 8251 143b 01        		.byte	1
 8252 143c 01        		.byte	1
 8253 143d 01        		.byte	1
 8254 143e 01        		.byte	1
 8255 143f 01        		.byte	1
 8256 1440 00        		.byte	0
 8257 1441 00        		.byte	0
 8258 1442 FF        		.byte	-1
 8259 1443 FF        		.byte	-1
 8260 1444 00        		.byte	0
 8261 1445 FF        		.byte	-1
 8262 1446 FF        		.byte	-1
 8263 1447 C0        		.byte	-64
 8264 1448 C0        		.byte	-64
 8265 1449 C0        		.byte	-64
 8266 144a C0        		.byte	-64
 8267 144b C0        		.byte	-64
 8268 144c 00        		.byte	0
 8269 144d 00        		.byte	0
 8270 144e 07        		.byte	7
 8271 144f 07        		.byte	7
 8272 1450 06        		.byte	6
 8273 1451 06        		.byte	6
 8274 1452 06        		.byte	6
 8275 1453 06        		.byte	6
 8276 1454 06        		.byte	6
 8277 1455 06        		.byte	6
 8278 1456 06        		.byte	6
 8279 1457 06        		.byte	6
 8280 1458 00        		.byte	0
 8281 1459 00        		.byte	0
 8282 145a C0        		.byte	-64
 8283 145b C0        		.byte	-64
 8284 145c C0        		.byte	-64
 8285 145d C0        		.byte	-64
 8286 145e C0        		.byte	-64
 8287 145f C0        		.byte	-64
 8288 1460 C0        		.byte	-64
 8289 1461 C0        		.byte	-64
 8290 1462 C0        		.byte	-64
 8291 1463 C0        		.byte	-64
 8292 1464 00        		.byte	0
 8293 1465 00        		.byte	0
 8294 1466 FF        		.byte	-1
 8295 1467 FF        		.byte	-1
 8296 1468 00        		.byte	0
 8297 1469 FE        		.byte	-2
 8298 146a FE        		.byte	-2
 8299 146b 06        		.byte	6
 8300 146c 06        		.byte	6
 8301 146d 06        		.byte	6
 8302 146e 06        		.byte	6
 8303 146f 06        		.byte	6
 8304 1470 C0        		.byte	-64
 8305 1471 C0        		.byte	-64
 8306 1472 FF        		.byte	-1
 8307 1473 FF        		.byte	-1
 8308 1474 00        		.byte	0
 8309 1475 FF        		.byte	-1
 8310 1476 FF        		.byte	-1
 8311 1477 C0        		.byte	-64
 8312 1478 C0        		.byte	-64
 8313 1479 C0        		.byte	-64
 8314 147a C0        		.byte	-64
 8315 147b C0        		.byte	-64
 8316 147c 06        		.byte	6
 8317 147d 06        		.byte	6
 8318 147e 06        		.byte	6
 8319 147f 06        		.byte	6
 8320 1480 06        		.byte	6
 8321 1481 06        		.byte	6
 8322 1482 06        		.byte	6
 8323 1483 06        		.byte	6
 8324 1484 06        		.byte	6
 8325 1485 06        		.byte	6
 8326 1486 06        		.byte	6
 8327 1487 06        		.byte	6
 8328 1488 C0        		.byte	-64
 8329 1489 C0        		.byte	-64
 8330 148a C0        		.byte	-64
 8331 148b C0        		.byte	-64
 8332 148c C0        		.byte	-64
 8333 148d C0        		.byte	-64
 8334 148e C0        		.byte	-64
 8335 148f C0        		.byte	-64
 8336 1490 C0        		.byte	-64
 8337 1491 C0        		.byte	-64
 8338 1492 C0        		.byte	-64
 8339 1493 C0        		.byte	-64
 8340 1494 06        		.byte	6
 8341 1495 06        		.byte	6
 8342 1496 FE        		.byte	-2
 8343 1497 FE        		.byte	-2
 8344 1498 00        		.byte	0
 8345 1499 FE        		.byte	-2
 8346 149a FE        		.byte	-2
 8347 149b 06        		.byte	6
 8348 149c 06        		.byte	6
 8349 149d 06        		.byte	6
 8350 149e 06        		.byte	6
 8351 149f 06        		.byte	6
 8352 14a0 00        		.byte	0
 8353 14a1 00        		.byte	0
 8354 14a2 FF        		.byte	-1
 8355 14a3 FF        		.byte	-1
 8356 14a4 00        		.byte	0
 8357 14a5 FF        		.byte	-1
 8358 14a6 FF        		.byte	-1
 8359 14a7 C0        		.byte	-64
 8360 14a8 C0        		.byte	-64
 8361 14a9 C0        		.byte	-64
 8362 14aa C0        		.byte	-64
 8363 14ab C0        		.byte	-64
 8364 14ac 00        		.byte	0
 8365 14ad 00        		.byte	0
 8366 14ae FF        		.byte	-1
 8367 14af FF        		.byte	-1
 8368 14b0 00        		.byte	0
 8369 14b1 FE        		.byte	-2
 8370 14b2 FE        		.byte	-2
 8371 14b3 06        		.byte	6
 8372 14b4 06        		.byte	6
 8373 14b5 06        		.byte	6
 8374 14b6 06        		.byte	6
 8375 14b7 06        		.byte	6
 8376 14b8 C0        		.byte	-64
 8377 14b9 C0        		.byte	-64
 8378 14ba C0        		.byte	-64
 8379 14bb C0        		.byte	-64
 8380 14bc C0        		.byte	-64
 8381 14bd C0        		.byte	-64
 8382 14be C0        		.byte	-64
 8383 14bf C0        		.byte	-64
 8384 14c0 C0        		.byte	-64
 8385 14c1 C0        		.byte	-64
 8386 14c2 C0        		.byte	-64
 8387 14c3 C0        		.byte	-64
 8388 14c4 06        		.byte	6
 8389 14c5 06        		.byte	6
 8390 14c6 06        		.byte	6
 8391 14c7 06        		.byte	6
 8392 14c8 06        		.byte	6
 8393 14c9 06        		.byte	6
 8394 14ca 06        		.byte	6
 8395 14cb 06        		.byte	6
 8396 14cc 06        		.byte	6
 8397 14cd 06        		.byte	6
 8398 14ce 06        		.byte	6
 8399 14cf 06        		.byte	6
 8400 14d0 C0        		.byte	-64
 8401 14d1 C0        		.byte	-64
 8402 14d2 FF        		.byte	-1
 8403 14d3 FF        		.byte	-1
 8404 14d4 00        		.byte	0
 8405 14d5 FF        		.byte	-1
 8406 14d6 FF        		.byte	-1
 8407 14d7 C0        		.byte	-64
 8408 14d8 C0        		.byte	-64
 8409 14d9 C0        		.byte	-64
 8410 14da C0        		.byte	-64
 8411 14db C0        		.byte	-64
 8412 14dc 06        		.byte	6
 8413 14dd 06        		.byte	6
 8414 14de FE        		.byte	-2
 8415 14df FE        		.byte	-2
 8416 14e0 00        		.byte	0
 8417 14e1 FE        		.byte	-2
 8418 14e2 FE        		.byte	-2
 8419 14e3 06        		.byte	6
 8420 14e4 06        		.byte	6
 8421 14e5 06        		.byte	6
 8422 14e6 06        		.byte	6
 8423 14e7 06        		.byte	6
 8424 14e8 C0        		.byte	-64
 8425 14e9 C0        		.byte	-64
 8426 14ea C0        		.byte	-64
 8427 14eb C0        		.byte	-64
 8428 14ec C0        		.byte	-64
 8429 14ed FF        		.byte	-1
 8430 14ee FF        		.byte	-1
 8431 14ef C0        		.byte	-64
 8432 14f0 C0        		.byte	-64
 8433 14f1 C0        		.byte	-64
 8434 14f2 C0        		.byte	-64
 8435 14f3 C0        		.byte	-64
 8436 14f4 06        		.byte	6
 8437 14f5 06        		.byte	6
 8438 14f6 06        		.byte	6
 8439 14f7 06        		.byte	6
 8440 14f8 06        		.byte	6
 8441 14f9 06        		.byte	6
 8442 14fa 06        		.byte	6
 8443 14fb 06        		.byte	6
 8444 14fc 06        		.byte	6
 8445 14fd 06        		.byte	6
 8446 14fe 06        		.byte	6
 8447 14ff 06        		.byte	6
 8448 1500 80        		.byte	-128
 8449 1501 80        		.byte	-128
 8450 1502 FF        		.byte	-1
 8451 1503 FF        		.byte	-1
 8452 1504 80        		.byte	-128
 8453 1505 FF        		.byte	-1
 8454 1506 FF        		.byte	-1
 8455 1507 80        		.byte	-128
 8456 1508 80        		.byte	-128
 8457 1509 80        		.byte	-128
 8458 150a 80        		.byte	-128
 8459 150b 80        		.byte	-128
 8460 150c 01        		.byte	1
 8461 150d 01        		.byte	1
 8462 150e 01        		.byte	1
 8463 150f 01        		.byte	1
 8464 1510 01        		.byte	1
 8465 1511 01        		.byte	1
 8466 1512 01        		.byte	1
 8467 1513 01        		.byte	1
 8468 1514 01        		.byte	1
 8469 1515 01        		.byte	1
 8470 1516 01        		.byte	1
 8471 1517 01        		.byte	1
 8472 1518 C0        		.byte	-64
 8473 1519 C0        		.byte	-64
 8474 151a C0        		.byte	-64
 8475 151b C0        		.byte	-64
 8476 151c C0        		.byte	-64
 8477 151d C0        		.byte	-64
 8478 151e C0        		.byte	-64
 8479 151f C0        		.byte	-64
 8480 1520 C0        		.byte	-64
 8481 1521 C0        		.byte	-64
 8482 1522 C0        		.byte	-64
 8483 1523 C0        		.byte	-64
 8484 1524 06        		.byte	6
 8485 1525 06        		.byte	6
 8486 1526 06        		.byte	6
 8487 1527 06        		.byte	6
 8488 1528 06        		.byte	6
 8489 1529 FE        		.byte	-2
 8490 152a FE        		.byte	-2
 8491 152b 06        		.byte	6
 8492 152c 06        		.byte	6
 8493 152d 06        		.byte	6
 8494 152e 06        		.byte	6
 8495 152f 06        		.byte	6
 8496 1530 80        		.byte	-128
 8497 1531 80        		.byte	-128
 8498 1532 80        		.byte	-128
 8499 1533 80        		.byte	-128
 8500 1534 80        		.byte	-128
 8501 1535 80        		.byte	-128
 8502 1536 80        		.byte	-128
 8503 1537 80        		.byte	-128
 8504 1538 80        		.byte	-128
 8505 1539 80        		.byte	-128
 8506 153a 80        		.byte	-128
 8507 153b 80        		.byte	-128
 8508 153c 01        		.byte	1
 8509 153d 01        		.byte	1
 8510 153e FF        		.byte	-1
 8511 153f FF        		.byte	-1
 8512 1540 01        		.byte	1
 8513 1541 FF        		.byte	-1
 8514 1542 FF        		.byte	-1
 8515 1543 01        		.byte	1
 8516 1544 01        		.byte	1
 8517 1545 01        		.byte	1
 8518 1546 01        		.byte	1
 8519 1547 01        		.byte	1
 8520 1548 00        		.byte	0
 8521 1549 00        		.byte	0
 8522 154a FF        		.byte	-1
 8523 154b FF        		.byte	-1
 8524 154c 80        		.byte	-128
 8525 154d FF        		.byte	-1
 8526 154e FF        		.byte	-1
 8527 154f 80        		.byte	-128
 8528 1550 80        		.byte	-128
 8529 1551 80        		.byte	-128
 8530 1552 80        		.byte	-128
 8531 1553 80        		.byte	-128
 8532 1554 00        		.byte	0
 8533 1555 00        		.byte	0
 8534 1556 01        		.byte	1
 8535 1557 01        		.byte	1
 8536 1558 01        		.byte	1
 8537 1559 01        		.byte	1
 8538 155a 01        		.byte	1
 8539 155b 01        		.byte	1
 8540 155c 01        		.byte	1
 8541 155d 01        		.byte	1
 8542 155e 01        		.byte	1
 8543 155f 01        		.byte	1
 8544 1560 00        		.byte	0
 8545 1561 00        		.byte	0
 8546 1562 00        		.byte	0
 8547 1563 00        		.byte	0
 8548 1564 00        		.byte	0
 8549 1565 FF        		.byte	-1
 8550 1566 FF        		.byte	-1
 8551 1567 C0        		.byte	-64
 8552 1568 C0        		.byte	-64
 8553 1569 C0        		.byte	-64
 8554 156a C0        		.byte	-64
 8555 156b C0        		.byte	-64
 8556 156c 00        		.byte	0
 8557 156d 00        		.byte	0
 8558 156e 00        		.byte	0
 8559 156f 00        		.byte	0
 8560 1570 00        		.byte	0
 8561 1571 07        		.byte	7
 8562 1572 07        		.byte	7
 8563 1573 06        		.byte	6
 8564 1574 06        		.byte	6
 8565 1575 06        		.byte	6
 8566 1576 06        		.byte	6
 8567 1577 06        		.byte	6
 8568 1578 00        		.byte	0
 8569 1579 00        		.byte	0
 8570 157a 00        		.byte	0
 8571 157b 00        		.byte	0
 8572 157c 00        		.byte	0
 8573 157d C0        		.byte	-64
 8574 157e C0        		.byte	-64
 8575 157f C0        		.byte	-64
 8576 1580 C0        		.byte	-64
 8577 1581 C0        		.byte	-64
 8578 1582 C0        		.byte	-64
 8579 1583 C0        		.byte	-64
 8580 1584 00        		.byte	0
 8581 1585 00        		.byte	0
 8582 1586 00        		.byte	0
 8583 1587 00        		.byte	0
 8584 1588 00        		.byte	0
 8585 1589 FF        		.byte	-1
 8586 158a FF        		.byte	-1
 8587 158b 06        		.byte	6
 8588 158c 06        		.byte	6
 8589 158d 06        		.byte	6
 8590 158e 06        		.byte	6
 8591 158f 06        		.byte	6
 8592 1590 00        		.byte	0
 8593 1591 00        		.byte	0
 8594 1592 80        		.byte	-128
 8595 1593 80        		.byte	-128
 8596 1594 80        		.byte	-128
 8597 1595 80        		.byte	-128
 8598 1596 80        		.byte	-128
 8599 1597 80        		.byte	-128
 8600 1598 80        		.byte	-128
 8601 1599 80        		.byte	-128
 8602 159a 80        		.byte	-128
 8603 159b 80        		.byte	-128
 8604 159c 00        		.byte	0
 8605 159d 00        		.byte	0
 8606 159e FF        		.byte	-1
 8607 159f FF        		.byte	-1
 8608 15a0 01        		.byte	1
 8609 15a1 FF        		.byte	-1
 8610 15a2 FF        		.byte	-1
 8611 15a3 01        		.byte	1
 8612 15a4 01        		.byte	1
 8613 15a5 01        		.byte	1
 8614 15a6 01        		.byte	1
 8615 15a7 01        		.byte	1
 8616 15a8 80        		.byte	-128
 8617 15a9 80        		.byte	-128
 8618 15aa FF        		.byte	-1
 8619 15ab FF        		.byte	-1
 8620 15ac 00        		.byte	0
 8621 15ad FF        		.byte	-1
 8622 15ae FF        		.byte	-1
 8623 15af 80        		.byte	-128
 8624 15b0 80        		.byte	-128
 8625 15b1 80        		.byte	-128
 8626 15b2 80        		.byte	-128
 8627 15b3 80        		.byte	-128
 8628 15b4 01        		.byte	1
 8629 15b5 01        		.byte	1
 8630 15b6 FF        		.byte	-1
 8631 15b7 FF        		.byte	-1
 8632 15b8 00        		.byte	0
 8633 15b9 FF        		.byte	-1
 8634 15ba FF        		.byte	-1
 8635 15bb 01        		.byte	1
 8636 15bc 01        		.byte	1
 8637 15bd 01        		.byte	1
 8638 15be 01        		.byte	1
 8639 15bf 01        		.byte	1
 8640 15c0 00        		.byte	0
 8641 15c1 F8        		.byte	-8
 8642 15c2 F8        		.byte	-8
 8643 15c3 9B        		.byte	-101
 8644 15c4 9B        		.byte	-101
 8645 15c5 98        		.byte	-104
 8646 15c6 98        		.byte	-104
 8647 15c7 9B        		.byte	-101
 8648 15c8 9B        		.byte	-101
 8649 15c9 18        		.byte	24
 8650 15ca 18        		.byte	24
 8651 15cb 00        		.byte	0
 8652 15cc 00        		.byte	0
 8653 15cd 3F        		.byte	63
 8654 15ce 3F        		.byte	63
 8655 15cf 31        		.byte	49
 8656 15d0 31        		.byte	49
 8657 15d1 31        		.byte	49
 8658 15d2 31        		.byte	49
 8659 15d3 31        		.byte	49
 8660 15d4 31        		.byte	49
 8661 15d5 30        		.byte	48
 8662 15d6 30        		.byte	48
 8663 15d7 00        		.byte	0
 8664 15d8 C0        		.byte	-64
 8665 15d9 C0        		.byte	-64
 8666 15da C0        		.byte	-64
 8667 15db C0        		.byte	-64
 8668 15dc C0        		.byte	-64
 8669 15dd FF        		.byte	-1
 8670 15de FF        		.byte	-1
 8671 15df C0        		.byte	-64
 8672 15e0 C0        		.byte	-64
 8673 15e1 C0        		.byte	-64
 8674 15e2 C0        		.byte	-64
 8675 15e3 C0        		.byte	-64
 8676 15e4 06        		.byte	6
 8677 15e5 06        		.byte	6
 8678 15e6 06        		.byte	6
 8679 15e7 06        		.byte	6
 8680 15e8 06        		.byte	6
 8681 15e9 FE        		.byte	-2
 8682 15ea FE        		.byte	-2
 8683 15eb 06        		.byte	6
 8684 15ec 06        		.byte	6
 8685 15ed 06        		.byte	6
 8686 15ee 06        		.byte	6
 8687 15ef 06        		.byte	6
 8688 15f0 80        		.byte	-128
 8689 15f1 80        		.byte	-128
 8690 15f2 80        		.byte	-128
 8691 15f3 80        		.byte	-128
 8692 15f4 80        		.byte	-128
 8693 15f5 FF        		.byte	-1
 8694 15f6 FF        		.byte	-1
 8695 15f7 00        		.byte	0
 8696 15f8 00        		.byte	0
 8697 15f9 00        		.byte	0
 8698 15fa 00        		.byte	0
 8699 15fb 00        		.byte	0
 8700 15fc 01        		.byte	1
 8701 15fd 01        		.byte	1
 8702 15fe 01        		.byte	1
 8703 15ff 01        		.byte	1
 8704 1600 01        		.byte	1
 8705 1601 01        		.byte	1
 8706 1602 01        		.byte	1
 8707 1603 00        		.byte	0
 8708 1604 00        		.byte	0
 8709 1605 00        		.byte	0
 8710 1606 00        		.byte	0
 8711 1607 00        		.byte	0
 8712 1608 00        		.byte	0
 8713 1609 00        		.byte	0
 8714 160a 00        		.byte	0
 8715 160b 00        		.byte	0
 8716 160c 00        		.byte	0
 8717 160d 80        		.byte	-128
 8718 160e 80        		.byte	-128
 8719 160f 80        		.byte	-128
 8720 1610 80        		.byte	-128
 8721 1611 80        		.byte	-128
 8722 1612 80        		.byte	-128
 8723 1613 80        		.byte	-128
 8724 1614 00        		.byte	0
 8725 1615 00        		.byte	0
 8726 1616 00        		.byte	0
 8727 1617 00        		.byte	0
 8728 1618 00        		.byte	0
 8729 1619 FF        		.byte	-1
 8730 161a FF        		.byte	-1
 8731 161b 01        		.byte	1
 8732 161c 01        		.byte	1
 8733 161d 01        		.byte	1
 8734 161e 01        		.byte	1
 8735 161f 01        		.byte	1
 8736 1620 FF        		.byte	-1
 8737 1621 FF        		.byte	-1
 8738 1622 FF        		.byte	-1
 8739 1623 FF        		.byte	-1
 8740 1624 FF        		.byte	-1
 8741 1625 FF        		.byte	-1
 8742 1626 FF        		.byte	-1
 8743 1627 FF        		.byte	-1
 8744 1628 FF        		.byte	-1
 8745 1629 FF        		.byte	-1
 8746 162a FF        		.byte	-1
 8747 162b FF        		.byte	-1
 8748 162c FF        		.byte	-1
 8749 162d FF        		.byte	-1
 8750 162e FF        		.byte	-1
 8751 162f FF        		.byte	-1
 8752 1630 FF        		.byte	-1
 8753 1631 FF        		.byte	-1
 8754 1632 FF        		.byte	-1
 8755 1633 FF        		.byte	-1
 8756 1634 FF        		.byte	-1
 8757 1635 FF        		.byte	-1
 8758 1636 FF        		.byte	-1
 8759 1637 FF        		.byte	-1
 8760 1638 00        		.byte	0
 8761 1639 00        		.byte	0
 8762 163a 00        		.byte	0
 8763 163b 00        		.byte	0
 8764 163c 00        		.byte	0
 8765 163d 00        		.byte	0
 8766 163e 00        		.byte	0
 8767 163f 00        		.byte	0
 8768 1640 00        		.byte	0
 8769 1641 00        		.byte	0
 8770 1642 00        		.byte	0
 8771 1643 00        		.byte	0
 8772 1644 FF        		.byte	-1
 8773 1645 FF        		.byte	-1
 8774 1646 FF        		.byte	-1
 8775 1647 FF        		.byte	-1
 8776 1648 FF        		.byte	-1
 8777 1649 FF        		.byte	-1
 8778 164a FF        		.byte	-1
 8779 164b FF        		.byte	-1
 8780 164c FF        		.byte	-1
 8781 164d FF        		.byte	-1
 8782 164e FF        		.byte	-1
 8783 164f FF        		.byte	-1
 8784 1650 FF        		.byte	-1
 8785 1651 FF        		.byte	-1
 8786 1652 FF        		.byte	-1
 8787 1653 FF        		.byte	-1
 8788 1654 FF        		.byte	-1
 8789 1655 FF        		.byte	-1
 8790 1656 00        		.byte	0
 8791 1657 00        		.byte	0
 8792 1658 00        		.byte	0
 8793 1659 00        		.byte	0
 8794 165a 00        		.byte	0
 8795 165b 00        		.byte	0
 8796 165c FF        		.byte	-1
 8797 165d FF        		.byte	-1
 8798 165e FF        		.byte	-1
 8799 165f FF        		.byte	-1
 8800 1660 FF        		.byte	-1
 8801 1661 FF        		.byte	-1
 8802 1662 00        		.byte	0
 8803 1663 00        		.byte	0
 8804 1664 00        		.byte	0
 8805 1665 00        		.byte	0
 8806 1666 00        		.byte	0
 8807 1667 00        		.byte	0
 8808 1668 00        		.byte	0
 8809 1669 00        		.byte	0
 8810 166a 00        		.byte	0
 8811 166b 00        		.byte	0
 8812 166c 00        		.byte	0
 8813 166d 00        		.byte	0
 8814 166e FF        		.byte	-1
 8815 166f FF        		.byte	-1
 8816 1670 FF        		.byte	-1
 8817 1671 FF        		.byte	-1
 8818 1672 FF        		.byte	-1
 8819 1673 FF        		.byte	-1
 8820 1674 00        		.byte	0
 8821 1675 00        		.byte	0
 8822 1676 00        		.byte	0
 8823 1677 00        		.byte	0
 8824 1678 00        		.byte	0
 8825 1679 00        		.byte	0
 8826 167a FF        		.byte	-1
 8827 167b FF        		.byte	-1
 8828 167c FF        		.byte	-1
 8829 167d FF        		.byte	-1
 8830 167e FF        		.byte	-1
 8831 167f FF        		.byte	-1
 8832 1680 FF        		.byte	-1
 8833 1681 FF        		.byte	-1
 8834 1682 FF        		.byte	-1
 8835 1683 FF        		.byte	-1
 8836 1684 FF        		.byte	-1
 8837 1685 FF        		.byte	-1
 8838 1686 FF        		.byte	-1
 8839 1687 FF        		.byte	-1
 8840 1688 FF        		.byte	-1
 8841 1689 FF        		.byte	-1
 8842 168a FF        		.byte	-1
 8843 168b FF        		.byte	-1
 8844 168c 00        		.byte	0
 8845 168d 00        		.byte	0
 8846 168e 00        		.byte	0
 8847 168f 00        		.byte	0
 8848 1690 00        		.byte	0
 8849 1691 00        		.byte	0
 8850 1692 00        		.byte	0
 8851 1693 00        		.byte	0
 8852 1694 00        		.byte	0
 8853 1695 00        		.byte	0
 8854 1696 00        		.byte	0
 8855 1697 00        		.byte	0
 8856 1698 00        		.byte	0
 8857 1699 00        		.byte	0
 8858 169a F0        		.byte	-16
 8859 169b 08        		.byte	8
 8860 169c 08        		.byte	8
 8861 169d 10        		.byte	16
 8862 169e 20        		.byte	32
 8863 169f 10        		.byte	16
 8864 16a0 08        		.byte	8
 8865 16a1 08        		.byte	8
 8866 16a2 F0        		.byte	-16
 8867 16a3 00        		.byte	0
 8868 16a4 00        		.byte	0
 8869 16a5 00        		.byte	0
 8870 16a6 00        		.byte	0
 8871 16a7 01        		.byte	1
 8872 16a8 02        		.byte	2
 8873 16a9 04        		.byte	4
 8874 16aa 08        		.byte	8
 8875 16ab 04        		.byte	4
 8876 16ac 02        		.byte	2
 8877 16ad 01        		.byte	1
 8878 16ae 00        		.byte	0
 8879 16af 00        		.byte	0
 8880 16b0 00        		.byte	0
 8881 16b1 E0        		.byte	-32
 8882 16b2 F0        		.byte	-16
 8883 16b3 F0        		.byte	-16
 8884 16b4 F0        		.byte	-16
 8885 16b5 E8        		.byte	-24
 8886 16b6 E4        		.byte	-28
 8887 16b7 E4        		.byte	-28
 8888 16b8 E4        		.byte	-28
 8889 16b9 E4        		.byte	-28
 8890 16ba E8        		.byte	-24
 8891 16bb F0        		.byte	-16
 8892 16bc 00        		.byte	0
 8893 16bd 01        		.byte	1
 8894 16be 03        		.byte	3
 8895 16bf 07        		.byte	7
 8896 16c0 07        		.byte	7
 8897 16c1 07        		.byte	7
 8898 16c2 07        		.byte	7
 8899 16c3 07        		.byte	7
 8900 16c4 07        		.byte	7
 8901 16c5 07        		.byte	7
 8902 16c6 03        		.byte	3
 8903 16c7 01        		.byte	1
 8904 16c8 00        		.byte	0
 8905 16c9 E0        		.byte	-32
 8906 16ca 30        		.byte	48
 8907 16cb 30        		.byte	48
 8908 16cc 30        		.byte	48
 8909 16cd 28        		.byte	40
 8910 16ce 24        		.byte	36
 8911 16cf 24        		.byte	36
 8912 16d0 24        		.byte	36
 8913 16d1 24        		.byte	36
 8914 16d2 28        		.byte	40
 8915 16d3 F0        		.byte	-16
 8916 16d4 00        		.byte	0
 8917 16d5 01        		.byte	1
 8918 16d6 02        		.byte	2
 8919 16d7 04        		.byte	4
 8920 16d8 04        		.byte	4
 8921 16d9 04        		.byte	4
 8922 16da 04        		.byte	4
 8923 16db 04        		.byte	4
 8924 16dc 04        		.byte	4
 8925 16dd 04        		.byte	4
 8926 16de 02        		.byte	2
 8927 16df 01        		.byte	1
 8928 16e0 00        		.byte	0
 8929 16e1 00        		.byte	0
 8930 16e2 00        		.byte	0
 8931 16e3 00        		.byte	0
 8932 16e4 80        		.byte	-128
 8933 16e5 70        		.byte	112
 8934 16e6 08        		.byte	8
 8935 16e7 F8        		.byte	-8
 8936 16e8 00        		.byte	0
 8937 16e9 00        		.byte	0
 8938 16ea 00        		.byte	0
 8939 16eb 00        		.byte	0
 8940 16ec 00        		.byte	0
 8941 16ed 00        		.byte	0
 8942 16ee 00        		.byte	0
 8943 16ef 00        		.byte	0
 8944 16f0 00        		.byte	0
 8945 16f1 00        		.byte	0
 8946 16f2 00        		.byte	0
 8947 16f3 00        		.byte	0
 8948 16f4 00        		.byte	0
 8949 16f5 00        		.byte	0
 8950 16f6 00        		.byte	0
 8951 16f7 00        		.byte	0
 8952 16f8 00        		.byte	0
 8953 16f9 80        		.byte	-128
 8954 16fa 80        		.byte	-128
 8955 16fb 80        		.byte	-128
 8956 16fc A0        		.byte	-96
 8957 16fd 9C        		.byte	-100
 8958 16fe 82        		.byte	-126
 8959 16ff BE        		.byte	-66
 8960 1700 80        		.byte	-128
 8961 1701 80        		.byte	-128
 8962 1702 80        		.byte	-128
 8963 1703 00        		.byte	0
 8964 1704 00        		.byte	0
 8965 1705 00        		.byte	0
 8966 1706 00        		.byte	0
 8967 1707 00        		.byte	0
 8968 1708 06        		.byte	6
 8969 1709 08        		.byte	8
 8970 170a 08        		.byte	8
 8971 170b 3E        		.byte	62
 8972 170c 00        		.byte	0
 8973 170d 00        		.byte	0
 8974 170e 00        		.byte	0
 8975 170f 00        		.byte	0
 8976 1710 00        		.byte	0
 8977 1711 00        		.byte	0
 8978 1712 60        		.byte	96
 8979 1713 E8        		.byte	-24
 8980 1714 88        		.byte	-120
 8981 1715 10        		.byte	16
 8982 1716 10        		.byte	16
 8983 1717 88        		.byte	-120
 8984 1718 E8        		.byte	-24
 8985 1719 60        		.byte	96
 8986 171a 00        		.byte	0
 8987 171b 00        		.byte	0
 8988 171c 00        		.byte	0
 8989 171d 00        		.byte	0
 8990 171e 00        		.byte	0
 8991 171f 81        		.byte	-127
 8992 1720 E7        		.byte	-25
 8993 1721 7E        		.byte	126
 8994 1722 1E        		.byte	30
 8995 1723 07        		.byte	7
 8996 1724 01        		.byte	1
 8997 1725 00        		.byte	0
 8998 1726 00        		.byte	0
 8999 1727 00        		.byte	0
 9000 1728 00        		.byte	0
 9001 1729 00        		.byte	0
 9002 172a 00        		.byte	0
 9003 172b 1E        		.byte	30
 9004 172c 3F        		.byte	63
 9005 172d 33        		.byte	51
 9006 172e 33        		.byte	51
 9007 172f 3F        		.byte	63
 9008 1730 1E        		.byte	30
 9009 1731 00        		.byte	0
 9010 1732 00        		.byte	0
 9011 1733 00        		.byte	0
 9012 1734 00        		.byte	0
 9013 1735 00        		.byte	0
 9014 1736 00        		.byte	0
 9015 1737 00        		.byte	0
 9016 1738 00        		.byte	0
 9017 1739 00        		.byte	0
 9018 173a 00        		.byte	0
 9019 173b 00        		.byte	0
 9020 173c 00        		.byte	0
 9021 173d 00        		.byte	0
 9022 173e 00        		.byte	0
 9023 173f 00        		.byte	0
 9024 1740 00        		.byte	0
 9025 1741 80        		.byte	-128
 9026 1742 C0        		.byte	-64
 9027 1743 EC        		.byte	-20
 9028 1744 6C        		.byte	108
 9029 1745 60        		.byte	96
 9030 1746 60        		.byte	96
 9031 1747 6C        		.byte	108
 9032 1748 6C        		.byte	108
 9033 1749 C0        		.byte	-64
 9034 174a 80        		.byte	-128
 9035 174b 00        		.byte	0
 9036 174c 00        		.byte	0
 9037 174d 0F        		.byte	15
 9038 174e 1F        		.byte	31
 9039 174f 33        		.byte	51
 9040 1750 33        		.byte	51
 9041 1751 33        		.byte	51
 9042 1752 33        		.byte	51
 9043 1753 33        		.byte	51
 9044 1754 33        		.byte	51
 9045 1755 13        		.byte	19
 9046 1756 03        		.byte	3
 9047 1757 00        		.byte	0
 9048 1758 00        		.byte	0
 9049 1759 00        		.byte	0
 9050 175a 00        		.byte	0
 9051 175b C0        		.byte	-64
 9052 175c E0        		.byte	-32
 9053 175d E0        		.byte	-32
 9054 175e E0        		.byte	-32
 9055 175f E0        		.byte	-32
 9056 1760 C0        		.byte	-64
 9057 1761 00        		.byte	0
 9058 1762 00        		.byte	0
 9059 1763 00        		.byte	0
 9060 1764 00        		.byte	0
 9061 1765 00        		.byte	0
 9062 1766 00        		.byte	0
 9063 1767 03        		.byte	3
 9064 1768 07        		.byte	7
 9065 1769 07        		.byte	7
 9066 176a 07        		.byte	7
 9067 176b 07        		.byte	7
 9068 176c 03        		.byte	3
 9069 176d 00        		.byte	0
 9070 176e 00        		.byte	0
 9071 176f 00        		.byte	0
 9072 1770 00        		.byte	0
 9073 1771 00        		.byte	0
 9074 1772 00        		.byte	0
 9075 1773 00        		.byte	0
 9076 1774 00        		.byte	0
 9077 1775 80        		.byte	-128
 9078 1776 C0        		.byte	-64
 9079 1777 80        		.byte	-128
 9080 1778 00        		.byte	0
 9081 1779 00        		.byte	0
 9082 177a 00        		.byte	0
 9083 177b 00        		.byte	0
 9084 177c 00        		.byte	0
 9085 177d 00        		.byte	0
 9086 177e 00        		.byte	0
 9087 177f 00        		.byte	0
 9088 1780 00        		.byte	0
 9089 1781 01        		.byte	1
 9090 1782 03        		.byte	3
 9091 1783 01        		.byte	1
 9092 1784 00        		.byte	0
 9093 1785 00        		.byte	0
 9094 1786 00        		.byte	0
 9095 1787 00        		.byte	0
 9096 1788 00        		.byte	0
 9097 1789 00        		.byte	0
 9098 178a 00        		.byte	0
 9099 178b 00        		.byte	0
 9100 178c 00        		.byte	0
 9101 178d 00        		.byte	0
 9102 178e FE        		.byte	-2
 9103 178f FE        		.byte	-2
 9104 1790 06        		.byte	6
 9105 1791 06        		.byte	6
 9106 1792 06        		.byte	6
 9107 1793 06        		.byte	6
 9108 1794 00        		.byte	0
 9109 1795 00        		.byte	0
 9110 1796 03        		.byte	3
 9111 1797 06        		.byte	6
 9112 1798 0C        		.byte	12
 9113 1799 18        		.byte	24
 9114 179a 3F        		.byte	63
 9115 179b 3F        		.byte	63
 9116 179c 00        		.byte	0
 9117 179d 00        		.byte	0
 9118 179e 00        		.byte	0
 9119 179f 00        		.byte	0
 9120 17a0 FF        		.byte	-1
 9121 17a1 FF        		.byte	-1
 9122 17a2 1E        		.byte	30
 9123 17a3 F0        		.byte	-16
 9124 17a4 80        		.byte	-128
 9125 17a5 00        		.byte	0
 9126 17a6 FF        		.byte	-1
 9127 17a7 FF        		.byte	-1
 9128 17a8 1C        		.byte	28
 9129 17a9 36        		.byte	54
 9130 17aa 36        		.byte	54
 9131 17ab 1C        		.byte	28
 9132 17ac 3F        		.byte	63
 9133 17ad 3F        		.byte	63
 9134 17ae 00        		.byte	0
 9135 17af 00        		.byte	0
 9136 17b0 03        		.byte	3
 9137 17b1 1E        		.byte	30
 9138 17b2 3F        		.byte	63
 9139 17b3 3F        		.byte	63
 9140 17b4 03        		.byte	3
 9141 17b5 03        		.byte	3
 9142 17b6 03        		.byte	3
 9143 17b7 03        		.byte	3
 9144 17b8 00        		.byte	0
 9145 17b9 F6        		.byte	-10
 9146 17ba FE        		.byte	-2
 9147 17bb 18        		.byte	24
 9148 17bc 0C        		.byte	12
 9149 17bd 0C        		.byte	12
 9150 17be 0C        		.byte	12
 9151 17bf 0C        		.byte	12
 9152 17c0 18        		.byte	24
 9153 17c1 FE        		.byte	-2
 9154 17c2 F6        		.byte	-10
 9155 17c3 00        		.byte	0
 9156 17c4 00        		.byte	0
 9157 17c5 1B        		.byte	27
 9158 17c6 1F        		.byte	31
 9159 17c7 06        		.byte	6
 9160 17c8 0C        		.byte	12
 9161 17c9 0C        		.byte	12
 9162 17ca 0C        		.byte	12
 9163 17cb 0C        		.byte	12
 9164 17cc 06        		.byte	6
 9165 17cd 1F        		.byte	31
 9166 17ce 1B        		.byte	27
 9167 17cf 00        		.byte	0
 9168 17d0 00        		.byte	0
 9169 17d1 00        		.byte	0
 9170 17d2 00        		.byte	0
 9171 17d3 00        		.byte	0
 9172 17d4 F0        		.byte	-16
 9173 17d5 F0        		.byte	-16
 9174 17d6 F0        		.byte	-16
 9175 17d7 F0        		.byte	-16
 9176 17d8 00        		.byte	0
 9177 17d9 00        		.byte	0
 9178 17da 00        		.byte	0
 9179 17db 00        		.byte	0
 9180 17dc 00        		.byte	0
 9181 17dd 00        		.byte	0
 9182 17de 00        		.byte	0
 9183 17df 00        		.byte	0
 9184 17e0 03        		.byte	3
 9185 17e1 03        		.byte	3
 9186 17e2 03        		.byte	3
 9187 17e3 03        		.byte	3
 9188 17e4 00        		.byte	0
 9189 17e5 00        		.byte	0
 9190 17e6 00        		.byte	0
 9191 17e7 00        		.byte	0
 9192 17e8 00        		.byte	0
 9193 17e9 00        		.byte	0
 9194 17ea 00        		.byte	0
 9195 17eb 00        		.byte	0
 9196 17ec 00        		.byte	0
 9197 17ed 00        		.byte	0
 9198 17ee 00        		.byte	0
 9199 17ef 00        		.byte	0
 9200 17f0 00        		.byte	0
 9201 17f1 00        		.byte	0
 9202 17f2 00        		.byte	0
 9203 17f3 00        		.byte	0
 9204 17f4 00        		.byte	0
 9205 17f5 00        		.byte	0
 9206 17f6 00        		.byte	0
 9207 17f7 00        		.byte	0
 9208 17f8 00        		.byte	0
 9209 17f9 00        		.byte	0
 9210 17fa 00        		.byte	0
 9211 17fb 00        		.byte	0
 9212 17fc 00        		.byte	0
 9213 17fd 00        		.byte	0
 9214 17fe 00        		.byte	0
 9215 17ff 00        		.byte	0
 9216 1800 00        		.byte	0
 9217 1801 F0        		.byte	-16
 9218 1802 FC        		.byte	-4
 9219 1803 0E        		.byte	14
 9220 1804 07        		.byte	7
 9221 1805 03        		.byte	3
 9222 1806 03        		.byte	3
 9223 1807 03        		.byte	3
 9224 1808 03        		.byte	3
 9225 1809 FF        		.byte	-1
 9226 180a FF        		.byte	-1
 9227 180b 00        		.byte	0
 9228 180c 00        		.byte	0
 9229 180d 3F        		.byte	63
 9230 180e 3F        		.byte	63
 9231 180f 03        		.byte	3
 9232 1810 03        		.byte	3
 9233 1811 03        		.byte	3
 9234 1812 03        		.byte	3
 9235 1813 03        		.byte	3
 9236 1814 03        		.byte	3
 9237 1815 3F        		.byte	63
 9238 1816 3F        		.byte	63
 9239 1817 00        		.byte	0
 9240 1818 00        		.byte	0
 9241 1819 FF        		.byte	-1
 9242 181a FF        		.byte	-1
 9243 181b C3        		.byte	-61
 9244 181c C3        		.byte	-61
 9245 181d C3        		.byte	-61
 9246 181e C3        		.byte	-61
 9247 181f C3        		.byte	-61
 9248 1820 C3        		.byte	-61
 9249 1821 83        		.byte	-125
 9250 1822 03        		.byte	3
 9251 1823 00        		.byte	0
 9252 1824 00        		.byte	0
 9253 1825 3F        		.byte	63
 9254 1826 3F        		.byte	63
 9255 1827 30        		.byte	48
 9256 1828 30        		.byte	48
 9257 1829 30        		.byte	48
 9258 182a 30        		.byte	48
 9259 182b 30        		.byte	48
 9260 182c 39        		.byte	57
 9261 182d 1F        		.byte	31
 9262 182e 0F        		.byte	15
 9263 182f 00        		.byte	0
 9264 1830 00        		.byte	0
 9265 1831 FF        		.byte	-1
 9266 1832 FF        		.byte	-1
 9267 1833 C3        		.byte	-61
 9268 1834 C3        		.byte	-61
 9269 1835 C3        		.byte	-61
 9270 1836 C3        		.byte	-61
 9271 1837 E7        		.byte	-25
 9272 1838 FE        		.byte	-2
 9273 1839 BC        		.byte	-68
 9274 183a 00        		.byte	0
 9275 183b 00        		.byte	0
 9276 183c 00        		.byte	0
 9277 183d 3F        		.byte	63
 9278 183e 3F        		.byte	63
 9279 183f 30        		.byte	48
 9280 1840 30        		.byte	48
 9281 1841 30        		.byte	48
 9282 1842 30        		.byte	48
 9283 1843 30        		.byte	48
 9284 1844 39        		.byte	57
 9285 1845 1F        		.byte	31
 9286 1846 0F        		.byte	15
 9287 1847 00        		.byte	0
 9288 1848 00        		.byte	0
 9289 1849 FF        		.byte	-1
 9290 184a FF        		.byte	-1
 9291 184b 03        		.byte	3
 9292 184c 03        		.byte	3
 9293 184d 03        		.byte	3
 9294 184e 03        		.byte	3
 9295 184f 03        		.byte	3
 9296 1850 03        		.byte	3
 9297 1851 03        		.byte	3
 9298 1852 03        		.byte	3
 9299 1853 00        		.byte	0
 9300 1854 00        		.byte	0
 9301 1855 3F        		.byte	63
 9302 1856 3F        		.byte	63
 9303 1857 00        		.byte	0
 9304 1858 00        		.byte	0
 9305 1859 00        		.byte	0
 9306 185a 00        		.byte	0
 9307 185b 00        		.byte	0
 9308 185c 00        		.byte	0
 9309 185d 00        		.byte	0
 9310 185e 00        		.byte	0
 9311 185f 00        		.byte	0
 9312 1860 00        		.byte	0
 9313 1861 F0        		.byte	-16
 9314 1862 FC        		.byte	-4
 9315 1863 0E        		.byte	14
 9316 1864 07        		.byte	7
 9317 1865 03        		.byte	3
 9318 1866 03        		.byte	3
 9319 1867 03        		.byte	3
 9320 1868 03        		.byte	3
 9321 1869 FF        		.byte	-1
 9322 186a FF        		.byte	-1
 9323 186b 00        		.byte	0
 9324 186c F0        		.byte	-16
 9325 186d FF        		.byte	-1
 9326 186e 3F        		.byte	63
 9327 186f 30        		.byte	48
 9328 1870 30        		.byte	48
 9329 1871 30        		.byte	48
 9330 1872 30        		.byte	48
 9331 1873 30        		.byte	48
 9332 1874 30        		.byte	48
 9333 1875 3F        		.byte	63
 9334 1876 FF        		.byte	-1
 9335 1877 F0        		.byte	-16
 9336 1878 00        		.byte	0
 9337 1879 FF        		.byte	-1
 9338 187a FF        		.byte	-1
 9339 187b C3        		.byte	-61
 9340 187c C3        		.byte	-61
 9341 187d C3        		.byte	-61
 9342 187e C3        		.byte	-61
 9343 187f C3        		.byte	-61
 9344 1880 C3        		.byte	-61
 9345 1881 03        		.byte	3
 9346 1882 03        		.byte	3
 9347 1883 00        		.byte	0
 9348 1884 00        		.byte	0
 9349 1885 3F        		.byte	63
 9350 1886 3F        		.byte	63
 9351 1887 30        		.byte	48
 9352 1888 30        		.byte	48
 9353 1889 30        		.byte	48
 9354 188a 30        		.byte	48
 9355 188b 30        		.byte	48
 9356 188c 30        		.byte	48
 9357 188d 30        		.byte	48
 9358 188e 30        		.byte	48
 9359 188f 00        		.byte	0
 9360 1890 0F        		.byte	15
 9361 1891 3E        		.byte	62
 9362 1892 F8        		.byte	-8
 9363 1893 E0        		.byte	-32
 9364 1894 C0        		.byte	-64
 9365 1895 FF        		.byte	-1
 9366 1896 FF        		.byte	-1
 9367 1897 C0        		.byte	-64
 9368 1898 E0        		.byte	-32
 9369 1899 F8        		.byte	-8
 9370 189a 1E        		.byte	30
 9371 189b 07        		.byte	7
 9372 189c 3C        		.byte	60
 9373 189d 1F        		.byte	31
 9374 189e 07        		.byte	7
 9375 189f 01        		.byte	1
 9376 18a0 00        		.byte	0
 9377 18a1 3F        		.byte	63
 9378 18a2 3F        		.byte	63
 9379 18a3 00        		.byte	0
 9380 18a4 01        		.byte	1
 9381 18a5 07        		.byte	7
 9382 18a6 1F        		.byte	31
 9383 18a7 3C        		.byte	60
 9384 18a8 00        		.byte	0
 9385 18a9 0C        		.byte	12
 9386 18aa 0E        		.byte	14
 9387 18ab 07        		.byte	7
 9388 18ac C3        		.byte	-61
 9389 18ad C3        		.byte	-61
 9390 18ae C3        		.byte	-61
 9391 18af C3        		.byte	-61
 9392 18b0 C3        		.byte	-61
 9393 18b1 E7        		.byte	-25
 9394 18b2 7E        		.byte	126
 9395 18b3 3C        		.byte	60
 9396 18b4 00        		.byte	0
 9397 18b5 0C        		.byte	12
 9398 18b6 1C        		.byte	28
 9399 18b7 38        		.byte	56
 9400 18b8 30        		.byte	48
 9401 18b9 30        		.byte	48
 9402 18ba 30        		.byte	48
 9403 18bb 30        		.byte	48
 9404 18bc 30        		.byte	48
 9405 18bd 39        		.byte	57
 9406 18be 1F        		.byte	31
 9407 18bf 0E        		.byte	14
 9408 18c0 00        		.byte	0
 9409 18c1 FF        		.byte	-1
 9410 18c2 FF        		.byte	-1
 9411 18c3 00        		.byte	0
 9412 18c4 00        		.byte	0
 9413 18c5 C0        		.byte	-64
 9414 18c6 F0        		.byte	-16
 9415 18c7 38        		.byte	56
 9416 18c8 0E        		.byte	14
 9417 18c9 FF        		.byte	-1
 9418 18ca FF        		.byte	-1
 9419 18cb 00        		.byte	0
 9420 18cc 00        		.byte	0
 9421 18cd 3F        		.byte	63
 9422 18ce 3F        		.byte	63
 9423 18cf 1C        		.byte	28
 9424 18d0 07        		.byte	7
 9425 18d1 03        		.byte	3
 9426 18d2 00        		.byte	0
 9427 18d3 00        		.byte	0
 9428 18d4 00        		.byte	0
 9429 18d5 3F        		.byte	63
 9430 18d6 3F        		.byte	63
 9431 18d7 00        		.byte	0
 9432 18d8 00        		.byte	0
 9433 18d9 FF        		.byte	-1
 9434 18da FF        		.byte	-1
 9435 18db 00        		.byte	0
 9436 18dc 00        		.byte	0
 9437 18dd C6        		.byte	-58
 9438 18de F3        		.byte	-13
 9439 18df 38        		.byte	56
 9440 18e0 0E        		.byte	14
 9441 18e1 FF        		.byte	-1
 9442 18e2 FF        		.byte	-1
 9443 18e3 00        		.byte	0
 9444 18e4 00        		.byte	0
 9445 18e5 3F        		.byte	63
 9446 18e6 3F        		.byte	63
 9447 18e7 1C        		.byte	28
 9448 18e8 07        		.byte	7
 9449 18e9 03        		.byte	3
 9450 18ea 00        		.byte	0
 9451 18eb 00        		.byte	0
 9452 18ec 00        		.byte	0
 9453 18ed 3F        		.byte	63
 9454 18ee 3F        		.byte	63
 9455 18ef 00        		.byte	0
 9456 18f0 00        		.byte	0
 9457 18f1 FF        		.byte	-1
 9458 18f2 FF        		.byte	-1
 9459 18f3 C0        		.byte	-64
 9460 18f4 E0        		.byte	-32
 9461 18f5 F0        		.byte	-16
 9462 18f6 38        		.byte	56
 9463 18f7 1C        		.byte	28
 9464 18f8 0E        		.byte	14
 9465 18f9 07        		.byte	7
 9466 18fa 03        		.byte	3
 9467 18fb 00        		.byte	0
 9468 18fc 00        		.byte	0
 9469 18fd 3F        		.byte	63
 9470 18fe 3F        		.byte	63
 9471 18ff 00        		.byte	0
 9472 1900 01        		.byte	1
 9473 1901 03        		.byte	3
 9474 1902 07        		.byte	7
 9475 1903 0E        		.byte	14
 9476 1904 1C        		.byte	28
 9477 1905 38        		.byte	56
 9478 1906 30        		.byte	48
 9479 1907 00        		.byte	0
 9480 1908 00        		.byte	0
 9481 1909 F0        		.byte	-16
 9482 190a FC        		.byte	-4
 9483 190b 0E        		.byte	14
 9484 190c 07        		.byte	7
 9485 190d 03        		.byte	3
 9486 190e 03        		.byte	3
 9487 190f 03        		.byte	3
 9488 1910 03        		.byte	3
 9489 1911 FF        		.byte	-1
 9490 1912 FF        		.byte	-1
 9491 1913 00        		.byte	0
 9492 1914 00        		.byte	0
 9493 1915 3F        		.byte	63
 9494 1916 3F        		.byte	63
 9495 1917 00        		.byte	0
 9496 1918 00        		.byte	0
 9497 1919 00        		.byte	0
 9498 191a 00        		.byte	0
 9499 191b 00        		.byte	0
 9500 191c 00        		.byte	0
 9501 191d 3F        		.byte	63
 9502 191e 3F        		.byte	63
 9503 191f 00        		.byte	0
 9504 1920 00        		.byte	0
 9505 1921 FF        		.byte	-1
 9506 1922 FF        		.byte	-1
 9507 1923 1E        		.byte	30
 9508 1924 78        		.byte	120
 9509 1925 E0        		.byte	-32
 9510 1926 E0        		.byte	-32
 9511 1927 78        		.byte	120
 9512 1928 1E        		.byte	30
 9513 1929 FF        		.byte	-1
 9514 192a FF        		.byte	-1
 9515 192b 00        		.byte	0
 9516 192c 00        		.byte	0
 9517 192d 3F        		.byte	63
 9518 192e 3F        		.byte	63
 9519 192f 00        		.byte	0
 9520 1930 00        		.byte	0
 9521 1931 01        		.byte	1
 9522 1932 01        		.byte	1
 9523 1933 00        		.byte	0
 9524 1934 00        		.byte	0
 9525 1935 3F        		.byte	63
 9526 1936 3F        		.byte	63
 9527 1937 00        		.byte	0
 9528 1938 00        		.byte	0
 9529 1939 FF        		.byte	-1
 9530 193a FF        		.byte	-1
 9531 193b C0        		.byte	-64
 9532 193c C0        		.byte	-64
 9533 193d C0        		.byte	-64
 9534 193e C0        		.byte	-64
 9535 193f C0        		.byte	-64
 9536 1940 C0        		.byte	-64
 9537 1941 FF        		.byte	-1
 9538 1942 FF        		.byte	-1
 9539 1943 00        		.byte	0
 9540 1944 00        		.byte	0
 9541 1945 3F        		.byte	63
 9542 1946 3F        		.byte	63
 9543 1947 00        		.byte	0
 9544 1948 00        		.byte	0
 9545 1949 00        		.byte	0
 9546 194a 00        		.byte	0
 9547 194b 00        		.byte	0
 9548 194c 00        		.byte	0
 9549 194d 3F        		.byte	63
 9550 194e 3F        		.byte	63
 9551 194f 00        		.byte	0
 9552 1950 00        		.byte	0
 9553 1951 F0        		.byte	-16
 9554 1952 FC        		.byte	-4
 9555 1953 0E        		.byte	14
 9556 1954 07        		.byte	7
 9557 1955 03        		.byte	3
 9558 1956 03        		.byte	3
 9559 1957 07        		.byte	7
 9560 1958 0E        		.byte	14
 9561 1959 FC        		.byte	-4
 9562 195a F0        		.byte	-16
 9563 195b 00        		.byte	0
 9564 195c 00        		.byte	0
 9565 195d 03        		.byte	3
 9566 195e 0F        		.byte	15
 9567 195f 1C        		.byte	28
 9568 1960 38        		.byte	56
 9569 1961 30        		.byte	48
 9570 1962 30        		.byte	48
 9571 1963 38        		.byte	56
 9572 1964 1C        		.byte	28
 9573 1965 0F        		.byte	15
 9574 1966 03        		.byte	3
 9575 1967 00        		.byte	0
 9576 1968 00        		.byte	0
 9577 1969 FF        		.byte	-1
 9578 196a FF        		.byte	-1
 9579 196b 03        		.byte	3
 9580 196c 03        		.byte	3
 9581 196d 03        		.byte	3
 9582 196e 03        		.byte	3
 9583 196f 03        		.byte	3
 9584 1970 03        		.byte	3
 9585 1971 FF        		.byte	-1
 9586 1972 FF        		.byte	-1
 9587 1973 00        		.byte	0
 9588 1974 00        		.byte	0
 9589 1975 3F        		.byte	63
 9590 1976 3F        		.byte	63
 9591 1977 00        		.byte	0
 9592 1978 00        		.byte	0
 9593 1979 00        		.byte	0
 9594 197a 00        		.byte	0
 9595 197b 00        		.byte	0
 9596 197c 00        		.byte	0
 9597 197d 3F        		.byte	63
 9598 197e 3F        		.byte	63
 9599 197f 00        		.byte	0
 9600 1980 00        		.byte	0
 9601 1981 FF        		.byte	-1
 9602 1982 FF        		.byte	-1
 9603 1983 83        		.byte	-125
 9604 1984 83        		.byte	-125
 9605 1985 83        		.byte	-125
 9606 1986 83        		.byte	-125
 9607 1987 83        		.byte	-125
 9608 1988 C7        		.byte	-57
 9609 1989 FE        		.byte	-2
 9610 198a 7C        		.byte	124
 9611 198b 00        		.byte	0
 9612 198c 00        		.byte	0
 9613 198d 3F        		.byte	63
 9614 198e 3F        		.byte	63
 9615 198f 01        		.byte	1
 9616 1990 01        		.byte	1
 9617 1991 01        		.byte	1
 9618 1992 01        		.byte	1
 9619 1993 01        		.byte	1
 9620 1994 01        		.byte	1
 9621 1995 00        		.byte	0
 9622 1996 00        		.byte	0
 9623 1997 00        		.byte	0
 9624 1998 00        		.byte	0
 9625 1999 F0        		.byte	-16
 9626 199a FC        		.byte	-4
 9627 199b 0E        		.byte	14
 9628 199c 07        		.byte	7
 9629 199d 03        		.byte	3
 9630 199e 03        		.byte	3
 9631 199f 03        		.byte	3
 9632 19a0 07        		.byte	7
 9633 19a1 0E        		.byte	14
 9634 19a2 0C        		.byte	12
 9635 19a3 00        		.byte	0
 9636 19a4 00        		.byte	0
 9637 19a5 03        		.byte	3
 9638 19a6 0F        		.byte	15
 9639 19a7 1C        		.byte	28
 9640 19a8 38        		.byte	56
 9641 19a9 30        		.byte	48
 9642 19aa 30        		.byte	48
 9643 19ab 30        		.byte	48
 9644 19ac 38        		.byte	56
 9645 19ad 1C        		.byte	28
 9646 19ae 0C        		.byte	12
 9647 19af 00        		.byte	0
 9648 19b0 00        		.byte	0
 9649 19b1 00        		.byte	0
 9650 19b2 03        		.byte	3
 9651 19b3 03        		.byte	3
 9652 19b4 03        		.byte	3
 9653 19b5 FF        		.byte	-1
 9654 19b6 FF        		.byte	-1
 9655 19b7 03        		.byte	3
 9656 19b8 03        		.byte	3
 9657 19b9 03        		.byte	3
 9658 19ba 00        		.byte	0
 9659 19bb 00        		.byte	0
 9660 19bc 00        		.byte	0
 9661 19bd 00        		.byte	0
 9662 19be 00        		.byte	0
 9663 19bf 00        		.byte	0
 9664 19c0 00        		.byte	0
 9665 19c1 3F        		.byte	63
 9666 19c2 3F        		.byte	63
 9667 19c3 00        		.byte	0
 9668 19c4 00        		.byte	0
 9669 19c5 00        		.byte	0
 9670 19c6 00        		.byte	0
 9671 19c7 00        		.byte	0
 9672 19c8 00        		.byte	0
 9673 19c9 7F        		.byte	127
 9674 19ca FF        		.byte	-1
 9675 19cb C0        		.byte	-64
 9676 19cc C0        		.byte	-64
 9677 19cd C0        		.byte	-64
 9678 19ce C0        		.byte	-64
 9679 19cf C0        		.byte	-64
 9680 19d0 C0        		.byte	-64
 9681 19d1 FF        		.byte	-1
 9682 19d2 FF        		.byte	-1
 9683 19d3 00        		.byte	0
 9684 19d4 00        		.byte	0
 9685 19d5 18        		.byte	24
 9686 19d6 38        		.byte	56
 9687 19d7 30        		.byte	48
 9688 19d8 30        		.byte	48
 9689 19d9 30        		.byte	48
 9690 19da 30        		.byte	48
 9691 19db 30        		.byte	48
 9692 19dc 38        		.byte	56
 9693 19dd 1F        		.byte	31
 9694 19de 07        		.byte	7
 9695 19df 00        		.byte	0
 9696 19e0 00        		.byte	0
 9697 19e1 F8        		.byte	-8
 9698 19e2 FC        		.byte	-4
 9699 19e3 0C        		.byte	12
 9700 19e4 0C        		.byte	12
 9701 19e5 FF        		.byte	-1
 9702 19e6 FF        		.byte	-1
 9703 19e7 0C        		.byte	12
 9704 19e8 0C        		.byte	12
 9705 19e9 FC        		.byte	-4
 9706 19ea F8        		.byte	-8
 9707 19eb 00        		.byte	0
 9708 19ec 00        		.byte	0
 9709 19ed 03        		.byte	3
 9710 19ee 07        		.byte	7
 9711 19ef 06        		.byte	6
 9712 19f0 06        		.byte	6
 9713 19f1 3F        		.byte	63
 9714 19f2 3F        		.byte	63
 9715 19f3 06        		.byte	6
 9716 19f4 06        		.byte	6
 9717 19f5 07        		.byte	7
 9718 19f6 03        		.byte	3
 9719 19f7 00        		.byte	0
 9720 19f8 00        		.byte	0
 9721 19f9 03        		.byte	3
 9722 19fa 0F        		.byte	15
 9723 19fb 1C        		.byte	28
 9724 19fc 30        		.byte	48
 9725 19fd E0        		.byte	-32
 9726 19fe E0        		.byte	-32
 9727 19ff 30        		.byte	48
 9728 1a00 1C        		.byte	28
 9729 1a01 0F        		.byte	15
 9730 1a02 03        		.byte	3
 9731 1a03 00        		.byte	0
 9732 1a04 00        		.byte	0
 9733 1a05 30        		.byte	48
 9734 1a06 3C        		.byte	60
 9735 1a07 0E        		.byte	14
 9736 1a08 03        		.byte	3
 9737 1a09 01        		.byte	1
 9738 1a0a 01        		.byte	1
 9739 1a0b 03        		.byte	3
 9740 1a0c 0E        		.byte	14
 9741 1a0d 3C        		.byte	60
 9742 1a0e 30        		.byte	48
 9743 1a0f 00        		.byte	0
 9744 1a10 00        		.byte	0
 9745 1a11 FF        		.byte	-1
 9746 1a12 FF        		.byte	-1
 9747 1a13 00        		.byte	0
 9748 1a14 00        		.byte	0
 9749 1a15 00        		.byte	0
 9750 1a16 00        		.byte	0
 9751 1a17 00        		.byte	0
 9752 1a18 FF        		.byte	-1
 9753 1a19 FF        		.byte	-1
 9754 1a1a 00        		.byte	0
 9755 1a1b 00        		.byte	0
 9756 1a1c 00        		.byte	0
 9757 1a1d 3F        		.byte	63
 9758 1a1e 3F        		.byte	63
 9759 1a1f 30        		.byte	48
 9760 1a20 30        		.byte	48
 9761 1a21 30        		.byte	48
 9762 1a22 30        		.byte	48
 9763 1a23 30        		.byte	48
 9764 1a24 3F        		.byte	63
 9765 1a25 FF        		.byte	-1
 9766 1a26 F0        		.byte	-16
 9767 1a27 00        		.byte	0
 9768 1a28 00        		.byte	0
 9769 1a29 7F        		.byte	127
 9770 1a2a FF        		.byte	-1
 9771 1a2b C0        		.byte	-64
 9772 1a2c C0        		.byte	-64
 9773 1a2d C0        		.byte	-64
 9774 1a2e C0        		.byte	-64
 9775 1a2f C0        		.byte	-64
 9776 1a30 C0        		.byte	-64
 9777 1a31 FF        		.byte	-1
 9778 1a32 FF        		.byte	-1
 9779 1a33 00        		.byte	0
 9780 1a34 00        		.byte	0
 9781 1a35 00        		.byte	0
 9782 1a36 00        		.byte	0
 9783 1a37 00        		.byte	0
 9784 1a38 00        		.byte	0
 9785 1a39 00        		.byte	0
 9786 1a3a 00        		.byte	0
 9787 1a3b 00        		.byte	0
 9788 1a3c 00        		.byte	0
 9789 1a3d 3F        		.byte	63
 9790 1a3e 3F        		.byte	63
 9791 1a3f 00        		.byte	0
 9792 1a40 00        		.byte	0
 9793 1a41 FF        		.byte	-1
 9794 1a42 FF        		.byte	-1
 9795 1a43 00        		.byte	0
 9796 1a44 00        		.byte	0
 9797 1a45 FF        		.byte	-1
 9798 1a46 FF        		.byte	-1
 9799 1a47 00        		.byte	0
 9800 1a48 00        		.byte	0
 9801 1a49 FF        		.byte	-1
 9802 1a4a FF        		.byte	-1
 9803 1a4b 00        		.byte	0
 9804 1a4c 00        		.byte	0
 9805 1a4d 3F        		.byte	63
 9806 1a4e 3F        		.byte	63
 9807 1a4f 30        		.byte	48
 9808 1a50 30        		.byte	48
 9809 1a51 3F        		.byte	63
 9810 1a52 3F        		.byte	63
 9811 1a53 30        		.byte	48
 9812 1a54 30        		.byte	48
 9813 1a55 3F        		.byte	63
 9814 1a56 3F        		.byte	63
 9815 1a57 00        		.byte	0
 9816 1a58 00        		.byte	0
 9817 1a59 FF        		.byte	-1
 9818 1a5a FF        		.byte	-1
 9819 1a5b 00        		.byte	0
 9820 1a5c 00        		.byte	0
 9821 1a5d FF        		.byte	-1
 9822 1a5e FF        		.byte	-1
 9823 1a5f 00        		.byte	0
 9824 1a60 00        		.byte	0
 9825 1a61 FF        		.byte	-1
 9826 1a62 FF        		.byte	-1
 9827 1a63 00        		.byte	0
 9828 1a64 00        		.byte	0
 9829 1a65 3F        		.byte	63
 9830 1a66 3F        		.byte	63
 9831 1a67 30        		.byte	48
 9832 1a68 30        		.byte	48
 9833 1a69 3F        		.byte	63
 9834 1a6a 3F        		.byte	63
 9835 1a6b 30        		.byte	48
 9836 1a6c 30        		.byte	48
 9837 1a6d 3F        		.byte	63
 9838 1a6e FF        		.byte	-1
 9839 1a6f F0        		.byte	-16
 9840 1a70 0F        		.byte	15
 9841 1a71 0F        		.byte	15
 9842 1a72 03        		.byte	3
 9843 1a73 FF        		.byte	-1
 9844 1a74 FF        		.byte	-1
 9845 1a75 60        		.byte	96
 9846 1a76 60        		.byte	96
 9847 1a77 60        		.byte	96
 9848 1a78 E0        		.byte	-32
 9849 1a79 C0        		.byte	-64
 9850 1a7a 80        		.byte	-128
 9851 1a7b 00        		.byte	0
 9852 1a7c 00        		.byte	0
 9853 1a7d 00        		.byte	0
 9854 1a7e 00        		.byte	0
 9855 1a7f 3F        		.byte	63
 9856 1a80 3F        		.byte	63
 9857 1a81 30        		.byte	48
 9858 1a82 30        		.byte	48
 9859 1a83 30        		.byte	48
 9860 1a84 38        		.byte	56
 9861 1a85 1F        		.byte	31
 9862 1a86 0F        		.byte	15
 9863 1a87 00        		.byte	0
 9864 1a88 00        		.byte	0
 9865 1a89 FF        		.byte	-1
 9866 1a8a FF        		.byte	-1
 9867 1a8b 60        		.byte	96
 9868 1a8c 60        		.byte	96
 9869 1a8d E0        		.byte	-32
 9870 1a8e C0        		.byte	-64
 9871 1a8f 80        		.byte	-128
 9872 1a90 00        		.byte	0
 9873 1a91 FF        		.byte	-1
 9874 1a92 FF        		.byte	-1
 9875 1a93 00        		.byte	0
 9876 1a94 00        		.byte	0
 9877 1a95 3F        		.byte	63
 9878 1a96 3F        		.byte	63
 9879 1a97 30        		.byte	48
 9880 1a98 30        		.byte	48
 9881 1a99 38        		.byte	56
 9882 1a9a 1F        		.byte	31
 9883 1a9b 0F        		.byte	15
 9884 1a9c 00        		.byte	0
 9885 1a9d 3F        		.byte	63
 9886 1a9e 3F        		.byte	63
 9887 1a9f 00        		.byte	0
 9888 1aa0 00        		.byte	0
 9889 1aa1 FF        		.byte	-1
 9890 1aa2 FF        		.byte	-1
 9891 1aa3 60        		.byte	96
 9892 1aa4 60        		.byte	96
 9893 1aa5 60        		.byte	96
 9894 1aa6 60        		.byte	96
 9895 1aa7 60        		.byte	96
 9896 1aa8 E0        		.byte	-32
 9897 1aa9 C0        		.byte	-64
 9898 1aaa 80        		.byte	-128
 9899 1aab 00        		.byte	0
 9900 1aac 00        		.byte	0
 9901 1aad 3F        		.byte	63
 9902 1aae 3F        		.byte	63
 9903 1aaf 30        		.byte	48
 9904 1ab0 30        		.byte	48
 9905 1ab1 30        		.byte	48
 9906 1ab2 30        		.byte	48
 9907 1ab3 30        		.byte	48
 9908 1ab4 38        		.byte	56
 9909 1ab5 1F        		.byte	31
 9910 1ab6 0F        		.byte	15
 9911 1ab7 00        		.byte	0
 9912 1ab8 00        		.byte	0
 9913 1ab9 0C        		.byte	12
 9914 1aba 0E        		.byte	14
 9915 1abb 07        		.byte	7
 9916 1abc C3        		.byte	-61
 9917 1abd C3        		.byte	-61
 9918 1abe C3        		.byte	-61
 9919 1abf C7        		.byte	-57
 9920 1ac0 CE        		.byte	-50
 9921 1ac1 FC        		.byte	-4
 9922 1ac2 F0        		.byte	-16
 9923 1ac3 00        		.byte	0
 9924 1ac4 00        		.byte	0
 9925 1ac5 0C        		.byte	12
 9926 1ac6 1C        		.byte	28
 9927 1ac7 38        		.byte	56
 9928 1ac8 30        		.byte	48
 9929 1ac9 30        		.byte	48
 9930 1aca 30        		.byte	48
 9931 1acb 38        		.byte	56
 9932 1acc 1C        		.byte	28
 9933 1acd 0F        		.byte	15
 9934 1ace 03        		.byte	3
 9935 1acf 00        		.byte	0
 9936 1ad0 FF        		.byte	-1
 9937 1ad1 FF        		.byte	-1
 9938 1ad2 C0        		.byte	-64
 9939 1ad3 F0        		.byte	-16
 9940 1ad4 FC        		.byte	-4
 9941 1ad5 0E        		.byte	14
 9942 1ad6 07        		.byte	7
 9943 1ad7 03        		.byte	3
 9944 1ad8 07        		.byte	7
 9945 1ad9 0E        		.byte	14
 9946 1ada FC        		.byte	-4
 9947 1adb F0        		.byte	-16
 9948 1adc 3F        		.byte	63
 9949 1add 3F        		.byte	63
 9950 1ade 00        		.byte	0
 9951 1adf 03        		.byte	3
 9952 1ae0 0F        		.byte	15
 9953 1ae1 1C        		.byte	28
 9954 1ae2 38        		.byte	56
 9955 1ae3 30        		.byte	48
 9956 1ae4 38        		.byte	56
 9957 1ae5 1C        		.byte	28
 9958 1ae6 0F        		.byte	15
 9959 1ae7 03        		.byte	3
 9960 1ae8 00        		.byte	0
 9961 1ae9 7C        		.byte	124
 9962 1aea FE        		.byte	-2
 9963 1aeb C7        		.byte	-57
 9964 1aec 83        		.byte	-125
 9965 1aed 83        		.byte	-125
 9966 1aee 83        		.byte	-125
 9967 1aef 83        		.byte	-125
 9968 1af0 83        		.byte	-125
 9969 1af1 FF        		.byte	-1
 9970 1af2 FF        		.byte	-1
 9971 1af3 00        		.byte	0
 9972 1af4 00        		.byte	0
 9973 1af5 30        		.byte	48
 9974 1af6 38        		.byte	56
 9975 1af7 1D        		.byte	29
 9976 1af8 0F        		.byte	15
 9977 1af9 07        		.byte	7
 9978 1afa 03        		.byte	3
 9979 1afb 01        		.byte	1
 9980 1afc 01        		.byte	1
 9981 1afd 3F        		.byte	63
 9982 1afe 3F        		.byte	63
 9983 1aff 00        		.byte	0
 9984 1b00 00        		.byte	0
 9985 1b01 00        		.byte	0
 9986 1b02 40        		.byte	64
 9987 1b03 60        		.byte	96
 9988 1b04 60        		.byte	96
 9989 1b05 60        		.byte	96
 9990 1b06 60        		.byte	96
 9991 1b07 60        		.byte	96
 9992 1b08 60        		.byte	96
 9993 1b09 E0        		.byte	-32
 9994 1b0a C0        		.byte	-64
 9995 1b0b 00        		.byte	0
 9996 1b0c 00        		.byte	0
 9997 1b0d 1C        		.byte	28
 9998 1b0e 3E        		.byte	62
 9999 1b0f 33        		.byte	51
 10000 1b10 33        		.byte	51
 10001 1b11 33        		.byte	51
 10002 1b12 33        		.byte	51
 10003 1b13 33        		.byte	51
 10004 1b14 33        		.byte	51
 10005 1b15 3F        		.byte	63
 10006 1b16 3F        		.byte	63
 10007 1b17 00        		.byte	0
 10008 1b18 00        		.byte	0
 10009 1b19 F0        		.byte	-16
 10010 1b1a F8        		.byte	-8
 10011 1b1b 98        		.byte	-104
 10012 1b1c D8        		.byte	-40
 10013 1b1d D8        		.byte	-40
 10014 1b1e D8        		.byte	-40
 10015 1b1f D8        		.byte	-40
 10016 1b20 D8        		.byte	-40
 10017 1b21 8C        		.byte	-116
 10018 1b22 00        		.byte	0
 10019 1b23 00        		.byte	0
 10020 1b24 00        		.byte	0
 10021 1b25 1F        		.byte	31
 10022 1b26 3F        		.byte	63
 10023 1b27 31        		.byte	49
 10024 1b28 30        		.byte	48
 10025 1b29 30        		.byte	48
 10026 1b2a 30        		.byte	48
 10027 1b2b 30        		.byte	48
 10028 1b2c 39        		.byte	57
 10029 1b2d 1F        		.byte	31
 10030 1b2e 0F        		.byte	15
 10031 1b2f 00        		.byte	0
 10032 1b30 00        		.byte	0
 10033 1b31 00        		.byte	0
 10034 1b32 E0        		.byte	-32
 10035 1b33 E0        		.byte	-32
 10036 1b34 60        		.byte	96
 10037 1b35 60        		.byte	96
 10038 1b36 60        		.byte	96
 10039 1b37 60        		.byte	96
 10040 1b38 E0        		.byte	-32
 10041 1b39 C0        		.byte	-64
 10042 1b3a 00        		.byte	0
 10043 1b3b 00        		.byte	0
 10044 1b3c 00        		.byte	0
 10045 1b3d 00        		.byte	0
 10046 1b3e 3F        		.byte	63
 10047 1b3f 3F        		.byte	63
 10048 1b40 32        		.byte	50
 10049 1b41 32        		.byte	50
 10050 1b42 32        		.byte	50
 10051 1b43 32        		.byte	50
 10052 1b44 3F        		.byte	63
 10053 1b45 1D        		.byte	29
 10054 1b46 00        		.byte	0
 10055 1b47 00        		.byte	0
 10056 1b48 00        		.byte	0
 10057 1b49 00        		.byte	0
 10058 1b4a E0        		.byte	-32
 10059 1b4b E0        		.byte	-32
 10060 1b4c 60        		.byte	96
 10061 1b4d 60        		.byte	96
 10062 1b4e 60        		.byte	96
 10063 1b4f 60        		.byte	96
 10064 1b50 60        		.byte	96
 10065 1b51 60        		.byte	96
 10066 1b52 00        		.byte	0
 10067 1b53 00        		.byte	0
 10068 1b54 00        		.byte	0
 10069 1b55 00        		.byte	0
 10070 1b56 3F        		.byte	63
 10071 1b57 3F        		.byte	63
 10072 1b58 00        		.byte	0
 10073 1b59 00        		.byte	0
 10074 1b5a 00        		.byte	0
 10075 1b5b 00        		.byte	0
 10076 1b5c 00        		.byte	0
 10077 1b5d 00        		.byte	0
 10078 1b5e 00        		.byte	0
 10079 1b5f 00        		.byte	0
 10080 1b60 00        		.byte	0
 10081 1b61 00        		.byte	0
 10082 1b62 80        		.byte	-128
 10083 1b63 C0        		.byte	-64
 10084 1b64 60        		.byte	96
 10085 1b65 60        		.byte	96
 10086 1b66 60        		.byte	96
 10087 1b67 60        		.byte	96
 10088 1b68 E0        		.byte	-32
 10089 1b69 E0        		.byte	-32
 10090 1b6a 00        		.byte	0
 10091 1b6b 00        		.byte	0
 10092 1b6c 00        		.byte	0
 10093 1b6d F0        		.byte	-16
 10094 1b6e FF        		.byte	-1
 10095 1b6f 3F        		.byte	63
 10096 1b70 30        		.byte	48
 10097 1b71 30        		.byte	48
 10098 1b72 30        		.byte	48
 10099 1b73 30        		.byte	48
 10100 1b74 3F        		.byte	63
 10101 1b75 FF        		.byte	-1
 10102 1b76 F0        		.byte	-16
 10103 1b77 00        		.byte	0
 10104 1b78 00        		.byte	0
 10105 1b79 80        		.byte	-128
 10106 1b7a C0        		.byte	-64
 10107 1b7b E0        		.byte	-32
 10108 1b7c 60        		.byte	96
 10109 1b7d 60        		.byte	96
 10110 1b7e 60        		.byte	96
 10111 1b7f 60        		.byte	96
 10112 1b80 60        		.byte	96
 10113 1b81 C0        		.byte	-64
 10114 1b82 80        		.byte	-128
 10115 1b83 00        		.byte	0
 10116 1b84 00        		.byte	0
 10117 1b85 0F        		.byte	15
 10118 1b86 1F        		.byte	31
 10119 1b87 3B        		.byte	59
 10120 1b88 33        		.byte	51
 10121 1b89 33        		.byte	51
 10122 1b8a 33        		.byte	51
 10123 1b8b 33        		.byte	51
 10124 1b8c 33        		.byte	51
 10125 1b8d 13        		.byte	19
 10126 1b8e 01        		.byte	1
 10127 1b8f 00        		.byte	0
 10128 1b90 60        		.byte	96
 10129 1b91 E0        		.byte	-32
 10130 1b92 C0        		.byte	-64
 10131 1b93 80        		.byte	-128
 10132 1b94 00        		.byte	0
 10133 1b95 E0        		.byte	-32
 10134 1b96 E0        		.byte	-32
 10135 1b97 00        		.byte	0
 10136 1b98 80        		.byte	-128
 10137 1b99 C0        		.byte	-64
 10138 1b9a E0        		.byte	-32
 10139 1b9b 60        		.byte	96
 10140 1b9c 30        		.byte	48
 10141 1b9d 38        		.byte	56
 10142 1b9e 1F        		.byte	31
 10143 1b9f 07        		.byte	7
 10144 1ba0 03        		.byte	3
 10145 1ba1 3F        		.byte	63
 10146 1ba2 3F        		.byte	63
 10147 1ba3 03        		.byte	3
 10148 1ba4 07        		.byte	7
 10149 1ba5 1F        		.byte	31
 10150 1ba6 38        		.byte	56
 10151 1ba7 30        		.byte	48
 10152 1ba8 00        		.byte	0
 10153 1ba9 00        		.byte	0
 10154 1baa 80        		.byte	-128
 10155 1bab C0        		.byte	-64
 10156 1bac 60        		.byte	96
 10157 1bad 60        		.byte	96
 10158 1bae 60        		.byte	96
 10159 1baf 60        		.byte	96
 10160 1bb0 C0        		.byte	-64
 10161 1bb1 80        		.byte	-128
 10162 1bb2 00        		.byte	0
 10163 1bb3 00        		.byte	0
 10164 1bb4 00        		.byte	0
 10165 1bb5 00        		.byte	0
 10166 1bb6 08        		.byte	8
 10167 1bb7 18        		.byte	24
 10168 1bb8 30        		.byte	48
 10169 1bb9 32        		.byte	50
 10170 1bba 32        		.byte	50
 10171 1bbb 32        		.byte	50
 10172 1bbc 1F        		.byte	31
 10173 1bbd 0D        		.byte	13
 10174 1bbe 00        		.byte	0
 10175 1bbf 00        		.byte	0
 10176 1bc0 00        		.byte	0
 10177 1bc1 00        		.byte	0
 10178 1bc2 E0        		.byte	-32
 10179 1bc3 E0        		.byte	-32
 10180 1bc4 00        		.byte	0
 10181 1bc5 00        		.byte	0
 10182 1bc6 00        		.byte	0
 10183 1bc7 00        		.byte	0
 10184 1bc8 80        		.byte	-128
 10185 1bc9 E0        		.byte	-32
 10186 1bca E0        		.byte	-32
 10187 1bcb 00        		.byte	0
 10188 1bcc 00        		.byte	0
 10189 1bcd 00        		.byte	0
 10190 1bce 3F        		.byte	63
 10191 1bcf 3F        		.byte	63
 10192 1bd0 18        		.byte	24
 10193 1bd1 0C        		.byte	12
 10194 1bd2 06        		.byte	6
 10195 1bd3 03        		.byte	3
 10196 1bd4 01        		.byte	1
 10197 1bd5 3F        		.byte	63
 10198 1bd6 3F        		.byte	63
 10199 1bd7 00        		.byte	0
 10200 1bd8 00        		.byte	0
 10201 1bd9 00        		.byte	0
 10202 1bda E0        		.byte	-32
 10203 1bdb E0        		.byte	-32
 10204 1bdc 00        		.byte	0
 10205 1bdd 00        		.byte	0
 10206 1bde 18        		.byte	24
 10207 1bdf 0C        		.byte	12
 10208 1be0 80        		.byte	-128
 10209 1be1 E0        		.byte	-32
 10210 1be2 E0        		.byte	-32
 10211 1be3 00        		.byte	0
 10212 1be4 00        		.byte	0
 10213 1be5 00        		.byte	0
 10214 1be6 3F        		.byte	63
 10215 1be7 3F        		.byte	63
 10216 1be8 18        		.byte	24
 10217 1be9 0C        		.byte	12
 10218 1bea 06        		.byte	6
 10219 1beb 03        		.byte	3
 10220 1bec 01        		.byte	1
 10221 1bed 3F        		.byte	63
 10222 1bee 3F        		.byte	63
 10223 1bef 00        		.byte	0
 10224 1bf0 00        		.byte	0
 10225 1bf1 00        		.byte	0
 10226 1bf2 E0        		.byte	-32
 10227 1bf3 E0        		.byte	-32
 10228 1bf4 00        		.byte	0
 10229 1bf5 80        		.byte	-128
 10230 1bf6 C0        		.byte	-64
 10231 1bf7 E0        		.byte	-32
 10232 1bf8 60        		.byte	96
 10233 1bf9 00        		.byte	0
 10234 1bfa 00        		.byte	0
 10235 1bfb 00        		.byte	0
 10236 1bfc 00        		.byte	0
 10237 1bfd 00        		.byte	0
 10238 1bfe 3F        		.byte	63
 10239 1bff 3F        		.byte	63
 10240 1c00 03        		.byte	3
 10241 1c01 07        		.byte	7
 10242 1c02 0F        		.byte	15
 10243 1c03 1C        		.byte	28
 10244 1c04 38        		.byte	56
 10245 1c05 30        		.byte	48
 10246 1c06 00        		.byte	0
 10247 1c07 00        		.byte	0
 10248 1c08 00        		.byte	0
 10249 1c09 00        		.byte	0
 10250 1c0a 80        		.byte	-128
 10251 1c0b C0        		.byte	-64
 10252 1c0c 60        		.byte	96
 10253 1c0d 60        		.byte	96
 10254 1c0e 60        		.byte	96
 10255 1c0f 60        		.byte	96
 10256 1c10 E0        		.byte	-32
 10257 1c11 E0        		.byte	-32
 10258 1c12 00        		.byte	0
 10259 1c13 00        		.byte	0
 10260 1c14 00        		.byte	0
 10261 1c15 00        		.byte	0
 10262 1c16 3F        		.byte	63
 10263 1c17 3F        		.byte	63
 10264 1c18 00        		.byte	0
 10265 1c19 00        		.byte	0
 10266 1c1a 00        		.byte	0
 10267 1c1b 00        		.byte	0
 10268 1c1c 3F        		.byte	63
 10269 1c1d 3F        		.byte	63
 10270 1c1e 00        		.byte	0
 10271 1c1f 00        		.byte	0
 10272 1c20 00        		.byte	0
 10273 1c21 E0        		.byte	-32
 10274 1c22 E0        		.byte	-32
 10275 1c23 E0        		.byte	-32
 10276 1c24 C0        		.byte	-64
 10277 1c25 00        		.byte	0
 10278 1c26 00        		.byte	0
 10279 1c27 C0        		.byte	-64
 10280 1c28 E0        		.byte	-32
 10281 1c29 E0        		.byte	-32
 10282 1c2a E0        		.byte	-32
 10283 1c2b 00        		.byte	0
 10284 1c2c 00        		.byte	0
 10285 1c2d 3F        		.byte	63
 10286 1c2e 3F        		.byte	63
 10287 1c2f 00        		.byte	0
 10288 1c30 01        		.byte	1
 10289 1c31 03        		.byte	3
 10290 1c32 03        		.byte	3
 10291 1c33 01        		.byte	1
 10292 1c34 00        		.byte	0
 10293 1c35 3F        		.byte	63
 10294 1c36 3F        		.byte	63
 10295 1c37 00        		.byte	0
 10296 1c38 00        		.byte	0
 10297 1c39 00        		.byte	0
 10298 1c3a E0        		.byte	-32
 10299 1c3b E0        		.byte	-32
 10300 1c3c 00        		.byte	0
 10301 1c3d 00        		.byte	0
 10302 1c3e 00        		.byte	0
 10303 1c3f 00        		.byte	0
 10304 1c40 00        		.byte	0
 10305 1c41 E0        		.byte	-32
 10306 1c42 E0        		.byte	-32
 10307 1c43 00        		.byte	0
 10308 1c44 00        		.byte	0
 10309 1c45 00        		.byte	0
 10310 1c46 3F        		.byte	63
 10311 1c47 3F        		.byte	63
 10312 1c48 06        		.byte	6
 10313 1c49 06        		.byte	6
 10314 1c4a 06        		.byte	6
 10315 1c4b 06        		.byte	6
 10316 1c4c 06        		.byte	6
 10317 1c4d 3F        		.byte	63
 10318 1c4e 3F        		.byte	63
 10319 1c4f 00        		.byte	0
 10320 1c50 00        		.byte	0
 10321 1c51 80        		.byte	-128
 10322 1c52 C0        		.byte	-64
 10323 1c53 E0        		.byte	-32
 10324 1c54 60        		.byte	96
 10325 1c55 60        		.byte	96
 10326 1c56 60        		.byte	96
 10327 1c57 60        		.byte	96
 10328 1c58 E0        		.byte	-32
 10329 1c59 C0        		.byte	-64
 10330 1c5a 80        		.byte	-128
 10331 1c5b 00        		.byte	0
 10332 1c5c 00        		.byte	0
 10333 1c5d 0F        		.byte	15
 10334 1c5e 1F        		.byte	31
 10335 1c5f 38        		.byte	56
 10336 1c60 30        		.byte	48
 10337 1c61 30        		.byte	48
 10338 1c62 30        		.byte	48
 10339 1c63 30        		.byte	48
 10340 1c64 38        		.byte	56
 10341 1c65 1F        		.byte	31
 10342 1c66 0F        		.byte	15
 10343 1c67 00        		.byte	0
 10344 1c68 00        		.byte	0
 10345 1c69 00        		.byte	0
 10346 1c6a E0        		.byte	-32
 10347 1c6b E0        		.byte	-32
 10348 1c6c 60        		.byte	96
 10349 1c6d 60        		.byte	96
 10350 1c6e 60        		.byte	96
 10351 1c6f 60        		.byte	96
 10352 1c70 60        		.byte	96
 10353 1c71 E0        		.byte	-32
 10354 1c72 E0        		.byte	-32
 10355 1c73 00        		.byte	0
 10356 1c74 00        		.byte	0
 10357 1c75 00        		.byte	0
 10358 1c76 3F        		.byte	63
 10359 1c77 3F        		.byte	63
 10360 1c78 00        		.byte	0
 10361 1c79 00        		.byte	0
 10362 1c7a 00        		.byte	0
 10363 1c7b 00        		.byte	0
 10364 1c7c 00        		.byte	0
 10365 1c7d 3F        		.byte	63
 10366 1c7e 3F        		.byte	63
 10367 1c7f 00        		.byte	0
 10368 1c80 00        		.byte	0
 10369 1c81 E0        		.byte	-32
 10370 1c82 E0        		.byte	-32
 10371 1c83 60        		.byte	96
 10372 1c84 60        		.byte	96
 10373 1c85 60        		.byte	96
 10374 1c86 60        		.byte	96
 10375 1c87 60        		.byte	96
 10376 1c88 E0        		.byte	-32
 10377 1c89 C0        		.byte	-64
 10378 1c8a 80        		.byte	-128
 10379 1c8b 00        		.byte	0
 10380 1c8c 00        		.byte	0
 10381 1c8d FF        		.byte	-1
 10382 1c8e FF        		.byte	-1
 10383 1c8f 0C        		.byte	12
 10384 1c90 18        		.byte	24
 10385 1c91 18        		.byte	24
 10386 1c92 18        		.byte	24
 10387 1c93 18        		.byte	24
 10388 1c94 1C        		.byte	28
 10389 1c95 0F        		.byte	15
 10390 1c96 07        		.byte	7
 10391 1c97 00        		.byte	0
 10392 1c98 00        		.byte	0
 10393 1c99 80        		.byte	-128
 10394 1c9a C0        		.byte	-64
 10395 1c9b E0        		.byte	-32
 10396 1c9c 60        		.byte	96
 10397 1c9d 60        		.byte	96
 10398 1c9e 60        		.byte	96
 10399 1c9f 60        		.byte	96
 10400 1ca0 60        		.byte	96
 10401 1ca1 C0        		.byte	-64
 10402 1ca2 80        		.byte	-128
 10403 1ca3 00        		.byte	0
 10404 1ca4 00        		.byte	0
 10405 1ca5 0F        		.byte	15
 10406 1ca6 1F        		.byte	31
 10407 1ca7 38        		.byte	56
 10408 1ca8 30        		.byte	48
 10409 1ca9 30        		.byte	48
 10410 1caa 30        		.byte	48
 10411 1cab 30        		.byte	48
 10412 1cac 30        		.byte	48
 10413 1cad 18        		.byte	24
 10414 1cae 08        		.byte	8
 10415 1caf 00        		.byte	0
 10416 1cb0 00        		.byte	0
 10417 1cb1 00        		.byte	0
 10418 1cb2 60        		.byte	96
 10419 1cb3 60        		.byte	96
 10420 1cb4 60        		.byte	96
 10421 1cb5 E0        		.byte	-32
 10422 1cb6 E0        		.byte	-32
 10423 1cb7 60        		.byte	96
 10424 1cb8 60        		.byte	96
 10425 1cb9 60        		.byte	96
 10426 1cba 00        		.byte	0
 10427 1cbb 00        		.byte	0
 10428 1cbc 00        		.byte	0
 10429 1cbd 00        		.byte	0
 10430 1cbe 00        		.byte	0
 10431 1cbf 00        		.byte	0
 10432 1cc0 00        		.byte	0
 10433 1cc1 3F        		.byte	63
 10434 1cc2 3F        		.byte	63
 10435 1cc3 00        		.byte	0
 10436 1cc4 00        		.byte	0
 10437 1cc5 00        		.byte	0
 10438 1cc6 00        		.byte	0
 10439 1cc7 00        		.byte	0
 10440 1cc8 00        		.byte	0
 10441 1cc9 00        		.byte	0
 10442 1cca 60        		.byte	96
 10443 1ccb E0        		.byte	-32
 10444 1ccc 80        		.byte	-128
 10445 1ccd 00        		.byte	0
 10446 1cce 00        		.byte	0
 10447 1ccf 80        		.byte	-128
 10448 1cd0 E0        		.byte	-32
 10449 1cd1 60        		.byte	96
 10450 1cd2 00        		.byte	0
 10451 1cd3 00        		.byte	0
 10452 1cd4 00        		.byte	0
 10453 1cd5 00        		.byte	0
 10454 1cd6 00        		.byte	0
 10455 1cd7 81        		.byte	-127
 10456 1cd8 E7        		.byte	-25
 10457 1cd9 7E        		.byte	126
 10458 1cda 1E        		.byte	30
 10459 1cdb 07        		.byte	7
 10460 1cdc 01        		.byte	1
 10461 1cdd 00        		.byte	0
 10462 1cde 00        		.byte	0
 10463 1cdf 00        		.byte	0
 10464 1ce0 00        		.byte	0
 10465 1ce1 80        		.byte	-128
 10466 1ce2 C0        		.byte	-64
 10467 1ce3 C0        		.byte	-64
 10468 1ce4 C0        		.byte	-64
 10469 1ce5 E0        		.byte	-32
 10470 1ce6 E0        		.byte	-32
 10471 1ce7 C0        		.byte	-64
 10472 1ce8 C0        		.byte	-64
 10473 1ce9 C0        		.byte	-64
 10474 1cea 80        		.byte	-128
 10475 1ceb 00        		.byte	0
 10476 1cec 00        		.byte	0
 10477 1ced 1F        		.byte	31
 10478 1cee 3F        		.byte	63
 10479 1cef 30        		.byte	48
 10480 1cf0 30        		.byte	48
 10481 1cf1 FF        		.byte	-1
 10482 1cf2 FF        		.byte	-1
 10483 1cf3 30        		.byte	48
 10484 1cf4 30        		.byte	48
 10485 1cf5 3F        		.byte	63
 10486 1cf6 1F        		.byte	31
 10487 1cf7 00        		.byte	0
 10488 1cf8 00        		.byte	0
 10489 1cf9 60        		.byte	96
 10490 1cfa E0        		.byte	-32
 10491 1cfb C0        		.byte	-64
 10492 1cfc 80        		.byte	-128
 10493 1cfd 00        		.byte	0
 10494 1cfe 80        		.byte	-128
 10495 1cff C0        		.byte	-64
 10496 1d00 E0        		.byte	-32
 10497 1d01 60        		.byte	96
 10498 1d02 00        		.byte	0
 10499 1d03 00        		.byte	0
 10500 1d04 00        		.byte	0
 10501 1d05 30        		.byte	48
 10502 1d06 38        		.byte	56
 10503 1d07 1D        		.byte	29
 10504 1d08 0F        		.byte	15
 10505 1d09 07        		.byte	7
 10506 1d0a 0F        		.byte	15
 10507 1d0b 1D        		.byte	29
 10508 1d0c 38        		.byte	56
 10509 1d0d 30        		.byte	48
 10510 1d0e 00        		.byte	0
 10511 1d0f 00        		.byte	0
 10512 1d10 00        		.byte	0
 10513 1d11 00        		.byte	0
 10514 1d12 E0        		.byte	-32
 10515 1d13 E0        		.byte	-32
 10516 1d14 00        		.byte	0
 10517 1d15 00        		.byte	0
 10518 1d16 00        		.byte	0
 10519 1d17 00        		.byte	0
 10520 1d18 E0        		.byte	-32
 10521 1d19 E0        		.byte	-32
 10522 1d1a 00        		.byte	0
 10523 1d1b 00        		.byte	0
 10524 1d1c 00        		.byte	0
 10525 1d1d 00        		.byte	0
 10526 1d1e 3F        		.byte	63
 10527 1d1f 3F        		.byte	63
 10528 1d20 30        		.byte	48
 10529 1d21 30        		.byte	48
 10530 1d22 30        		.byte	48
 10531 1d23 30        		.byte	48
 10532 1d24 3F        		.byte	63
 10533 1d25 FF        		.byte	-1
 10534 1d26 F0        		.byte	-16
 10535 1d27 00        		.byte	0
 10536 1d28 00        		.byte	0
 10537 1d29 00        		.byte	0
 10538 1d2a E0        		.byte	-32
 10539 1d2b E0        		.byte	-32
 10540 1d2c 00        		.byte	0
 10541 1d2d 00        		.byte	0
 10542 1d2e 00        		.byte	0
 10543 1d2f 00        		.byte	0
 10544 1d30 E0        		.byte	-32
 10545 1d31 E0        		.byte	-32
 10546 1d32 00        		.byte	0
 10547 1d33 00        		.byte	0
 10548 1d34 00        		.byte	0
 10549 1d35 00        		.byte	0
 10550 1d36 03        		.byte	3
 10551 1d37 07        		.byte	7
 10552 1d38 06        		.byte	6
 10553 1d39 06        		.byte	6
 10554 1d3a 06        		.byte	6
 10555 1d3b 06        		.byte	6
 10556 1d3c 3F        		.byte	63
 10557 1d3d 3F        		.byte	63
 10558 1d3e 00        		.byte	0
 10559 1d3f 00        		.byte	0
 10560 1d40 00        		.byte	0
 10561 1d41 E0        		.byte	-32
 10562 1d42 E0        		.byte	-32
 10563 1d43 00        		.byte	0
 10564 1d44 00        		.byte	0
 10565 1d45 E0        		.byte	-32
 10566 1d46 E0        		.byte	-32
 10567 1d47 00        		.byte	0
 10568 1d48 00        		.byte	0
 10569 1d49 E0        		.byte	-32
 10570 1d4a E0        		.byte	-32
 10571 1d4b 00        		.byte	0
 10572 1d4c 00        		.byte	0
 10573 1d4d 3F        		.byte	63
 10574 1d4e 3F        		.byte	63
 10575 1d4f 30        		.byte	48
 10576 1d50 30        		.byte	48
 10577 1d51 3F        		.byte	63
 10578 1d52 3F        		.byte	63
 10579 1d53 30        		.byte	48
 10580 1d54 30        		.byte	48
 10581 1d55 3F        		.byte	63
 10582 1d56 3F        		.byte	63
 10583 1d57 00        		.byte	0
 10584 1d58 00        		.byte	0
 10585 1d59 E0        		.byte	-32
 10586 1d5a E0        		.byte	-32
 10587 1d5b 00        		.byte	0
 10588 1d5c 00        		.byte	0
 10589 1d5d E0        		.byte	-32
 10590 1d5e E0        		.byte	-32
 10591 1d5f 00        		.byte	0
 10592 1d60 00        		.byte	0
 10593 1d61 E0        		.byte	-32
 10594 1d62 E0        		.byte	-32
 10595 1d63 00        		.byte	0
 10596 1d64 00        		.byte	0
 10597 1d65 3F        		.byte	63
 10598 1d66 3F        		.byte	63
 10599 1d67 30        		.byte	48
 10600 1d68 30        		.byte	48
 10601 1d69 3F        		.byte	63
 10602 1d6a 3F        		.byte	63
 10603 1d6b 30        		.byte	48
 10604 1d6c 30        		.byte	48
 10605 1d6d 3F        		.byte	63
 10606 1d6e FF        		.byte	-1
 10607 1d6f F0        		.byte	-16
 10608 1d70 00        		.byte	0
 10609 1d71 E0        		.byte	-32
 10610 1d72 E0        		.byte	-32
 10611 1d73 60        		.byte	96
 10612 1d74 E0        		.byte	-32
 10613 1d75 E0        		.byte	-32
 10614 1d76 00        		.byte	0
 10615 1d77 00        		.byte	0
 10616 1d78 00        		.byte	0
 10617 1d79 00        		.byte	0
 10618 1d7a 00        		.byte	0
 10619 1d7b 00        		.byte	0
 10620 1d7c 00        		.byte	0
 10621 1d7d 00        		.byte	0
 10622 1d7e 00        		.byte	0
 10623 1d7f 00        		.byte	0
 10624 1d80 3F        		.byte	63
 10625 1d81 3F        		.byte	63
 10626 1d82 33        		.byte	51
 10627 1d83 33        		.byte	51
 10628 1d84 33        		.byte	51
 10629 1d85 3F        		.byte	63
 10630 1d86 1E        		.byte	30
 10631 1d87 00        		.byte	0
 10632 1d88 00        		.byte	0
 10633 1d89 E0        		.byte	-32
 10634 1d8a E0        		.byte	-32
 10635 1d8b 00        		.byte	0
 10636 1d8c 00        		.byte	0
 10637 1d8d 00        		.byte	0
 10638 1d8e 00        		.byte	0
 10639 1d8f 00        		.byte	0
 10640 1d90 00        		.byte	0
 10641 1d91 E0        		.byte	-32
 10642 1d92 E0        		.byte	-32
 10643 1d93 00        		.byte	0
 10644 1d94 00        		.byte	0
 10645 1d95 3F        		.byte	63
 10646 1d96 3F        		.byte	63
 10647 1d97 33        		.byte	51
 10648 1d98 33        		.byte	51
 10649 1d99 33        		.byte	51
 10650 1d9a 3F        		.byte	63
 10651 1d9b 1E        		.byte	30
 10652 1d9c 00        		.byte	0
 10653 1d9d 3F        		.byte	63
 10654 1d9e 3F        		.byte	63
 10655 1d9f 00        		.byte	0
 10656 1da0 00        		.byte	0
 10657 1da1 00        		.byte	0
 10658 1da2 E0        		.byte	-32
 10659 1da3 E0        		.byte	-32
 10660 1da4 00        		.byte	0
 10661 1da5 00        		.byte	0
 10662 1da6 00        		.byte	0
 10663 1da7 00        		.byte	0
 10664 1da8 00        		.byte	0
 10665 1da9 00        		.byte	0
 10666 1daa 00        		.byte	0
 10667 1dab 00        		.byte	0
 10668 1dac 00        		.byte	0
 10669 1dad 00        		.byte	0
 10670 1dae 3F        		.byte	63
 10671 1daf 3F        		.byte	63
 10672 1db0 33        		.byte	51
 10673 1db1 33        		.byte	51
 10674 1db2 33        		.byte	51
 10675 1db3 33        		.byte	51
 10676 1db4 3F        		.byte	63
 10677 1db5 1E        		.byte	30
 10678 1db6 00        		.byte	0
 10679 1db7 00        		.byte	0
 10680 1db8 00        		.byte	0
 10681 1db9 80        		.byte	-128
 10682 1dba C0        		.byte	-64
 10683 1dbb 60        		.byte	96
 10684 1dbc 60        		.byte	96
 10685 1dbd 60        		.byte	96
 10686 1dbe 60        		.byte	96
 10687 1dbf 60        		.byte	96
 10688 1dc0 C0        		.byte	-64
 10689 1dc1 80        		.byte	-128
 10690 1dc2 00        		.byte	0
 10691 1dc3 00        		.byte	0
 10692 1dc4 00        		.byte	0
 10693 1dc5 08        		.byte	8
 10694 1dc6 18        		.byte	24
 10695 1dc7 30        		.byte	48
 10696 1dc8 30        		.byte	48
 10697 1dc9 33        		.byte	51
 10698 1dca 33        		.byte	51
 10699 1dcb 3B        		.byte	59
 10700 1dcc 1F        		.byte	31
 10701 1dcd 0F        		.byte	15
 10702 1dce 00        		.byte	0
 10703 1dcf 00        		.byte	0
 10704 1dd0 00        		.byte	0
 10705 1dd1 E0        		.byte	-32
 10706 1dd2 E0        		.byte	-32
 10707 1dd3 00        		.byte	0
 10708 1dd4 80        		.byte	-128
 10709 1dd5 C0        		.byte	-64
 10710 1dd6 E0        		.byte	-32
 10711 1dd7 60        		.byte	96
 10712 1dd8 E0        		.byte	-32
 10713 1dd9 C0        		.byte	-64
 10714 1dda 80        		.byte	-128
 10715 1ddb 00        		.byte	0
 10716 1ddc 00        		.byte	0
 10717 1ddd 3F        		.byte	63
 10718 1dde 3F        		.byte	63
 10719 1ddf 03        		.byte	3
 10720 1de0 0F        		.byte	15
 10721 1de1 1F        		.byte	31
 10722 1de2 38        		.byte	56
 10723 1de3 30        		.byte	48
 10724 1de4 38        		.byte	56
 10725 1de5 1F        		.byte	31
 10726 1de6 0F        		.byte	15
 10727 1de7 00        		.byte	0
 10728 1de8 00        		.byte	0
 10729 1de9 00        		.byte	0
 10730 1dea C0        		.byte	-64
 10731 1deb E0        		.byte	-32
 10732 1dec 60        		.byte	96
 10733 1ded 60        		.byte	96
 10734 1dee 60        		.byte	96
 10735 1def 60        		.byte	96
 10736 1df0 E0        		.byte	-32
 10737 1df1 E0        		.byte	-32
 10738 1df2 00        		.byte	0
 10739 1df3 00        		.byte	0
 10740 1df4 00        		.byte	0
 10741 1df5 00        		.byte	0
 10742 1df6 31        		.byte	49
 10743 1df7 3B        		.byte	59
 10744 1df8 1E        		.byte	30
 10745 1df9 0E        		.byte	14
 10746 1dfa 06        		.byte	6
 10747 1dfb 02        		.byte	2
 10748 1dfc 3F        		.byte	63
 10749 1dfd 3F        		.byte	63
 10750 1dfe 00        		.byte	0
 10751 1dff 00        		.byte	0
 10752               	.global	STATUS
 10753               	.global	STATUS
 10754               		.section .bss
 10757               	STATUS:
 10758 0000 00        		.skip 1,0
 10759               	.global	BUTTON
 10760               	.global	BUTTON
 10763               	BUTTON:
 10764 0001 00        		.skip 1,0
 10765               	.global	CountMUL_BTN_WAIT
 10766               	.global	CountMUL_BTN_WAIT
 10769               	CountMUL_BTN_WAIT:
 10770 0002 00        		.skip 1,0
 10771               	.global	MENU
 10772               	.global	MENU
 10775               	MENU:
 10776 0003 00        		.skip 1,0
 10777               	.global	CountMUL_MENU_WAIT
 10778               	.global	CountMUL_MENU_WAIT
 10781               	CountMUL_MENU_WAIT:
 10782 0004 00        		.skip 1,0
 10783               	.global	STATUS_DS
 10784               	.global	STATUS_DS
 10787               	STATUS_DS:
 10788 0005 00        		.skip 1,0
 10789               	.global	STATUS_TC1
 10790               	.global	STATUS_TC1
 10793               	STATUS_TC1:
 10794 0006 00        		.skip 1,0
 10795               	.global	VALUE_TC1
 10796               	.global	VALUE_TC1
 10799               	VALUE_TC1:
 10800 0007 0000      		.skip 2,0
 10801               	.global	STATUS_TC2
 10802               	.global	STATUS_TC2
 10805               	STATUS_TC2:
 10806 0009 00        		.skip 1,0
 10807               	.global	VALUE_TC2
 10808               	.global	VALUE_TC2
 10811               	VALUE_TC2:
 10812 000a 0000      		.skip 2,0
 10813               	.global	PWM1_LEVEL
 10814               	.global	PWM1_LEVEL
 10817               	PWM1_LEVEL:
 10818 000c 00        		.skip 1,0
 10819               	.global	PWM2_LEVEL
 10820               	.global	PWM2_LEVEL
 10823               	PWM2_LEVEL:
 10824 000d 00        		.skip 1,0
 10825               	.global	PWM3_LEVEL
 10826               	.global	PWM3_LEVEL
 10829               	PWM3_LEVEL:
 10830 000e 00        		.skip 1,0
 10831               	.global	M12_Step_Start
 10832               	.global	M12_Step_Start
 10835               	M12_Step_Start:
 10836 000f 00        		.skip 1,0
 10837               	.global	M1_begin_start_on_step
 10838               	.global	M1_begin_start_on_step
 10841               	M1_begin_start_on_step:
 10842 0010 00        		.skip 1,0
 10843               	.global	M1_end_start_on_step
 10844               	.global	M1_end_start_on_step
 10847               	M1_end_start_on_step:
 10848 0011 00        		.skip 1,0
 10849               	.global	M2_begin_start_on_step
 10850               	.global	M2_begin_start_on_step
 10853               	M2_begin_start_on_step:
 10854 0012 00        		.skip 1,0
 10855               	.global	M2_end_start_on_step
 10856               	.global	M2_end_start_on_step
 10859               	M2_end_start_on_step:
 10860 0013 00        		.skip 1,0
 10861               	.global	M12_Step_Stop
 10862               	.global	M12_Step_Stop
 10865               	M12_Step_Stop:
 10866 0014 00        		.skip 1,0
 10867               	.global	M1_stop_on_step
 10868               	.global	M1_stop_on_step
 10871               	M1_stop_on_step:
 10872 0015 00        		.skip 1,0
 10873               	.global	PWM1_Start_Discret
 10874               	.global	PWM1_Start_Discret
 10877               	PWM1_Start_Discret:
 10878 0016 00        		.skip 1,0
 10879               	.global	PWM2_Start_Discret
 10880               	.global	PWM2_Start_Discret
 10883               	PWM2_Start_Discret:
 10884 0017 00        		.skip 1,0
 10885               	.global	PWM3_Start_Discret
 10886               	.global	PWM3_Start_Discret
 10889               	PWM3_Start_Discret:
 10890 0018 00        		.skip 1,0
 10891               	.global	PWM1_Step_Discret
 10892               	.global	PWM1_Step_Discret
 10895               	PWM1_Step_Discret:
 10896 0019 0000 0000 		.skip 4,0
 10897               	.global	PWM2_Step_Discret
 10898               	.global	PWM2_Step_Discret
 10901               	PWM2_Step_Discret:
 10902 001d 0000 0000 		.skip 4,0
 10903               	.global	PWM3_Step_Discret
 10904               	.global	PWM3_Step_Discret
 10907               	PWM3_Step_Discret:
 10908 0021 0000 0000 		.skip 4,0
 10909               	.global	EE_LED_LIGTH
 10910               		.section	.eeprom,"aw",@progbits
 10913               	EE_LED_LIGTH:
 10914 0000 01        		.byte	1
 10915               	.global	EE_SETVAL_TEMP_ROOM
 10918               	EE_SETVAL_TEMP_ROOM:
 10919 0001 19        		.byte	25
 10920               	.global	EE_SETVAL_DELTA_TEMP_ROOM
 10923               	EE_SETVAL_DELTA_TEMP_ROOM:
 10924 0002 02        		.byte	2
 10925               	.global	EE_SETVAL_TEMP_TOP_OVEN
 10928               	EE_SETVAL_TEMP_TOP_OVEN:
 10929 0003 64        		.byte	100
 10930               	.global	EE_SETVAL_DELTA_TEMP_TOP_OVEN
 10933               	EE_SETVAL_DELTA_TEMP_TOP_OVEN:
 10934 0004 0A        		.byte	10
 10935               	.global	EE_SETVAL_TEMP_PYROLYS_START
 10938               	EE_SETVAL_TEMP_PYROLYS_START:
 10939 0005 9001      		.word	400
 10940               	.global	EE_SETVAL_TEMP_PYROLYS_FULL
 10943               	EE_SETVAL_TEMP_PYROLYS_FULL:
 10944 0007 5802      		.word	600
 10945               	.global	EE_SETVAL_DELTA_TEMP_SHUTDOWN
 10948               	EE_SETVAL_DELTA_TEMP_SHUTDOWN:
 10949 0009 0A        		.byte	10
 10950               	.global	EE_SETVAL_PWM_FAN1_START
 10953               	EE_SETVAL_PWM_FAN1_START:
 10954 000a 02        		.byte	2
 10955               	.global	EE_SETVAL_PWM_FAN2_START
 10958               	EE_SETVAL_PWM_FAN2_START:
 10959 000b 02        		.byte	2
 10960               	.global	EE_SETVAL_PWM_FAN3_START
 10963               	EE_SETVAL_PWM_FAN3_START:
 10964 000c 02        		.byte	2
 10965               	.global	Label_TEMP
 10966               		.section	.progmem.data
 10969               	Label_TEMP:
 10970 1e00 0B        		.byte	11
 10971 1e01 D2        		.byte	-46
 10972 1e02 E5        		.byte	-27
 10973 1e03 EC        		.byte	-20
 10974 1e04 EF        		.byte	-17
 10975 1e05 E5        		.byte	-27
 10976 1e06 F0        		.byte	-16
 10977 1e07 E0        		.byte	-32
 10978 1e08 F2        		.byte	-14
 10979 1e09 F3        		.byte	-13
 10980 1e0a F0        		.byte	-16
 10981 1e0b E0        		.byte	-32
 10982               	.global	Label_ROOM
 10985               	Label_ROOM:
 10986 1e0c 09        		.byte	9
 10987 1e0d EF        		.byte	-17
 10988 1e0e EE        		.byte	-18
 10989 1e0f EC        		.byte	-20
 10990 1e10 E5        		.byte	-27
 10991 1e11 F9        		.byte	-7
 10992 1e12 E5        		.byte	-27
 10993 1e13 ED        		.byte	-19
 10994 1e14 E8        		.byte	-24
 10995 1e15 FF        		.byte	-1
 10996               	.global	Label_DELTA_TEMP
 10999               	Label_DELTA_TEMP:
 11000 1e16 0E        		.byte	14
 11001 1e17 C4        		.byte	-60
 11002 1e18 E5        		.byte	-27
 11003 1e19 EB        		.byte	-21
 11004 1e1a FC        		.byte	-4
 11005 1e1b F2        		.byte	-14
 11006 1e1c E0        		.byte	-32
 11007 1e1d 20        		.byte	32
 11008 1e1e F2        		.byte	-14
 11009 1e1f E5        		.byte	-27
 11010 1e20 EC        		.byte	-20
 11011 1e21 EF        		.byte	-17
 11012 1e22 E5        		.byte	-27
 11013 1e23 F0        		.byte	-16
 11014 1e24 2E        		.byte	46
 11015               	.global	Label_TOP_OVEN
 11018               	Label_TOP_OVEN:
 11019 1e25 0D        		.byte	13
 11020 1e26 EF        		.byte	-17
 11021 1e27 EE        		.byte	-18
 11022 1e28 E2        		.byte	-30
 11023 1e29 E5        		.byte	-27
 11024 1e2a F0        		.byte	-16
 11025 1e2b F5        		.byte	-11
 11026 1e2c ED        		.byte	-19
 11027 1e2d 2E        		.byte	46
 11028 1e2e 20        		.byte	32
 11029 1e2f EF        		.byte	-17
 11030 1e30 E5        		.byte	-27
 11031 1e31 F7        		.byte	-9
 11032 1e32 E8        		.byte	-24
 11033               	.global	Label_START_PYROLYS
 11036               	Label_START_PYROLYS:
 11037 1e33 0E        		.byte	14
 11038 1e34 F1        		.byte	-15
 11039 1e35 F2        		.byte	-14
 11040 1e36 E0        		.byte	-32
 11041 1e37 F0        		.byte	-16
 11042 1e38 F2        		.byte	-14
 11043 1e39 E0        		.byte	-32
 11044 1e3a 20        		.byte	32
 11045 1e3b EF        		.byte	-17
 11046 1e3c E8        		.byte	-24
 11047 1e3d F0        		.byte	-16
 11048 1e3e EE        		.byte	-18
 11049 1e3f EB        		.byte	-21
 11050 1e40 E8        		.byte	-24
 11051 1e41 E7        		.byte	-25
 11052               	.global	Label_FULL_PYROLYS
 11055               	Label_FULL_PYROLYS:
 11056 1e42 0E        		.byte	14
 11057 1e43 EF        		.byte	-17
 11058 1e44 EE        		.byte	-18
 11059 1e45 EB        		.byte	-21
 11060 1e46 ED        		.byte	-19
 11061 1e47 FB        		.byte	-5
 11062 1e48 E9        		.byte	-23
 11063 1e49 20        		.byte	32
 11064 1e4a EF        		.byte	-17
 11065 1e4b E8        		.byte	-24
 11066 1e4c F0        		.byte	-16
 11067 1e4d EE        		.byte	-18
 11068 1e4e EB        		.byte	-21
 11069 1e4f E8        		.byte	-24
 11070 1e50 E7        		.byte	-25
 11071               	.global	Label_RAZN_TEMP
 11074               	Label_RAZN_TEMP:
 11075 1e51 0E        		.byte	14
 11076 1e52 D0        		.byte	-48
 11077 1e53 E0        		.byte	-32
 11078 1e54 E7        		.byte	-25
 11079 1e55 ED        		.byte	-19
 11080 1e56 EE        		.byte	-18
 11081 1e57 F1        		.byte	-15
 11082 1e58 F2        		.byte	-14
 11083 1e59 FC        		.byte	-4
 11084 1e5a 20        		.byte	32
 11085 1e5b F2        		.byte	-14
 11086 1e5c E5        		.byte	-27
 11087 1e5d EC        		.byte	-20
 11088 1e5e EF        		.byte	-17
 11089 1e5f 2E        		.byte	46
 11090               	.global	Label_SHUTDOWN
 11093               	Label_SHUTDOWN:
 11094 1e60 0E        		.byte	14
 11095 1e61 E2        		.byte	-30
 11096 1e62 FB        		.byte	-5
 11097 1e63 EA        		.byte	-22
 11098 1e64 EB        		.byte	-21
 11099 1e65 FE        		.byte	-2
 11100 1e66 F7        		.byte	-9
 11101 1e67 E5        		.byte	-27
 11102 1e68 ED        		.byte	-19
 11103 1e69 E8        		.byte	-24
 11104 1e6a FF        		.byte	-1
 11105 1e6b 20        		.byte	32
 11106 1e6c E0        		.byte	-32
 11107 1e6d E2        		.byte	-30
 11108 1e6e F2        		.byte	-14
 11109               	.global	Label_PWM_START
 11112               	Label_PWM_START:
 11113 1e6f 0C        		.byte	12
 11114 1e70 CC        		.byte	-52
 11115 1e71 EE        		.byte	-18
 11116 1e72 F9        		.byte	-7
 11117 1e73 ED        		.byte	-19
 11118 1e74 2E        		.byte	46
 11119 1e75 20        		.byte	32
 11120 1e76 F1        		.byte	-15
 11121 1e77 F2        		.byte	-14
 11122 1e78 E0        		.byte	-32
 11123 1e79 F0        		.byte	-16
 11124 1e7a F2        		.byte	-14
 11125 1e7b E0        		.byte	-32
 11126               	.global	Label_FAN
 11129               	Label_FAN:
 11130 1e7c 0C        		.byte	12
 11131 1e7d E2        		.byte	-30
 11132 1e7e E5        		.byte	-27
 11133 1e7f ED        		.byte	-19
 11134 1e80 F2        		.byte	-14
 11135 1e81 E8        		.byte	-24
 11136 1e82 EB        		.byte	-21
 11137 1e83 FF        		.byte	-1
 11138 1e84 F2        		.byte	-14
 11139 1e85 EE        		.byte	-18
 11140 1e86 F0        		.byte	-16
 11141 1e87 E0        		.byte	-32
 11142 1e88 20        		.byte	32
 11143               	.global	LabelT1
 11146               	LabelT1:
 11147 1e89 04        		.byte	4
 11148 1e8a 54        		.byte	84
 11149 1e8b 31        		.byte	49
 11150 1e8c 3A        		.byte	58
 11151 1e8d 20        		.byte	32
 11152               	.global	LabelT2
 11155               	LabelT2:
 11156 1e8e 04        		.byte	4
 11157 1e8f 54        		.byte	84
 11158 1e90 32        		.byte	50
 11159 1e91 3A        		.byte	58
 11160 1e92 20        		.byte	32
 11161               	.global	LabelT3
 11164               	LabelT3:
 11165 1e93 04        		.byte	4
 11166 1e94 54        		.byte	84
 11167 1e95 33        		.byte	51
 11168 1e96 3A        		.byte	58
 11169 1e97 20        		.byte	32
 11170               	.global	LabelM1
 11173               	LabelM1:
 11174 1e98 04        		.byte	4
 11175 1e99 CC        		.byte	-52
 11176 1e9a 31        		.byte	49
 11177 1e9b 3A        		.byte	58
 11178 1e9c 20        		.byte	32
 11179               	.global	LabelM2
 11182               	LabelM2:
 11183 1e9d 04        		.byte	4
 11184 1e9e CC        		.byte	-52
 11185 1e9f 32        		.byte	50
 11186 1ea0 3A        		.byte	58
 11187 1ea1 20        		.byte	32
 11188               	.global	LabelM3
 11191               	LabelM3:
 11192 1ea2 04        		.byte	4
 11193 1ea3 CC        		.byte	-52
 11194 1ea4 33        		.byte	51
 11195 1ea5 3A        		.byte	58
 11196 1ea6 20        		.byte	32
 11197               	.global	LabelUNC
 11200               	LabelUNC:
 11201 1ea7 03        		.byte	3
 11202 1ea8 55        		.byte	85
 11203 1ea9 4E        		.byte	78
 11204 1eaa 43        		.byte	67
 11205               	.global	LabelBRK
 11208               	LabelBRK:
 11209 1eab 05        		.byte	5
 11210 1eac 42        		.byte	66
 11211 1ead 52        		.byte	82
 11212 1eae 45        		.byte	69
 11213 1eaf 41        		.byte	65
 11214 1eb0 4B        		.byte	75
 11215               	.global	LabelOVR
 11218               	LabelOVR:
 11219 1eb1 04        		.byte	4
 11220 1eb2 4F        		.byte	79
 11221 1eb3 56        		.byte	86
 11222 1eb4 45        		.byte	69
 11223 1eb5 52        		.byte	82
 11224               	.global	LabelERR
 11227               	LabelERR:
 11228 1eb6 05        		.byte	5
 11229 1eb7 45        		.byte	69
 11230 1eb8 52        		.byte	82
 11231 1eb9 52        		.byte	82
 11232 1eba 4F        		.byte	79
 11233 1ebb 52        		.byte	82
 11234               	.global	LabelCC
 11237               	LabelCC:
 11238 1ebc 02        		.byte	2
 11239 1ebd B7        		.byte	-73
 11240 1ebe 43        		.byte	67
 11241               	.global	LabelSetting
 11244               	LabelSetting:
 11245 1ebf 09        		.byte	9
 11246 1ec0 CD        		.byte	-51
 11247 1ec1 E0        		.byte	-32
 11248 1ec2 F1        		.byte	-15
 11249 1ec3 F2        		.byte	-14
 11250 1ec4 F0        		.byte	-16
 11251 1ec5 EE        		.byte	-18
 11252 1ec6 E9        		.byte	-23
 11253 1ec7 EA        		.byte	-22
 11254 1ec8 E0        		.byte	-32
 11255               		.comm DS_TempData,9,1
 11256               		.comm DS_Temp,4,1
 11257               		.comm LED_LIGTH,1,1
 11258               		.comm SETVAL_TEMP_ROOM,1,1
 11259               		.comm SETVAL_DELTA_TEMP_ROOM,1,1
 11260               		.comm SETVAL_TEMP_TOP_OVEN,1,1
 11261               		.comm SETVAL_DELTA_TEMP_TOP_OVEN,1,1
 11262               		.comm SETVAL_TEMP_PYROLYS_START,2,1
 11263               		.comm SETVAL_TEMP_PYROLYS_FULL,2,1
 11264               		.comm SETVAL_DELTA_TEMP_SHUTDOWN,1,1
 11265               		.comm SETVAL_PWM_FAN1_START,1,1
 11266               		.comm SETVAL_PWM_FAN2_START,1,1
 11267               		.comm SETVAL_PWM_FAN3_START,1,1
 11268               	.global __do_clear_bss
DEFINED SYMBOLS
                            *ABS*:00000000 main.c
C:\Users\9E8E~1\AppData\Local\Temp/ccByrnDz.s:2      *ABS*:0000003f __SREG__
C:\Users\9E8E~1\AppData\Local\Temp/ccByrnDz.s:3      *ABS*:0000003e __SP_H__
C:\Users\9E8E~1\AppData\Local\Temp/ccByrnDz.s:4      *ABS*:0000003d __SP_L__
C:\Users\9E8E~1\AppData\Local\Temp/ccByrnDz.s:5      *ABS*:00000034 __CCP__
C:\Users\9E8E~1\AppData\Local\Temp/ccByrnDz.s:6      *ABS*:00000000 __tmp_reg__
C:\Users\9E8E~1\AppData\Local\Temp/ccByrnDz.s:7      *ABS*:00000001 __zero_reg__
C:\Users\9E8E~1\AppData\Local\Temp/ccByrnDz.s:11     .text:00000000 CalculateCoefficients
                            *COM*:00000001 SETVAL_PWM_FAN1_START
C:\Users\9E8E~1\AppData\Local\Temp/ccByrnDz.s:10877  .bss:00000016 PWM1_Start_Discret
C:\Users\9E8E~1\AppData\Local\Temp/ccByrnDz.s:10895  .bss:00000019 PWM1_Step_Discret
                            *COM*:00000001 SETVAL_PWM_FAN2_START
C:\Users\9E8E~1\AppData\Local\Temp/ccByrnDz.s:10883  .bss:00000017 PWM2_Start_Discret
C:\Users\9E8E~1\AppData\Local\Temp/ccByrnDz.s:10901  .bss:0000001d PWM2_Step_Discret
                            *COM*:00000001 SETVAL_PWM_FAN3_START
C:\Users\9E8E~1\AppData\Local\Temp/ccByrnDz.s:10889  .bss:00000018 PWM3_Start_Discret
                            *COM*:00000002 SETVAL_TEMP_PYROLYS_FULL
                            *COM*:00000002 SETVAL_TEMP_PYROLYS_START
C:\Users\9E8E~1\AppData\Local\Temp/ccByrnDz.s:10907  .bss:00000021 PWM3_Step_Discret
C:\Users\9E8E~1\AppData\Local\Temp/ccByrnDz.s:10841  .bss:00000010 M1_begin_start_on_step
C:\Users\9E8E~1\AppData\Local\Temp/ccByrnDz.s:10847  .bss:00000011 M1_end_start_on_step
C:\Users\9E8E~1\AppData\Local\Temp/ccByrnDz.s:10853  .bss:00000012 M2_begin_start_on_step
C:\Users\9E8E~1\AppData\Local\Temp/ccByrnDz.s:10859  .bss:00000013 M2_end_start_on_step
C:\Users\9E8E~1\AppData\Local\Temp/ccByrnDz.s:10871  .bss:00000015 M1_stop_on_step
C:\Users\9E8E~1\AppData\Local\Temp/ccByrnDz.s:200    .text:000001e2 __vector_7
C:\Users\9E8E~1\AppData\Local\Temp/ccByrnDz.s:10757  .bss:00000000 STATUS
C:\Users\9E8E~1\AppData\Local\Temp/ccByrnDz.s:224    .text:00000208 __vector_5
C:\Users\9E8E~1\AppData\Local\Temp/ccByrnDz.s:10769  .bss:00000002 CountMUL_BTN_WAIT
C:\Users\9E8E~1\AppData\Local\Temp/ccByrnDz.s:254    .text:0000023e init
                            *COM*:00000001 LED_LIGTH
C:\Users\9E8E~1\AppData\Local\Temp/ccByrnDz.s:325    .text:000002b4 LCD_sendByte
C:\Users\9E8E~1\AppData\Local\Temp/ccByrnDz.s:359    .text:000002de LCD_gotoXY
C:\Users\9E8E~1\AppData\Local\Temp/ccByrnDz.s:377    .text:000002f8 LCD_clear
C:\Users\9E8E~1\AppData\Local\Temp/ccByrnDz.s:412    .text:0000032e LCD_init
C:\Users\9E8E~1\AppData\Local\Temp/ccByrnDz.s:464    .text:0000037e LCD_OutChar6x8
C:\Users\9E8E~1\AppData\Local\Temp/ccByrnDz.s:3067   .progmem.data:00000000 Font_6x8_Data
C:\Users\9E8E~1\AppData\Local\Temp/ccByrnDz.s:499    .text:000003ac LCD_OutString6x8
C:\Users\9E8E~1\AppData\Local\Temp/ccByrnDz.s:541    .text:000003dc LCD_OutChar12x16
C:\Users\9E8E~1\AppData\Local\Temp/ccByrnDz.s:4607   .progmem.data:00000600 Font_12x16_Data
C:\Users\9E8E~1\AppData\Local\Temp/ccByrnDz.s:619    .text:0000045a LCD_OutString12x16
C:\Users\9E8E~1\AppData\Local\Temp/ccByrnDz.s:671    .text:0000049e LCD_OutNumber12x16
C:\Users\9E8E~1\AppData\Local\Temp/ccByrnDz.s:732    .text:0000050e LCD_OutBigNumber12x16
C:\Users\9E8E~1\AppData\Local\Temp/ccByrnDz.s:875    .text:00000626 ReadMAX6675
C:\Users\9E8E~1\AppData\Local\Temp/ccByrnDz.s:10793  .bss:00000006 STATUS_TC1
C:\Users\9E8E~1\AppData\Local\Temp/ccByrnDz.s:10805  .bss:00000009 STATUS_TC2
C:\Users\9E8E~1\AppData\Local\Temp/ccByrnDz.s:10799  .bss:00000007 VALUE_TC1
C:\Users\9E8E~1\AppData\Local\Temp/ccByrnDz.s:10811  .bss:0000000a VALUE_TC2
C:\Users\9E8E~1\AppData\Local\Temp/ccByrnDz.s:954    .text:000006b0 OutMenuToLCD
C:\Users\9E8E~1\AppData\Local\Temp/ccByrnDz.s:11244  .progmem.data:00001ebf LabelSetting
C:\Users\9E8E~1\AppData\Local\Temp/ccByrnDz.s:10775  .bss:00000003 MENU
C:\Users\9E8E~1\AppData\Local\Temp/ccByrnDz.s:10969  .progmem.data:00001e00 Label_TEMP
C:\Users\9E8E~1\AppData\Local\Temp/ccByrnDz.s:10985  .progmem.data:00001e0c Label_ROOM
                            *COM*:00000001 SETVAL_TEMP_ROOM
C:\Users\9E8E~1\AppData\Local\Temp/ccByrnDz.s:10999  .progmem.data:00001e16 Label_DELTA_TEMP
                            *COM*:00000001 SETVAL_DELTA_TEMP_ROOM
C:\Users\9E8E~1\AppData\Local\Temp/ccByrnDz.s:11018  .progmem.data:00001e25 Label_TOP_OVEN
                            *COM*:00000001 SETVAL_TEMP_TOP_OVEN
                            *COM*:00000001 SETVAL_DELTA_TEMP_TOP_OVEN
C:\Users\9E8E~1\AppData\Local\Temp/ccByrnDz.s:11036  .progmem.data:00001e33 Label_START_PYROLYS
C:\Users\9E8E~1\AppData\Local\Temp/ccByrnDz.s:11055  .progmem.data:00001e42 Label_FULL_PYROLYS
C:\Users\9E8E~1\AppData\Local\Temp/ccByrnDz.s:11074  .progmem.data:00001e51 Label_RAZN_TEMP
C:\Users\9E8E~1\AppData\Local\Temp/ccByrnDz.s:11093  .progmem.data:00001e60 Label_SHUTDOWN
                            *COM*:00000001 SETVAL_DELTA_TEMP_SHUTDOWN
C:\Users\9E8E~1\AppData\Local\Temp/ccByrnDz.s:11237  .progmem.data:00001ebc LabelCC
C:\Users\9E8E~1\AppData\Local\Temp/ccByrnDz.s:11112  .progmem.data:00001e6f Label_PWM_START
C:\Users\9E8E~1\AppData\Local\Temp/ccByrnDz.s:11129  .progmem.data:00001e7c Label_FAN
C:\Users\9E8E~1\AppData\Local\Temp/ccByrnDz.s:1206   .text:000008f6 ExecuteButton
C:\Users\9E8E~1\AppData\Local\Temp/ccByrnDz.s:10781  .bss:00000004 CountMUL_MENU_WAIT
C:\Users\9E8E~1\AppData\Local\Temp/ccByrnDz.s:10763  .bss:00000001 BUTTON
C:\Users\9E8E~1\AppData\Local\Temp/ccByrnDz.s:1582   .text:00000c78 CalculatePercent
C:\Users\9E8E~1\AppData\Local\Temp/ccByrnDz.s:1611   .text:00000cac OutTemperatureTC
C:\Users\9E8E~1\AppData\Local\Temp/ccByrnDz.s:11200  .progmem.data:00001ea7 LabelUNC
C:\Users\9E8E~1\AppData\Local\Temp/ccByrnDz.s:11208  .progmem.data:00001eab LabelBRK
C:\Users\9E8E~1\AppData\Local\Temp/ccByrnDz.s:11218  .progmem.data:00001eb1 LabelOVR
C:\Users\9E8E~1\AppData\Local\Temp/ccByrnDz.s:11227  .progmem.data:00001eb6 LabelERR
C:\Users\9E8E~1\AppData\Local\Temp/ccByrnDz.s:1700   .text:00000d4a OutTemperatureDS
                            *COM*:00000004 DS_Temp
C:\Users\9E8E~1\AppData\Local\Temp/ccByrnDz.s:10787  .bss:00000005 STATUS_DS
C:\Users\9E8E~1\AppData\Local\Temp/ccByrnDz.s:1807   .text:00000e3e OutUI8_6x8
C:\Users\9E8E~1\AppData\Local\Temp/ccByrnDz.s:1853   .text:00000e90 OutInfoToLCD
C:\Users\9E8E~1\AppData\Local\Temp/ccByrnDz.s:11146  .progmem.data:00001e89 LabelT1
C:\Users\9E8E~1\AppData\Local\Temp/ccByrnDz.s:11155  .progmem.data:00001e8e LabelT2
C:\Users\9E8E~1\AppData\Local\Temp/ccByrnDz.s:11164  .progmem.data:00001e93 LabelT3
C:\Users\9E8E~1\AppData\Local\Temp/ccByrnDz.s:11173  .progmem.data:00001e98 LabelM1
C:\Users\9E8E~1\AppData\Local\Temp/ccByrnDz.s:10817  .bss:0000000c PWM1_LEVEL
C:\Users\9E8E~1\AppData\Local\Temp/ccByrnDz.s:11182  .progmem.data:00001e9d LabelM2
C:\Users\9E8E~1\AppData\Local\Temp/ccByrnDz.s:10823  .bss:0000000d PWM2_LEVEL
C:\Users\9E8E~1\AppData\Local\Temp/ccByrnDz.s:11191  .progmem.data:00001ea2 LabelM3
C:\Users\9E8E~1\AppData\Local\Temp/ccByrnDz.s:10829  .bss:0000000e PWM3_LEVEL
C:\Users\9E8E~1\AppData\Local\Temp/ccByrnDz.s:1923   .text:00000f52 CheckButton
C:\Users\9E8E~1\AppData\Local\Temp/ccByrnDz.s:1970   .text:00000fbc DS18B20_init
C:\Users\9E8E~1\AppData\Local\Temp/ccByrnDz.s:2028   .text:00000ffc DS18B20_send
C:\Users\9E8E~1\AppData\Local\Temp/ccByrnDz.s:2078   .text:00001032 DS_calcCRC8
C:\Users\9E8E~1\AppData\Local\Temp/ccByrnDz.s:2108   .text:00001058 DS18B20_read
                            *COM*:00000009 DS_TempData
C:\Users\9E8E~1\AppData\Local\Temp/ccByrnDz.s:2144   .text:00001092 DS18B20_SetResolution
C:\Users\9E8E~1\AppData\Local\Temp/ccByrnDz.s:2171   .text:000010cc DS18B20_convertTemp
C:\Users\9E8E~1\AppData\Local\Temp/ccByrnDz.s:2188   .text:000010e8 DS18B20_getTemp
C:\Users\9E8E~1\AppData\Local\Temp/ccByrnDz.s:2282   .text:000011cc PWM_sendByte
C:\Users\9E8E~1\AppData\Local\Temp/ccByrnDz.s:2337   .text:00001204 PWM_send
C:\Users\9E8E~1\AppData\Local\Temp/ccByrnDz.s:2365   .text:0000122c Work_T3_M3
C:\Users\9E8E~1\AppData\Local\Temp/ccByrnDz.s:2499   .text:00001368 Work_T12_M12
C:\Users\9E8E~1\AppData\Local\Temp/ccByrnDz.s:10835  .bss:0000000f M12_Step_Start
C:\Users\9E8E~1\AppData\Local\Temp/ccByrnDz.s:10865  .bss:00000014 M12_Step_Stop
C:\Users\9E8E~1\AppData\Local\Temp/ccByrnDz.s:2824   .text:000016bc UpdateValuesFromEEPROM
C:\Users\9E8E~1\AppData\Local\Temp/ccByrnDz.s:10913  .eeprom:00000000 EE_LED_LIGTH
C:\Users\9E8E~1\AppData\Local\Temp/ccByrnDz.s:10918  .eeprom:00000001 EE_SETVAL_TEMP_ROOM
C:\Users\9E8E~1\AppData\Local\Temp/ccByrnDz.s:10923  .eeprom:00000002 EE_SETVAL_DELTA_TEMP_ROOM
C:\Users\9E8E~1\AppData\Local\Temp/ccByrnDz.s:10928  .eeprom:00000003 EE_SETVAL_TEMP_TOP_OVEN
C:\Users\9E8E~1\AppData\Local\Temp/ccByrnDz.s:10933  .eeprom:00000004 EE_SETVAL_DELTA_TEMP_TOP_OVEN
C:\Users\9E8E~1\AppData\Local\Temp/ccByrnDz.s:10938  .eeprom:00000005 EE_SETVAL_TEMP_PYROLYS_START
C:\Users\9E8E~1\AppData\Local\Temp/ccByrnDz.s:10943  .eeprom:00000007 EE_SETVAL_TEMP_PYROLYS_FULL
C:\Users\9E8E~1\AppData\Local\Temp/ccByrnDz.s:10948  .eeprom:00000009 EE_SETVAL_DELTA_TEMP_SHUTDOWN
C:\Users\9E8E~1\AppData\Local\Temp/ccByrnDz.s:10953  .eeprom:0000000a EE_SETVAL_PWM_FAN1_START
C:\Users\9E8E~1\AppData\Local\Temp/ccByrnDz.s:10958  .eeprom:0000000b EE_SETVAL_PWM_FAN2_START
C:\Users\9E8E~1\AppData\Local\Temp/ccByrnDz.s:10963  .eeprom:0000000c EE_SETVAL_PWM_FAN3_START
C:\Users\9E8E~1\AppData\Local\Temp/ccByrnDz.s:2878   .text:0000174a LoadValuesFromEEPROM
C:\Users\9E8E~1\AppData\Local\Temp/ccByrnDz.s:2932   .text:000017d8 main

UNDEFINED SYMBOLS
__floatsisf
__mulsf3
__divsf3
__fixunssfsi
__subsf3
__floatunsisf
__udivmodqi4
__udivmodhi4
__addsf3
__gtsf2
__eeupd_byte_m32
__eeupd_word_m32
__eerd_byte_m32
__eerd_word_m32
__do_clear_bss
